GAS LISTING C:\Users\Hexma\AppData\Local\Temp\cc7G6F1c.s 			page 1


   1               		.file	"SmartResponseXE.cpp"
   2               	__SP_H__ = 0x3e
   3               	__SP_L__ = 0x3d
   4               	__SREG__ = 0x3f
   5               	__RAMPZ__ = 0x3b
   6               	__tmp_reg__ = 0
   7               	__zero_reg__ = 1
   8               		.text
   9               	.Ltext0:
  10               		.cfi_sections	.debug_frame
  11               		.section	.text._Z10getPinInfohPPVhS1_i,"ax",@progbits
  12               	.global	_Z10getPinInfohPPVhS1_i
  14               	_Z10getPinInfohPPVhS1_i:
  15               	.LFB112:
  16               		.file 1 "C:\\Users\\Hexma\\Documents\\Arduino\\hardware\\SMART-Response-XE-Low_level-master\\avr\\
   1:C:\Users\Hexma\Documents\Arduino\hardware\SMART-Response-XE-Low_level-master\avr\libraries\SmartResponseXE\SmartResponseXE.cpp **** //
   2:C:\Users\Hexma\Documents\Arduino\hardware\SMART-Response-XE-Low_level-master\avr\libraries\SmartResponseXE\SmartResponseXE.cpp **** // SMART Response XE library
   3:C:\Users\Hexma\Documents\Arduino\hardware\SMART-Response-XE-Low_level-master\avr\libraries\SmartResponseXE\SmartResponseXE.cpp **** //
   4:C:\Users\Hexma\Documents\Arduino\hardware\SMART-Response-XE-Low_level-master\avr\libraries\SmartResponseXE\SmartResponseXE.cpp **** // LCD and keyboard routines for the SRXE handheld classroom communicator
   5:C:\Users\Hexma\Documents\Arduino\hardware\SMART-Response-XE-Low_level-master\avr\libraries\SmartResponseXE\SmartResponseXE.cpp **** //
   6:C:\Users\Hexma\Documents\Arduino\hardware\SMART-Response-XE-Low_level-master\avr\libraries\SmartResponseXE\SmartResponseXE.cpp **** // Copyright (c) 2018 BitBank Software, Inc.
   7:C:\Users\Hexma\Documents\Arduino\hardware\SMART-Response-XE-Low_level-master\avr\libraries\SmartResponseXE\SmartResponseXE.cpp **** // written by Larry Bank
   8:C:\Users\Hexma\Documents\Arduino\hardware\SMART-Response-XE-Low_level-master\avr\libraries\SmartResponseXE\SmartResponseXE.cpp **** // email: bitbank@pobox.com
   9:C:\Users\Hexma\Documents\Arduino\hardware\SMART-Response-XE-Low_level-master\avr\libraries\SmartResponseXE\SmartResponseXE.cpp **** // Project started 8/4/2018
  10:C:\Users\Hexma\Documents\Arduino\hardware\SMART-Response-XE-Low_level-master\avr\libraries\SmartResponseXE\SmartResponseXE.cpp **** //
  11:C:\Users\Hexma\Documents\Arduino\hardware\SMART-Response-XE-Low_level-master\avr\libraries\SmartResponseXE\SmartResponseXE.cpp **** // This program is free software: you can redistribute it and/or modify
  12:C:\Users\Hexma\Documents\Arduino\hardware\SMART-Response-XE-Low_level-master\avr\libraries\SmartResponseXE\SmartResponseXE.cpp **** // it under the terms of the GNU General Public License as published by
  13:C:\Users\Hexma\Documents\Arduino\hardware\SMART-Response-XE-Low_level-master\avr\libraries\SmartResponseXE\SmartResponseXE.cpp **** // the Free Software Foundation, either version 3 of the License, or
  14:C:\Users\Hexma\Documents\Arduino\hardware\SMART-Response-XE-Low_level-master\avr\libraries\SmartResponseXE\SmartResponseXE.cpp **** // (at your option) any later version.
  15:C:\Users\Hexma\Documents\Arduino\hardware\SMART-Response-XE-Low_level-master\avr\libraries\SmartResponseXE\SmartResponseXE.cpp **** //
  16:C:\Users\Hexma\Documents\Arduino\hardware\SMART-Response-XE-Low_level-master\avr\libraries\SmartResponseXE\SmartResponseXE.cpp **** // This program is distributed in the hope that it will be useful,
  17:C:\Users\Hexma\Documents\Arduino\hardware\SMART-Response-XE-Low_level-master\avr\libraries\SmartResponseXE\SmartResponseXE.cpp **** // but WITHOUT ANY WARRANTY; without even the implied warranty of
  18:C:\Users\Hexma\Documents\Arduino\hardware\SMART-Response-XE-Low_level-master\avr\libraries\SmartResponseXE\SmartResponseXE.cpp **** // MERCHANTABILITY or FITNESS FOR A PARTICULAR PURPOSE.  See the
  19:C:\Users\Hexma\Documents\Arduino\hardware\SMART-Response-XE-Low_level-master\avr\libraries\SmartResponseXE\SmartResponseXE.cpp **** // GNU General Public License for more details.
  20:C:\Users\Hexma\Documents\Arduino\hardware\SMART-Response-XE-Low_level-master\avr\libraries\SmartResponseXE\SmartResponseXE.cpp **** //
  21:C:\Users\Hexma\Documents\Arduino\hardware\SMART-Response-XE-Low_level-master\avr\libraries\SmartResponseXE\SmartResponseXE.cpp **** // You should have received a copy of the GNU General Public License
  22:C:\Users\Hexma\Documents\Arduino\hardware\SMART-Response-XE-Low_level-master\avr\libraries\SmartResponseXE\SmartResponseXE.cpp **** // along with this program.  If not, see <http://www.gnu.org/licenses/>.
  23:C:\Users\Hexma\Documents\Arduino\hardware\SMART-Response-XE-Low_level-master\avr\libraries\SmartResponseXE\SmartResponseXE.cpp **** //
  24:C:\Users\Hexma\Documents\Arduino\hardware\SMART-Response-XE-Low_level-master\avr\libraries\SmartResponseXE\SmartResponseXE.cpp **** 
  25:C:\Users\Hexma\Documents\Arduino\hardware\SMART-Response-XE-Low_level-master\avr\libraries\SmartResponseXE\SmartResponseXE.cpp **** // 18/11/2019 fdufnews keyboard map modification
  26:C:\Users\Hexma\Documents\Arduino\hardware\SMART-Response-XE-Low_level-master\avr\libraries\SmartResponseXE\SmartResponseXE.cpp **** // DEL          --> enter (0x0D) (more intuitive position)
  27:C:\Users\Hexma\Documents\Arduino\hardware\SMART-Response-XE-Low_level-master\avr\libraries\SmartResponseXE\SmartResponseXE.cpp **** // shift + DEL  --> backspace (0x08) 
  28:C:\Users\Hexma\Documents\Arduino\hardware\SMART-Response-XE-Low_level-master\avr\libraries\SmartResponseXE\SmartResponseXE.cpp **** // SYM + I      --> ;
  29:C:\Users\Hexma\Documents\Arduino\hardware\SMART-Response-XE-Low_level-master\avr\libraries\SmartResponseXE\SmartResponseXE.cpp **** // SYM + Z      --> *
  30:C:\Users\Hexma\Documents\Arduino\hardware\SMART-Response-XE-Low_level-master\avr\libraries\SmartResponseXE\SmartResponseXE.cpp **** // SYM + X      --> /
  31:C:\Users\Hexma\Documents\Arduino\hardware\SMART-Response-XE-Low_level-master\avr\libraries\SmartResponseXE\SmartResponseXE.cpp **** // square root  --> ESC
  32:C:\Users\Hexma\Documents\Arduino\hardware\SMART-Response-XE-Low_level-master\avr\libraries\SmartResponseXE\SmartResponseXE.cpp **** // 8/12/2019 fdufnews added function to define scroll area
  33:C:\Users\Hexma\Documents\Arduino\hardware\SMART-Response-XE-Low_level-master\avr\libraries\SmartResponseXE\SmartResponseXE.cpp **** //
  34:C:\Users\Hexma\Documents\Arduino\hardware\SMART-Response-XE-Low_level-master\avr\libraries\SmartResponseXE\SmartResponseXE.cpp **** #include <Arduino.h>
  35:C:\Users\Hexma\Documents\Arduino\hardware\SMART-Response-XE-Low_level-master\avr\libraries\SmartResponseXE\SmartResponseXE.cpp **** #include <avr/pgmspace.h>
  36:C:\Users\Hexma\Documents\Arduino\hardware\SMART-Response-XE-Low_level-master\avr\libraries\SmartResponseXE\SmartResponseXE.cpp **** #include <avr/sleep.h>
  37:C:\Users\Hexma\Documents\Arduino\hardware\SMART-Response-XE-Low_level-master\avr\libraries\SmartResponseXE\SmartResponseXE.cpp **** #include "SmartResponseXE.h"
  38:C:\Users\Hexma\Documents\Arduino\hardware\SMART-Response-XE-Low_level-master\avr\libraries\SmartResponseXE\SmartResponseXE.cpp **** //#include <SPI.h>
  39:C:\Users\Hexma\Documents\Arduino\hardware\SMART-Response-XE-Low_level-master\avr\libraries\SmartResponseXE\SmartResponseXE.cpp **** 
  40:C:\Users\Hexma\Documents\Arduino\hardware\SMART-Response-XE-Low_level-master\avr\libraries\SmartResponseXE\SmartResponseXE.cpp **** // Mapping of keyboard to GPIO pins
  41:C:\Users\Hexma\Documents\Arduino\hardware\SMART-Response-XE-Low_level-master\avr\libraries\SmartResponseXE\SmartResponseXE.cpp **** //static byte rowPins[ROWS] = {6,35,34,8,9,0};
  42:C:\Users\Hexma\Documents\Arduino\hardware\SMART-Response-XE-Low_level-master\avr\libraries\SmartResponseXE\SmartResponseXE.cpp **** //static byte colPins[COLS] = {4,A1,A3,2,1,25,16,19,23,22};
GAS LISTING C:\Users\Hexma\AppData\Local\Temp\cc7G6F1c.s 			page 2


  43:C:\Users\Hexma\Documents\Arduino\hardware\SMART-Response-XE-Low_level-master\avr\libraries\SmartResponseXE\SmartResponseXE.cpp **** const uint8_t rowPins[ROWS] = {0xe6, 0xb7, 0xb6, 0xb5, 0xb4, 0xe0};
  44:C:\Users\Hexma\Documents\Arduino\hardware\SMART-Response-XE-Low_level-master\avr\libraries\SmartResponseXE\SmartResponseXE.cpp **** const uint8_t colPins[COLS] = {0xe4, 0xf1, 0xf3, 0xe2, 0xe1, 0xd7, 0xa0, 0xa5, 0xd5, 0xd4};
  45:C:\Users\Hexma\Documents\Arduino\hardware\SMART-Response-XE-Low_level-master\avr\libraries\SmartResponseXE\SmartResponseXE.cpp **** static byte bKeyMap[COLS]; // bits indicating pressed keys
  46:C:\Users\Hexma\Documents\Arduino\hardware\SMART-Response-XE-Low_level-master\avr\libraries\SmartResponseXE\SmartResponseXE.cpp **** static byte bOldKeyMap[COLS]; // previous map to look for pressed/released keys
  47:C:\Users\Hexma\Documents\Arduino\hardware\SMART-Response-XE-Low_level-master\avr\libraries\SmartResponseXE\SmartResponseXE.cpp **** static byte bColorToByte[4] = {0, 0x49, 0x92, 0xff};
  48:C:\Users\Hexma\Documents\Arduino\hardware\SMART-Response-XE-Low_level-master\avr\libraries\SmartResponseXE\SmartResponseXE.cpp **** static byte iCSPin, iDCPin, iResetPin;
  49:C:\Users\Hexma\Documents\Arduino\hardware\SMART-Response-XE-Low_level-master\avr\libraries\SmartResponseXE\SmartResponseXE.cpp **** 
  50:C:\Users\Hexma\Documents\Arduino\hardware\SMART-Response-XE-Low_level-master\avr\libraries\SmartResponseXE\SmartResponseXE.cpp **** static int iScrollOffset;
  51:C:\Users\Hexma\Documents\Arduino\hardware\SMART-Response-XE-Low_level-master\avr\libraries\SmartResponseXE\SmartResponseXE.cpp **** static int scrollArea=LCD_HEIGHT;
  52:C:\Users\Hexma\Documents\Arduino\hardware\SMART-Response-XE-Low_level-master\avr\libraries\SmartResponseXE\SmartResponseXE.cpp **** void SRXEFill(byte ucData);
  53:C:\Users\Hexma\Documents\Arduino\hardware\SMART-Response-XE-Low_level-master\avr\libraries\SmartResponseXE\SmartResponseXE.cpp **** static void SRXEWriteCommand(unsigned char c);
  54:C:\Users\Hexma\Documents\Arduino\hardware\SMART-Response-XE-Low_level-master\avr\libraries\SmartResponseXE\SmartResponseXE.cpp **** 
  55:C:\Users\Hexma\Documents\Arduino\hardware\SMART-Response-XE-Low_level-master\avr\libraries\SmartResponseXE\SmartResponseXE.cpp **** typedef enum
  56:C:\Users\Hexma\Documents\Arduino\hardware\SMART-Response-XE-Low_level-master\avr\libraries\SmartResponseXE\SmartResponseXE.cpp **** {
  57:C:\Users\Hexma\Documents\Arduino\hardware\SMART-Response-XE-Low_level-master\avr\libraries\SmartResponseXE\SmartResponseXE.cpp ****   MODE_DATA = 0,
  58:C:\Users\Hexma\Documents\Arduino\hardware\SMART-Response-XE-Low_level-master\avr\libraries\SmartResponseXE\SmartResponseXE.cpp ****   MODE_COMMAND
  59:C:\Users\Hexma\Documents\Arduino\hardware\SMART-Response-XE-Low_level-master\avr\libraries\SmartResponseXE\SmartResponseXE.cpp **** } DC_MODE;
  60:C:\Users\Hexma\Documents\Arduino\hardware\SMART-Response-XE-Low_level-master\avr\libraries\SmartResponseXE\SmartResponseXE.cpp **** 
  61:C:\Users\Hexma\Documents\Arduino\hardware\SMART-Response-XE-Low_level-master\avr\libraries\SmartResponseXE\SmartResponseXE.cpp **** #ifndef HIGH
  62:C:\Users\Hexma\Documents\Arduino\hardware\SMART-Response-XE-Low_level-master\avr\libraries\SmartResponseXE\SmartResponseXE.cpp **** #define HIGH 1
  63:C:\Users\Hexma\Documents\Arduino\hardware\SMART-Response-XE-Low_level-master\avr\libraries\SmartResponseXE\SmartResponseXE.cpp **** #define LOW 0
  64:C:\Users\Hexma\Documents\Arduino\hardware\SMART-Response-XE-Low_level-master\avr\libraries\SmartResponseXE\SmartResponseXE.cpp **** #define INPUT 0
  65:C:\Users\Hexma\Documents\Arduino\hardware\SMART-Response-XE-Low_level-master\avr\libraries\SmartResponseXE\SmartResponseXE.cpp **** #define INPUT_PULLUP 1
  66:C:\Users\Hexma\Documents\Arduino\hardware\SMART-Response-XE-Low_level-master\avr\libraries\SmartResponseXE\SmartResponseXE.cpp **** #define OUTPUT 2
  67:C:\Users\Hexma\Documents\Arduino\hardware\SMART-Response-XE-Low_level-master\avr\libraries\SmartResponseXE\SmartResponseXE.cpp **** #endif
  68:C:\Users\Hexma\Documents\Arduino\hardware\SMART-Response-XE-Low_level-master\avr\libraries\SmartResponseXE\SmartResponseXE.cpp **** 
  69:C:\Users\Hexma\Documents\Arduino\hardware\SMART-Response-XE-Low_level-master\avr\libraries\SmartResponseXE\SmartResponseXE.cpp **** // Chip select for the external 1Mb flash module
  70:C:\Users\Hexma\Documents\Arduino\hardware\SMART-Response-XE-Low_level-master\avr\libraries\SmartResponseXE\SmartResponseXE.cpp **** #define CS_FLASH 0xd3
  71:C:\Users\Hexma\Documents\Arduino\hardware\SMART-Response-XE-Low_level-master\avr\libraries\SmartResponseXE\SmartResponseXE.cpp **** 
  72:C:\Users\Hexma\Documents\Arduino\hardware\SMART-Response-XE-Low_level-master\avr\libraries\SmartResponseXE\SmartResponseXE.cpp **** //Keyboard
  73:C:\Users\Hexma\Documents\Arduino\hardware\SMART-Response-XE-Low_level-master\avr\libraries\SmartResponseXE\SmartResponseXE.cpp **** //Logical Layout (SK# are screen keys: top to bottom 1-5 on left, 6-10 on right):
  74:C:\Users\Hexma\Documents\Arduino\hardware\SMART-Response-XE-Low_level-master\avr\libraries\SmartResponseXE\SmartResponseXE.cpp **** //                ROW1|ROW2|ROW3|ROW4|ROW5|ROW6|ROW7|ROW8|ROW9|ROW10
  75:C:\Users\Hexma\Documents\Arduino\hardware\SMART-Response-XE-Low_level-master\avr\libraries\SmartResponseXE\SmartResponseXE.cpp **** //           COL1    1|   2|   3|   4|   5|   6|   7|   8|   9|    0
  76:C:\Users\Hexma\Documents\Arduino\hardware\SMART-Response-XE-Low_level-master\avr\libraries\SmartResponseXE\SmartResponseXE.cpp **** //           COL2    Q|   W|   E|   R|   T|   Y|   U|   I|   O|    P
  77:C:\Users\Hexma\Documents\Arduino\hardware\SMART-Response-XE-Low_level-master\avr\libraries\SmartResponseXE\SmartResponseXE.cpp **** //           COL3    A|   S|   D|   F|   G|   H|   J|   K|   L| Bksp
  78:C:\Users\Hexma\Documents\Arduino\hardware\SMART-Response-XE-Low_level-master\avr\libraries\SmartResponseXE\SmartResponseXE.cpp **** //           COL4 Shft|   Z|   X|   C|   V|   B|   N|Down|Entr|   Up
  79:C:\Users\Hexma\Documents\Arduino\hardware\SMART-Response-XE-Low_level-master\avr\libraries\SmartResponseXE\SmartResponseXE.cpp **** //           COL5  Sym|Frac|Root| Exp| Spc|   ,|   .|   M|Left|Right
  80:C:\Users\Hexma\Documents\Arduino\hardware\SMART-Response-XE-Low_level-master\avr\libraries\SmartResponseXE\SmartResponseXE.cpp **** //           COL6  SK1| SK2| SK3| SK4| SK5| SK6| SK7| SK8| SK9| SK10
  81:C:\Users\Hexma\Documents\Arduino\hardware\SMART-Response-XE-Low_level-master\avr\libraries\SmartResponseXE\SmartResponseXE.cpp **** byte OriginalKeys[] = {'1', '2', '3', '4', '5', '6', '7', '8', '9', '0',
  82:C:\Users\Hexma\Documents\Arduino\hardware\SMART-Response-XE-Low_level-master\avr\libraries\SmartResponseXE\SmartResponseXE.cpp ****                        'q', 'w', 'e', 'r', 't', 'y', 'u', 'i', 'o', 'p',
  83:C:\Users\Hexma\Documents\Arduino\hardware\SMART-Response-XE-Low_level-master\avr\libraries\SmartResponseXE\SmartResponseXE.cpp ****                        'a', 's', 'd', 'f', 'g', 'h', 'j', 'k', 'l', 0xd, // enter (now del needs a 
  84:C:\Users\Hexma\Documents\Arduino\hardware\SMART-Response-XE-Low_level-master\avr\libraries\SmartResponseXE\SmartResponseXE.cpp ****                        0  , 'z', 'x', 'c', 'v', 'b', 'n', 0x5, 0, 0x4, // 5 = down, 4 = up
  85:C:\Users\Hexma\Documents\Arduino\hardware\SMART-Response-XE-Low_level-master\avr\libraries\SmartResponseXE\SmartResponseXE.cpp ****                        0  , 0xd,  0x1b,  0, ' ', ',', '.', 'm',  2,  3, // 2 = left, 3 = right, roo
  86:C:\Users\Hexma\Documents\Arduino\hardware\SMART-Response-XE-Low_level-master\avr\libraries\SmartResponseXE\SmartResponseXE.cpp ****                        0xf0, 0xf1, 0xf2, 0xf3, 0xf4, 0xf5, 0xf6, 0xf7, 0xf8, 0xf9
  87:C:\Users\Hexma\Documents\Arduino\hardware\SMART-Response-XE-Low_level-master\avr\libraries\SmartResponseXE\SmartResponseXE.cpp ****                       };
  88:C:\Users\Hexma\Documents\Arduino\hardware\SMART-Response-XE-Low_level-master\avr\libraries\SmartResponseXE\SmartResponseXE.cpp **** byte ShiftedKeys[] =  {'1', '2', '3', '4', '5', '6', '7', '8', '9', '0',
  89:C:\Users\Hexma\Documents\Arduino\hardware\SMART-Response-XE-Low_level-master\avr\libraries\SmartResponseXE\SmartResponseXE.cpp ****                        'Q', 'W', 'E', 'R', 'T', 'Y', 'U', 'I', 'O', 'P',
  90:C:\Users\Hexma\Documents\Arduino\hardware\SMART-Response-XE-Low_level-master\avr\libraries\SmartResponseXE\SmartResponseXE.cpp ****                        'A', 'S', 'D', 'F', 'G', 'H', 'J', 'K', 'L', 8,
  91:C:\Users\Hexma\Documents\Arduino\hardware\SMART-Response-XE-Low_level-master\avr\libraries\SmartResponseXE\SmartResponseXE.cpp ****                        0  , 'Z', 'X', 'C', 'V', 'B', 'N', 0x5, 0, 0x4, // 5 = down
  92:C:\Users\Hexma\Documents\Arduino\hardware\SMART-Response-XE-Low_level-master\avr\libraries\SmartResponseXE\SmartResponseXE.cpp ****                        0  , 0xd,  0,  0, '_', ',', '.', 'M',  2,  3,
  93:C:\Users\Hexma\Documents\Arduino\hardware\SMART-Response-XE-Low_level-master\avr\libraries\SmartResponseXE\SmartResponseXE.cpp ****                        0xf0, 0xf1, 0xf2, 0xf3, 0xf4, 0xf5, 0xf6, 0xf7, 0xf8, 0xf9
  94:C:\Users\Hexma\Documents\Arduino\hardware\SMART-Response-XE-Low_level-master\avr\libraries\SmartResponseXE\SmartResponseXE.cpp ****                       };
  95:C:\Users\Hexma\Documents\Arduino\hardware\SMART-Response-XE-Low_level-master\avr\libraries\SmartResponseXE\SmartResponseXE.cpp **** byte SymKeys[] =       {'!', '2', '3', '$', '%', '6', '\'', '\"', '(', ')',
  96:C:\Users\Hexma\Documents\Arduino\hardware\SMART-Response-XE-Low_level-master\avr\libraries\SmartResponseXE\SmartResponseXE.cpp ****                         'q', 'w', 'e', 'r', 't', 'y', 'u', ';', '[', ']', // i = ;
  97:C:\Users\Hexma\Documents\Arduino\hardware\SMART-Response-XE-Low_level-master\avr\libraries\SmartResponseXE\SmartResponseXE.cpp ****                         '=', '+', '-', 'f', 'g', 'h', 'j', ':', '?', 8,
  98:C:\Users\Hexma\Documents\Arduino\hardware\SMART-Response-XE-Low_level-master\avr\libraries\SmartResponseXE\SmartResponseXE.cpp ****                         0 , '*', '/', 'c', 'v', 'b', 'n', 0x5, 0, 0x4, // z = *, x = /
  99:C:\Users\Hexma\Documents\Arduino\hardware\SMART-Response-XE-Low_level-master\avr\libraries\SmartResponseXE\SmartResponseXE.cpp ****                         0 , 0xd, 0 , 0 , 0x1, '<', '>', 'm', 2, 3, // 1 = menu
GAS LISTING C:\Users\Hexma\AppData\Local\Temp\cc7G6F1c.s 			page 3


 100:C:\Users\Hexma\Documents\Arduino\hardware\SMART-Response-XE-Low_level-master\avr\libraries\SmartResponseXE\SmartResponseXE.cpp ****                         0xf0, 0xf1, 0xf2, 0xf3, 0xf4, 0xf5, 0xf6, 0xf7, 0xf8, 0xf9
 101:C:\Users\Hexma\Documents\Arduino\hardware\SMART-Response-XE-Low_level-master\avr\libraries\SmartResponseXE\SmartResponseXE.cpp ****                        };
 102:C:\Users\Hexma\Documents\Arduino\hardware\SMART-Response-XE-Low_level-master\avr\libraries\SmartResponseXE\SmartResponseXE.cpp **** 
 103:C:\Users\Hexma\Documents\Arduino\hardware\SMART-Response-XE-Low_level-master\avr\libraries\SmartResponseXE\SmartResponseXE.cpp **** //
 104:C:\Users\Hexma\Documents\Arduino\hardware\SMART-Response-XE-Low_level-master\avr\libraries\SmartResponseXE\SmartResponseXE.cpp **** // Power on the LCD
 105:C:\Users\Hexma\Documents\Arduino\hardware\SMART-Response-XE-Low_level-master\avr\libraries\SmartResponseXE\SmartResponseXE.cpp **** //
 106:C:\Users\Hexma\Documents\Arduino\hardware\SMART-Response-XE-Low_level-master\avr\libraries\SmartResponseXE\SmartResponseXE.cpp **** const char powerup[] PROGMEM = {
 107:C:\Users\Hexma\Documents\Arduino\hardware\SMART-Response-XE-Low_level-master\avr\libraries\SmartResponseXE\SmartResponseXE.cpp ****   1, 0x01, // soft reset
 108:C:\Users\Hexma\Documents\Arduino\hardware\SMART-Response-XE-Low_level-master\avr\libraries\SmartResponseXE\SmartResponseXE.cpp ****   99, 120, // 120ms delay
 109:C:\Users\Hexma\Documents\Arduino\hardware\SMART-Response-XE-Low_level-master\avr\libraries\SmartResponseXE\SmartResponseXE.cpp ****   1, 0x11,  // sleep out
 110:C:\Users\Hexma\Documents\Arduino\hardware\SMART-Response-XE-Low_level-master\avr\libraries\SmartResponseXE\SmartResponseXE.cpp ****   1, 0x28,  // display off
 111:C:\Users\Hexma\Documents\Arduino\hardware\SMART-Response-XE-Low_level-master\avr\libraries\SmartResponseXE\SmartResponseXE.cpp ****   99, 50, // 50ms delay
 112:C:\Users\Hexma\Documents\Arduino\hardware\SMART-Response-XE-Low_level-master\avr\libraries\SmartResponseXE\SmartResponseXE.cpp ****   3, 0xc0, 0xf8, 0x00, // Vop = 0xF0
 113:C:\Users\Hexma\Documents\Arduino\hardware\SMART-Response-XE-Low_level-master\avr\libraries\SmartResponseXE\SmartResponseXE.cpp ****   2, 0xc3, 0x04, // BIAS = 1/14
 114:C:\Users\Hexma\Documents\Arduino\hardware\SMART-Response-XE-Low_level-master\avr\libraries\SmartResponseXE\SmartResponseXE.cpp ****   2, 0xc4, 0x05, // Booster = x8
 115:C:\Users\Hexma\Documents\Arduino\hardware\SMART-Response-XE-Low_level-master\avr\libraries\SmartResponseXE\SmartResponseXE.cpp ****   2, 0xd0, 0x1d, // Enable analog circuit
 116:C:\Users\Hexma\Documents\Arduino\hardware\SMART-Response-XE-Low_level-master\avr\libraries\SmartResponseXE\SmartResponseXE.cpp ****   2, 0xb3, 0x00, // Set FOSC divider
 117:C:\Users\Hexma\Documents\Arduino\hardware\SMART-Response-XE-Low_level-master\avr\libraries\SmartResponseXE\SmartResponseXE.cpp ****   2, 0xb5, 0x8b, // N-Line = 0
 118:C:\Users\Hexma\Documents\Arduino\hardware\SMART-Response-XE-Low_level-master\avr\libraries\SmartResponseXE\SmartResponseXE.cpp ****   1, 0x38,       // Set grayscale mode (0x39 = monochrome mode)
 119:C:\Users\Hexma\Documents\Arduino\hardware\SMART-Response-XE-Low_level-master\avr\libraries\SmartResponseXE\SmartResponseXE.cpp ****   2, 0x3a, 0x02, // Enable DDRAM interface
 120:C:\Users\Hexma\Documents\Arduino\hardware\SMART-Response-XE-Low_level-master\avr\libraries\SmartResponseXE\SmartResponseXE.cpp ****   2, 0x36, 0x00, // Scan direction setting
 121:C:\Users\Hexma\Documents\Arduino\hardware\SMART-Response-XE-Low_level-master\avr\libraries\SmartResponseXE\SmartResponseXE.cpp ****   2, 0xB0, 0x9f, // Duty setting (0x87?)
 122:C:\Users\Hexma\Documents\Arduino\hardware\SMART-Response-XE-Low_level-master\avr\libraries\SmartResponseXE\SmartResponseXE.cpp ****   5, 0xf0, 0x12, 0x12, 0x12, 0x12, // 77Hz frame rate in all temperatures
 123:C:\Users\Hexma\Documents\Arduino\hardware\SMART-Response-XE-Low_level-master\avr\libraries\SmartResponseXE\SmartResponseXE.cpp ****   1, 0x20, // Display inversion off
 124:C:\Users\Hexma\Documents\Arduino\hardware\SMART-Response-XE-Low_level-master\avr\libraries\SmartResponseXE\SmartResponseXE.cpp ****   1, 0x29, // Display ON
 125:C:\Users\Hexma\Documents\Arduino\hardware\SMART-Response-XE-Low_level-master\avr\libraries\SmartResponseXE\SmartResponseXE.cpp ****   0
 126:C:\Users\Hexma\Documents\Arduino\hardware\SMART-Response-XE-Low_level-master\avr\libraries\SmartResponseXE\SmartResponseXE.cpp **** };
 127:C:\Users\Hexma\Documents\Arduino\hardware\SMART-Response-XE-Low_level-master\avr\libraries\SmartResponseXE\SmartResponseXE.cpp **** 
 128:C:\Users\Hexma\Documents\Arduino\hardware\SMART-Response-XE-Low_level-master\avr\libraries\SmartResponseXE\SmartResponseXE.cpp **** // small font
 129:C:\Users\Hexma\Documents\Arduino\hardware\SMART-Response-XE-Low_level-master\avr\libraries\SmartResponseXE\SmartResponseXE.cpp **** const byte ucFont[]PROGMEM = {
 130:C:\Users\Hexma\Documents\Arduino\hardware\SMART-Response-XE-Low_level-master\avr\libraries\SmartResponseXE\SmartResponseXE.cpp ****   0x00, 0x00, 0x00, 0x00, 0x00, 0x00, 0x00, 0x00, 0x00, 0x00, 0x06, 0x5f, 0x5f, 0x06, 0x00, 0x00,
 131:C:\Users\Hexma\Documents\Arduino\hardware\SMART-Response-XE-Low_level-master\avr\libraries\SmartResponseXE\SmartResponseXE.cpp ****   0x00, 0x07, 0x07, 0x00, 0x07, 0x07, 0x00, 0x00, 0x14, 0x7f, 0x7f, 0x14, 0x7f, 0x7f, 0x14, 0x00,
 132:C:\Users\Hexma\Documents\Arduino\hardware\SMART-Response-XE-Low_level-master\avr\libraries\SmartResponseXE\SmartResponseXE.cpp ****   0x24, 0x2e, 0x2a, 0x6b, 0x6b, 0x3a, 0x12, 0x00, 0x46, 0x66, 0x30, 0x18, 0x0c, 0x66, 0x62, 0x00,
 133:C:\Users\Hexma\Documents\Arduino\hardware\SMART-Response-XE-Low_level-master\avr\libraries\SmartResponseXE\SmartResponseXE.cpp ****   0x30, 0x7a, 0x4f, 0x5d, 0x37, 0x7a, 0x48, 0x00, 0x00, 0x04, 0x07, 0x03, 0x00, 0x00, 0x00, 0x00,
 134:C:\Users\Hexma\Documents\Arduino\hardware\SMART-Response-XE-Low_level-master\avr\libraries\SmartResponseXE\SmartResponseXE.cpp ****   0x00, 0x1c, 0x3e, 0x63, 0x41, 0x00, 0x00, 0x00, 0x00, 0x41, 0x63, 0x3e, 0x1c, 0x00, 0x00, 0x00,
 135:C:\Users\Hexma\Documents\Arduino\hardware\SMART-Response-XE-Low_level-master\avr\libraries\SmartResponseXE\SmartResponseXE.cpp ****   0x08, 0x2a, 0x3e, 0x1c, 0x1c, 0x3e, 0x2a, 0x08, 0x00, 0x08, 0x08, 0x3e, 0x3e, 0x08, 0x08, 0x00,
 136:C:\Users\Hexma\Documents\Arduino\hardware\SMART-Response-XE-Low_level-master\avr\libraries\SmartResponseXE\SmartResponseXE.cpp ****   0x00, 0x00, 0x80, 0xe0, 0x60, 0x00, 0x00, 0x00, 0x00, 0x08, 0x08, 0x08, 0x08, 0x08, 0x08, 0x00,
 137:C:\Users\Hexma\Documents\Arduino\hardware\SMART-Response-XE-Low_level-master\avr\libraries\SmartResponseXE\SmartResponseXE.cpp ****   0x00, 0x00, 0x00, 0x60, 0x60, 0x00, 0x00, 0x00, 0x60, 0x30, 0x18, 0x0c, 0x06, 0x03, 0x01, 0x00,
 138:C:\Users\Hexma\Documents\Arduino\hardware\SMART-Response-XE-Low_level-master\avr\libraries\SmartResponseXE\SmartResponseXE.cpp ****   0x3e, 0x7f, 0x59, 0x4d, 0x47, 0x7f, 0x3e, 0x00, 0x40, 0x42, 0x7f, 0x7f, 0x40, 0x40, 0x00, 0x00,
 139:C:\Users\Hexma\Documents\Arduino\hardware\SMART-Response-XE-Low_level-master\avr\libraries\SmartResponseXE\SmartResponseXE.cpp ****   0x62, 0x73, 0x59, 0x49, 0x6f, 0x66, 0x00, 0x00, 0x22, 0x63, 0x49, 0x49, 0x7f, 0x36, 0x00, 0x00,
 140:C:\Users\Hexma\Documents\Arduino\hardware\SMART-Response-XE-Low_level-master\avr\libraries\SmartResponseXE\SmartResponseXE.cpp ****   0x18, 0x1c, 0x16, 0x53, 0x7f, 0x7f, 0x50, 0x00, 0x27, 0x67, 0x45, 0x45, 0x7d, 0x39, 0x00, 0x00,
 141:C:\Users\Hexma\Documents\Arduino\hardware\SMART-Response-XE-Low_level-master\avr\libraries\SmartResponseXE\SmartResponseXE.cpp ****   0x3c, 0x7e, 0x4b, 0x49, 0x79, 0x30, 0x00, 0x00, 0x03, 0x03, 0x71, 0x79, 0x0f, 0x07, 0x00, 0x00,
 142:C:\Users\Hexma\Documents\Arduino\hardware\SMART-Response-XE-Low_level-master\avr\libraries\SmartResponseXE\SmartResponseXE.cpp ****   0x36, 0x7f, 0x49, 0x49, 0x7f, 0x36, 0x00, 0x00, 0x06, 0x4f, 0x49, 0x69, 0x3f, 0x1e, 0x00, 0x00,
 143:C:\Users\Hexma\Documents\Arduino\hardware\SMART-Response-XE-Low_level-master\avr\libraries\SmartResponseXE\SmartResponseXE.cpp ****   0x00, 0x00, 0x00, 0x66, 0x66, 0x00, 0x00, 0x00, 0x00, 0x00, 0x80, 0xe6, 0x66, 0x00, 0x00, 0x00,
 144:C:\Users\Hexma\Documents\Arduino\hardware\SMART-Response-XE-Low_level-master\avr\libraries\SmartResponseXE\SmartResponseXE.cpp ****   0x08, 0x1c, 0x36, 0x63, 0x41, 0x00, 0x00, 0x00, 0x00, 0x14, 0x14, 0x14, 0x14, 0x14, 0x14, 0x00,
 145:C:\Users\Hexma\Documents\Arduino\hardware\SMART-Response-XE-Low_level-master\avr\libraries\SmartResponseXE\SmartResponseXE.cpp ****   0x00, 0x41, 0x63, 0x36, 0x1c, 0x08, 0x00, 0x00, 0x00, 0x02, 0x03, 0x59, 0x5d, 0x07, 0x02, 0x00,
 146:C:\Users\Hexma\Documents\Arduino\hardware\SMART-Response-XE-Low_level-master\avr\libraries\SmartResponseXE\SmartResponseXE.cpp ****   0x3e, 0x7f, 0x41, 0x5d, 0x5d, 0x5f, 0x0e, 0x00, 0x7c, 0x7e, 0x13, 0x13, 0x7e, 0x7c, 0x00, 0x00,
 147:C:\Users\Hexma\Documents\Arduino\hardware\SMART-Response-XE-Low_level-master\avr\libraries\SmartResponseXE\SmartResponseXE.cpp ****   0x41, 0x7f, 0x7f, 0x49, 0x49, 0x7f, 0x36, 0x00, 0x1c, 0x3e, 0x63, 0x41, 0x41, 0x63, 0x22, 0x00,
 148:C:\Users\Hexma\Documents\Arduino\hardware\SMART-Response-XE-Low_level-master\avr\libraries\SmartResponseXE\SmartResponseXE.cpp ****   0x41, 0x7f, 0x7f, 0x41, 0x63, 0x3e, 0x1c, 0x00, 0x41, 0x7f, 0x7f, 0x49, 0x5d, 0x41, 0x63, 0x00,
 149:C:\Users\Hexma\Documents\Arduino\hardware\SMART-Response-XE-Low_level-master\avr\libraries\SmartResponseXE\SmartResponseXE.cpp ****   0x41, 0x7f, 0x7f, 0x49, 0x1d, 0x01, 0x03, 0x00, 0x1c, 0x3e, 0x63, 0x41, 0x51, 0x33, 0x72, 0x00,
 150:C:\Users\Hexma\Documents\Arduino\hardware\SMART-Response-XE-Low_level-master\avr\libraries\SmartResponseXE\SmartResponseXE.cpp ****   0x7f, 0x7f, 0x08, 0x08, 0x7f, 0x7f, 0x00, 0x00, 0x00, 0x41, 0x7f, 0x7f, 0x41, 0x00, 0x00, 0x00,
 151:C:\Users\Hexma\Documents\Arduino\hardware\SMART-Response-XE-Low_level-master\avr\libraries\SmartResponseXE\SmartResponseXE.cpp ****   0x30, 0x70, 0x40, 0x41, 0x7f, 0x3f, 0x01, 0x00, 0x41, 0x7f, 0x7f, 0x08, 0x1c, 0x77, 0x63, 0x00,
 152:C:\Users\Hexma\Documents\Arduino\hardware\SMART-Response-XE-Low_level-master\avr\libraries\SmartResponseXE\SmartResponseXE.cpp ****   0x41, 0x7f, 0x7f, 0x41, 0x40, 0x60, 0x70, 0x00, 0x7f, 0x7f, 0x0e, 0x1c, 0x0e, 0x7f, 0x7f, 0x00,
 153:C:\Users\Hexma\Documents\Arduino\hardware\SMART-Response-XE-Low_level-master\avr\libraries\SmartResponseXE\SmartResponseXE.cpp ****   0x7f, 0x7f, 0x06, 0x0c, 0x18, 0x7f, 0x7f, 0x00, 0x1c, 0x3e, 0x63, 0x41, 0x63, 0x3e, 0x1c, 0x00,
 154:C:\Users\Hexma\Documents\Arduino\hardware\SMART-Response-XE-Low_level-master\avr\libraries\SmartResponseXE\SmartResponseXE.cpp ****   0x41, 0x7f, 0x7f, 0x49, 0x09, 0x0f, 0x06, 0x00, 0x1e, 0x3f, 0x21, 0x31, 0x61, 0x7f, 0x5e, 0x00,
 155:C:\Users\Hexma\Documents\Arduino\hardware\SMART-Response-XE-Low_level-master\avr\libraries\SmartResponseXE\SmartResponseXE.cpp ****   0x41, 0x7f, 0x7f, 0x09, 0x19, 0x7f, 0x66, 0x00, 0x26, 0x6f, 0x4d, 0x49, 0x59, 0x73, 0x32, 0x00,
 156:C:\Users\Hexma\Documents\Arduino\hardware\SMART-Response-XE-Low_level-master\avr\libraries\SmartResponseXE\SmartResponseXE.cpp ****   0x03, 0x41, 0x7f, 0x7f, 0x41, 0x03, 0x00, 0x00, 0x7f, 0x7f, 0x40, 0x40, 0x7f, 0x7f, 0x00, 0x00,
GAS LISTING C:\Users\Hexma\AppData\Local\Temp\cc7G6F1c.s 			page 4


 157:C:\Users\Hexma\Documents\Arduino\hardware\SMART-Response-XE-Low_level-master\avr\libraries\SmartResponseXE\SmartResponseXE.cpp ****   0x1f, 0x3f, 0x60, 0x60, 0x3f, 0x1f, 0x00, 0x00, 0x3f, 0x7f, 0x60, 0x30, 0x60, 0x7f, 0x3f, 0x00,
 158:C:\Users\Hexma\Documents\Arduino\hardware\SMART-Response-XE-Low_level-master\avr\libraries\SmartResponseXE\SmartResponseXE.cpp ****   0x63, 0x77, 0x1c, 0x08, 0x1c, 0x77, 0x63, 0x00, 0x07, 0x4f, 0x78, 0x78, 0x4f, 0x07, 0x00, 0x00,
 159:C:\Users\Hexma\Documents\Arduino\hardware\SMART-Response-XE-Low_level-master\avr\libraries\SmartResponseXE\SmartResponseXE.cpp ****   0x47, 0x63, 0x71, 0x59, 0x4d, 0x67, 0x73, 0x00, 0x00, 0x7f, 0x7f, 0x41, 0x41, 0x00, 0x00, 0x00,
 160:C:\Users\Hexma\Documents\Arduino\hardware\SMART-Response-XE-Low_level-master\avr\libraries\SmartResponseXE\SmartResponseXE.cpp ****   0x01, 0x03, 0x06, 0x0c, 0x18, 0x30, 0x60, 0x00, 0x00, 0x41, 0x41, 0x7f, 0x7f, 0x00, 0x00, 0x00,
 161:C:\Users\Hexma\Documents\Arduino\hardware\SMART-Response-XE-Low_level-master\avr\libraries\SmartResponseXE\SmartResponseXE.cpp ****   0x08, 0x0c, 0x06, 0x03, 0x06, 0x0c, 0x08, 0x00, 0x80, 0x80, 0x80, 0x80, 0x80, 0x80, 0x80, 0x80,
 162:C:\Users\Hexma\Documents\Arduino\hardware\SMART-Response-XE-Low_level-master\avr\libraries\SmartResponseXE\SmartResponseXE.cpp ****   0x00, 0x00, 0x03, 0x07, 0x04, 0x00, 0x00, 0x00, 0x20, 0x74, 0x54, 0x54, 0x3c, 0x78, 0x40, 0x00,
 163:C:\Users\Hexma\Documents\Arduino\hardware\SMART-Response-XE-Low_level-master\avr\libraries\SmartResponseXE\SmartResponseXE.cpp ****   0x41, 0x7f, 0x3f, 0x48, 0x48, 0x78, 0x30, 0x00, 0x38, 0x7c, 0x44, 0x44, 0x6c, 0x28, 0x00, 0x00,
 164:C:\Users\Hexma\Documents\Arduino\hardware\SMART-Response-XE-Low_level-master\avr\libraries\SmartResponseXE\SmartResponseXE.cpp ****   0x30, 0x78, 0x48, 0x49, 0x3f, 0x7f, 0x40, 0x00, 0x38, 0x7c, 0x54, 0x54, 0x5c, 0x18, 0x00, 0x00,
 165:C:\Users\Hexma\Documents\Arduino\hardware\SMART-Response-XE-Low_level-master\avr\libraries\SmartResponseXE\SmartResponseXE.cpp ****   0x48, 0x7e, 0x7f, 0x49, 0x03, 0x06, 0x00, 0x00, 0x98, 0xbc, 0xa4, 0xa4, 0xf8, 0x7c, 0x04, 0x00,
 166:C:\Users\Hexma\Documents\Arduino\hardware\SMART-Response-XE-Low_level-master\avr\libraries\SmartResponseXE\SmartResponseXE.cpp ****   0x41, 0x7f, 0x7f, 0x08, 0x04, 0x7c, 0x78, 0x00, 0x00, 0x44, 0x7d, 0x7d, 0x40, 0x00, 0x00, 0x00,
 167:C:\Users\Hexma\Documents\Arduino\hardware\SMART-Response-XE-Low_level-master\avr\libraries\SmartResponseXE\SmartResponseXE.cpp ****   0x60, 0xe0, 0x80, 0x84, 0xfd, 0x7d, 0x00, 0x00, 0x41, 0x7f, 0x7f, 0x10, 0x38, 0x6c, 0x44, 0x00,
 168:C:\Users\Hexma\Documents\Arduino\hardware\SMART-Response-XE-Low_level-master\avr\libraries\SmartResponseXE\SmartResponseXE.cpp ****   0x00, 0x41, 0x7f, 0x7f, 0x40, 0x00, 0x00, 0x00, 0x7c, 0x7c, 0x18, 0x78, 0x1c, 0x7c, 0x78, 0x00,
 169:C:\Users\Hexma\Documents\Arduino\hardware\SMART-Response-XE-Low_level-master\avr\libraries\SmartResponseXE\SmartResponseXE.cpp ****   0x7c, 0x78, 0x04, 0x04, 0x7c, 0x78, 0x00, 0x00, 0x38, 0x7c, 0x44, 0x44, 0x7c, 0x38, 0x00, 0x00,
 170:C:\Users\Hexma\Documents\Arduino\hardware\SMART-Response-XE-Low_level-master\avr\libraries\SmartResponseXE\SmartResponseXE.cpp ****   0x84, 0xfc, 0xf8, 0xa4, 0x24, 0x3c, 0x18, 0x00, 0x18, 0x3c, 0x24, 0xa4, 0xf8, 0xfc, 0x84, 0x00,
 171:C:\Users\Hexma\Documents\Arduino\hardware\SMART-Response-XE-Low_level-master\avr\libraries\SmartResponseXE\SmartResponseXE.cpp ****   0x44, 0x7c, 0x78, 0x4c, 0x04, 0x0c, 0x18, 0x00, 0x48, 0x5c, 0x54, 0x74, 0x64, 0x24, 0x00, 0x00,
 172:C:\Users\Hexma\Documents\Arduino\hardware\SMART-Response-XE-Low_level-master\avr\libraries\SmartResponseXE\SmartResponseXE.cpp ****   0x04, 0x04, 0x3e, 0x7f, 0x44, 0x24, 0x00, 0x00, 0x3c, 0x7c, 0x40, 0x40, 0x3c, 0x7c, 0x40, 0x00,
 173:C:\Users\Hexma\Documents\Arduino\hardware\SMART-Response-XE-Low_level-master\avr\libraries\SmartResponseXE\SmartResponseXE.cpp ****   0x1c, 0x3c, 0x60, 0x60, 0x3c, 0x1c, 0x00, 0x00, 0x3c, 0x7c, 0x60, 0x30, 0x60, 0x7c, 0x3c, 0x00,
 174:C:\Users\Hexma\Documents\Arduino\hardware\SMART-Response-XE-Low_level-master\avr\libraries\SmartResponseXE\SmartResponseXE.cpp ****   0x44, 0x6c, 0x38, 0x10, 0x38, 0x6c, 0x44, 0x00, 0x9c, 0xbc, 0xa0, 0xa0, 0xfc, 0x7c, 0x00, 0x00,
 175:C:\Users\Hexma\Documents\Arduino\hardware\SMART-Response-XE-Low_level-master\avr\libraries\SmartResponseXE\SmartResponseXE.cpp ****   0x4c, 0x64, 0x74, 0x5c, 0x4c, 0x64, 0x00, 0x00, 0x08, 0x08, 0x3e, 0x77, 0x41, 0x41, 0x00, 0x00,
 176:C:\Users\Hexma\Documents\Arduino\hardware\SMART-Response-XE-Low_level-master\avr\libraries\SmartResponseXE\SmartResponseXE.cpp ****   0x00, 0x00, 0x00, 0x77, 0x77, 0x00, 0x00, 0x00, 0x41, 0x41, 0x77, 0x3e, 0x08, 0x08, 0x00, 0x00,
 177:C:\Users\Hexma\Documents\Arduino\hardware\SMART-Response-XE-Low_level-master\avr\libraries\SmartResponseXE\SmartResponseXE.cpp ****   0x02, 0x03, 0x01, 0x03, 0x02, 0x03, 0x01, 0x00, 0x70, 0x78, 0x4c, 0x46, 0x4c, 0x78, 0x70, 0x00
 178:C:\Users\Hexma\Documents\Arduino\hardware\SMART-Response-XE-Low_level-master\avr\libraries\SmartResponseXE\SmartResponseXE.cpp **** };
 179:C:\Users\Hexma\Documents\Arduino\hardware\SMART-Response-XE-Low_level-master\avr\libraries\SmartResponseXE\SmartResponseXE.cpp **** 
 180:C:\Users\Hexma\Documents\Arduino\hardware\SMART-Response-XE-Low_level-master\avr\libraries\SmartResponseXE\SmartResponseXE.cpp **** // 5x7 font (in 6x8 cell)
 181:C:\Users\Hexma\Documents\Arduino\hardware\SMART-Response-XE-Low_level-master\avr\libraries\SmartResponseXE\SmartResponseXE.cpp **** const unsigned char ucSmallFont[]PROGMEM = {
 182:C:\Users\Hexma\Documents\Arduino\hardware\SMART-Response-XE-Low_level-master\avr\libraries\SmartResponseXE\SmartResponseXE.cpp ****   0x00, 0x00, 0x00, 0x00, 0x00, 0x00, 0x00, 0x00, 0x06, 0x5f, 0x06, 0x00, 0x00, 0x07, 0x03, 0x00,
 183:C:\Users\Hexma\Documents\Arduino\hardware\SMART-Response-XE-Low_level-master\avr\libraries\SmartResponseXE\SmartResponseXE.cpp ****   0x07, 0x03, 0x00, 0x24, 0x7e, 0x24, 0x7e, 0x24, 0x00, 0x24, 0x2b, 0x6a, 0x12, 0x00, 0x00, 0x63,
 184:C:\Users\Hexma\Documents\Arduino\hardware\SMART-Response-XE-Low_level-master\avr\libraries\SmartResponseXE\SmartResponseXE.cpp ****   0x13, 0x08, 0x64, 0x63, 0x00, 0x36, 0x49, 0x56, 0x20, 0x50, 0x00, 0x00, 0x07, 0x03, 0x00, 0x00,
 185:C:\Users\Hexma\Documents\Arduino\hardware\SMART-Response-XE-Low_level-master\avr\libraries\SmartResponseXE\SmartResponseXE.cpp ****   0x00, 0x00, 0x3e, 0x41, 0x00, 0x00, 0x00, 0x00, 0x41, 0x3e, 0x00, 0x00, 0x00, 0x08, 0x3e, 0x1c,
 186:C:\Users\Hexma\Documents\Arduino\hardware\SMART-Response-XE-Low_level-master\avr\libraries\SmartResponseXE\SmartResponseXE.cpp ****   0x3e, 0x08, 0x00, 0x08, 0x08, 0x3e, 0x08, 0x08, 0x00, 0x00, 0xe0, 0x60, 0x00, 0x00, 0x00, 0x08,
 187:C:\Users\Hexma\Documents\Arduino\hardware\SMART-Response-XE-Low_level-master\avr\libraries\SmartResponseXE\SmartResponseXE.cpp ****   0x08, 0x08, 0x08, 0x08, 0x00, 0x00, 0x60, 0x60, 0x00, 0x00, 0x00, 0x20, 0x10, 0x08, 0x04, 0x02,
 188:C:\Users\Hexma\Documents\Arduino\hardware\SMART-Response-XE-Low_level-master\avr\libraries\SmartResponseXE\SmartResponseXE.cpp ****   0x00, 0x3e, 0x51, 0x49, 0x45, 0x3e, 0x00, 0x00, 0x42, 0x7f, 0x40, 0x00, 0x00, 0x62, 0x51, 0x49,
 189:C:\Users\Hexma\Documents\Arduino\hardware\SMART-Response-XE-Low_level-master\avr\libraries\SmartResponseXE\SmartResponseXE.cpp ****   0x49, 0x46, 0x00, 0x22, 0x49, 0x49, 0x49, 0x36, 0x00, 0x18, 0x14, 0x12, 0x7f, 0x10, 0x00, 0x2f,
 190:C:\Users\Hexma\Documents\Arduino\hardware\SMART-Response-XE-Low_level-master\avr\libraries\SmartResponseXE\SmartResponseXE.cpp ****   0x49, 0x49, 0x49, 0x31, 0x00, 0x3c, 0x4a, 0x49, 0x49, 0x30, 0x00, 0x01, 0x71, 0x09, 0x05, 0x03,
 191:C:\Users\Hexma\Documents\Arduino\hardware\SMART-Response-XE-Low_level-master\avr\libraries\SmartResponseXE\SmartResponseXE.cpp ****   0x00, 0x36, 0x49, 0x49, 0x49, 0x36, 0x00, 0x06, 0x49, 0x49, 0x29, 0x1e, 0x00, 0x00, 0x6c, 0x6c,
 192:C:\Users\Hexma\Documents\Arduino\hardware\SMART-Response-XE-Low_level-master\avr\libraries\SmartResponseXE\SmartResponseXE.cpp ****   0x00, 0x00, 0x00, 0x00, 0xec, 0x6c, 0x00, 0x00, 0x00, 0x08, 0x14, 0x22, 0x41, 0x00, 0x00, 0x24,
 193:C:\Users\Hexma\Documents\Arduino\hardware\SMART-Response-XE-Low_level-master\avr\libraries\SmartResponseXE\SmartResponseXE.cpp ****   0x24, 0x24, 0x24, 0x24, 0x00, 0x00, 0x41, 0x22, 0x14, 0x08, 0x00, 0x02, 0x01, 0x59, 0x09, 0x06,
 194:C:\Users\Hexma\Documents\Arduino\hardware\SMART-Response-XE-Low_level-master\avr\libraries\SmartResponseXE\SmartResponseXE.cpp ****   0x00, 0x3e, 0x41, 0x5d, 0x55, 0x1e, 0x00, 0x7e, 0x11, 0x11, 0x11, 0x7e, 0x00, 0x7f, 0x49, 0x49,
 195:C:\Users\Hexma\Documents\Arduino\hardware\SMART-Response-XE-Low_level-master\avr\libraries\SmartResponseXE\SmartResponseXE.cpp ****   0x49, 0x36, 0x00, 0x3e, 0x41, 0x41, 0x41, 0x22, 0x00, 0x7f, 0x41, 0x41, 0x41, 0x3e, 0x00, 0x7f,
 196:C:\Users\Hexma\Documents\Arduino\hardware\SMART-Response-XE-Low_level-master\avr\libraries\SmartResponseXE\SmartResponseXE.cpp ****   0x49, 0x49, 0x49, 0x41, 0x00, 0x7f, 0x09, 0x09, 0x09, 0x01, 0x00, 0x3e, 0x41, 0x49, 0x49, 0x7a,
 197:C:\Users\Hexma\Documents\Arduino\hardware\SMART-Response-XE-Low_level-master\avr\libraries\SmartResponseXE\SmartResponseXE.cpp ****   0x00, 0x7f, 0x08, 0x08, 0x08, 0x7f, 0x00, 0x00, 0x41, 0x7f, 0x41, 0x00, 0x00, 0x30, 0x40, 0x40,
 198:C:\Users\Hexma\Documents\Arduino\hardware\SMART-Response-XE-Low_level-master\avr\libraries\SmartResponseXE\SmartResponseXE.cpp ****   0x40, 0x3f, 0x00, 0x7f, 0x08, 0x14, 0x22, 0x41, 0x00, 0x7f, 0x40, 0x40, 0x40, 0x40, 0x00, 0x7f,
 199:C:\Users\Hexma\Documents\Arduino\hardware\SMART-Response-XE-Low_level-master\avr\libraries\SmartResponseXE\SmartResponseXE.cpp ****   0x02, 0x04, 0x02, 0x7f, 0x00, 0x7f, 0x02, 0x04, 0x08, 0x7f, 0x00, 0x3e, 0x41, 0x41, 0x41, 0x3e,
 200:C:\Users\Hexma\Documents\Arduino\hardware\SMART-Response-XE-Low_level-master\avr\libraries\SmartResponseXE\SmartResponseXE.cpp ****   0x00, 0x7f, 0x09, 0x09, 0x09, 0x06, 0x00, 0x3e, 0x41, 0x51, 0x21, 0x5e, 0x00, 0x7f, 0x09, 0x09,
 201:C:\Users\Hexma\Documents\Arduino\hardware\SMART-Response-XE-Low_level-master\avr\libraries\SmartResponseXE\SmartResponseXE.cpp ****   0x19, 0x66, 0x00, 0x26, 0x49, 0x49, 0x49, 0x32, 0x00, 0x01, 0x01, 0x7f, 0x01, 0x01, 0x00, 0x3f,
 202:C:\Users\Hexma\Documents\Arduino\hardware\SMART-Response-XE-Low_level-master\avr\libraries\SmartResponseXE\SmartResponseXE.cpp ****   0x40, 0x40, 0x40, 0x3f, 0x00, 0x1f, 0x20, 0x40, 0x20, 0x1f, 0x00, 0x3f, 0x40, 0x3c, 0x40, 0x3f,
 203:C:\Users\Hexma\Documents\Arduino\hardware\SMART-Response-XE-Low_level-master\avr\libraries\SmartResponseXE\SmartResponseXE.cpp ****   0x00, 0x63, 0x14, 0x08, 0x14, 0x63, 0x00, 0x07, 0x08, 0x70, 0x08, 0x07, 0x00, 0x71, 0x49, 0x45,
 204:C:\Users\Hexma\Documents\Arduino\hardware\SMART-Response-XE-Low_level-master\avr\libraries\SmartResponseXE\SmartResponseXE.cpp ****   0x43, 0x00, 0x00, 0x00, 0x7f, 0x41, 0x41, 0x00, 0x00, 0x02, 0x04, 0x08, 0x10, 0x20, 0x00, 0x00,
 205:C:\Users\Hexma\Documents\Arduino\hardware\SMART-Response-XE-Low_level-master\avr\libraries\SmartResponseXE\SmartResponseXE.cpp ****   0x41, 0x41, 0x7f, 0x00, 0x00, 0x04, 0x02, 0x01, 0x02, 0x04, 0x00, 0x80, 0x80, 0x80, 0x80, 0x80,
 206:C:\Users\Hexma\Documents\Arduino\hardware\SMART-Response-XE-Low_level-master\avr\libraries\SmartResponseXE\SmartResponseXE.cpp ****   0x00, 0x00, 0x03, 0x07, 0x00, 0x00, 0x00, 0x20, 0x54, 0x54, 0x54, 0x78, 0x00, 0x7f, 0x44, 0x44,
 207:C:\Users\Hexma\Documents\Arduino\hardware\SMART-Response-XE-Low_level-master\avr\libraries\SmartResponseXE\SmartResponseXE.cpp ****   0x44, 0x38, 0x00, 0x38, 0x44, 0x44, 0x44, 0x28, 0x00, 0x38, 0x44, 0x44, 0x44, 0x7f, 0x00, 0x38,
 208:C:\Users\Hexma\Documents\Arduino\hardware\SMART-Response-XE-Low_level-master\avr\libraries\SmartResponseXE\SmartResponseXE.cpp ****   0x54, 0x54, 0x54, 0x08, 0x00, 0x08, 0x7e, 0x09, 0x09, 0x00, 0x00, 0x18, 0xa4, 0xa4, 0xa4, 0x7c,
 209:C:\Users\Hexma\Documents\Arduino\hardware\SMART-Response-XE-Low_level-master\avr\libraries\SmartResponseXE\SmartResponseXE.cpp ****   0x00, 0x7f, 0x04, 0x04, 0x78, 0x00, 0x00, 0x00, 0x00, 0x7d, 0x40, 0x00, 0x00, 0x40, 0x80, 0x84,
 210:C:\Users\Hexma\Documents\Arduino\hardware\SMART-Response-XE-Low_level-master\avr\libraries\SmartResponseXE\SmartResponseXE.cpp ****   0x7d, 0x00, 0x00, 0x7f, 0x10, 0x28, 0x44, 0x00, 0x00, 0x00, 0x00, 0x7f, 0x40, 0x00, 0x00, 0x7c,
 211:C:\Users\Hexma\Documents\Arduino\hardware\SMART-Response-XE-Low_level-master\avr\libraries\SmartResponseXE\SmartResponseXE.cpp ****   0x04, 0x18, 0x04, 0x78, 0x00, 0x7c, 0x04, 0x04, 0x78, 0x00, 0x00, 0x38, 0x44, 0x44, 0x44, 0x38,
 212:C:\Users\Hexma\Documents\Arduino\hardware\SMART-Response-XE-Low_level-master\avr\libraries\SmartResponseXE\SmartResponseXE.cpp ****   0x00, 0xfc, 0x44, 0x44, 0x44, 0x38, 0x00, 0x38, 0x44, 0x44, 0x44, 0xfc, 0x00, 0x44, 0x78, 0x44,
 213:C:\Users\Hexma\Documents\Arduino\hardware\SMART-Response-XE-Low_level-master\avr\libraries\SmartResponseXE\SmartResponseXE.cpp ****   0x04, 0x08, 0x00, 0x08, 0x54, 0x54, 0x54, 0x20, 0x00, 0x04, 0x3e, 0x44, 0x24, 0x00, 0x00, 0x3c,
GAS LISTING C:\Users\Hexma\AppData\Local\Temp\cc7G6F1c.s 			page 5


 214:C:\Users\Hexma\Documents\Arduino\hardware\SMART-Response-XE-Low_level-master\avr\libraries\SmartResponseXE\SmartResponseXE.cpp ****   0x40, 0x20, 0x7c, 0x00, 0x00, 0x1c, 0x20, 0x40, 0x20, 0x1c, 0x00, 0x3c, 0x60, 0x30, 0x60, 0x3c,
 215:C:\Users\Hexma\Documents\Arduino\hardware\SMART-Response-XE-Low_level-master\avr\libraries\SmartResponseXE\SmartResponseXE.cpp ****   0x00, 0x6c, 0x10, 0x10, 0x6c, 0x00, 0x00, 0x9c, 0xa0, 0x60, 0x3c, 0x00, 0x00, 0x64, 0x54, 0x54,
 216:C:\Users\Hexma\Documents\Arduino\hardware\SMART-Response-XE-Low_level-master\avr\libraries\SmartResponseXE\SmartResponseXE.cpp ****   0x4c, 0x00, 0x00, 0x08, 0x3e, 0x41, 0x41, 0x00, 0x00, 0x00, 0x00, 0x77, 0x00, 0x00, 0x00, 0x00,
 217:C:\Users\Hexma\Documents\Arduino\hardware\SMART-Response-XE-Low_level-master\avr\libraries\SmartResponseXE\SmartResponseXE.cpp ****   0x41, 0x41, 0x3e, 0x08, 0x00, 0x02, 0x01, 0x02, 0x01, 0x00, 0x00, 0x3c, 0x26, 0x23, 0x26, 0x3c
 218:C:\Users\Hexma\Documents\Arduino\hardware\SMART-Response-XE-Low_level-master\avr\libraries\SmartResponseXE\SmartResponseXE.cpp **** };
 219:C:\Users\Hexma\Documents\Arduino\hardware\SMART-Response-XE-Low_level-master\avr\libraries\SmartResponseXE\SmartResponseXE.cpp **** 
 220:C:\Users\Hexma\Documents\Arduino\hardware\SMART-Response-XE-Low_level-master\avr\libraries\SmartResponseXE\SmartResponseXE.cpp **** uint8_t getPinInfo(uint8_t pin, volatile uint8_t **iDDR, volatile uint8_t **iPort, int bInput)
 221:C:\Users\Hexma\Documents\Arduino\hardware\SMART-Response-XE-Low_level-master\avr\libraries\SmartResponseXE\SmartResponseXE.cpp **** {
  17               		.loc 1 221 0
  18               		.cfi_startproc
  19               	.LVL0:
  20               	/* prologue: function */
  21               	/* frame size = 0 */
  22               	/* stack size = 0 */
  23               	.L__stack_usage = 0
  24 0000 982F      		mov r25,r24
  25 0002 FB01      		movw r30,r22
  26 0004 DA01      		movw r26,r20
  27               	.LVL1:
 222:C:\Users\Hexma\Documents\Arduino\hardware\SMART-Response-XE-Low_level-master\avr\libraries\SmartResponseXE\SmartResponseXE.cpp ****   uint8_t port, bit;
 223:C:\Users\Hexma\Documents\Arduino\hardware\SMART-Response-XE-Low_level-master\avr\libraries\SmartResponseXE\SmartResponseXE.cpp **** 
 224:C:\Users\Hexma\Documents\Arduino\hardware\SMART-Response-XE-Low_level-master\avr\libraries\SmartResponseXE\SmartResponseXE.cpp ****   port = (pin & 0xf0); // hex port (A,B,D,E,F)
 225:C:\Users\Hexma\Documents\Arduino\hardware\SMART-Response-XE-Low_level-master\avr\libraries\SmartResponseXE\SmartResponseXE.cpp ****   bit = pin & 0x7;
  28               		.loc 1 225 0
  29 0006 8770      		andi r24,lo8(7)
  30               	.LVL2:
 224:C:\Users\Hexma\Documents\Arduino\hardware\SMART-Response-XE-Low_level-master\avr\libraries\SmartResponseXE\SmartResponseXE.cpp ****   bit = pin & 0x7;
  31               		.loc 1 224 0
  32 0008 907F      		andi r25,lo8(-16)
  33               	.LVL3:
 226:C:\Users\Hexma\Documents\Arduino\hardware\SMART-Response-XE-Low_level-master\avr\libraries\SmartResponseXE\SmartResponseXE.cpp ****   switch (port)
  34               		.loc 1 226 0
  35 000a 903D      		cpi r25,lo8(-48)
  36 000c 01F0      		breq .L3
  37 000e 00F4      		brsh .L4
  38 0010 903A      		cpi r25,lo8(-96)
  39 0012 01F0      		breq .L5
  40 0014 903B      		cpi r25,lo8(-80)
  41 0016 01F0      		breq .L6
  42 0018 0895      		ret
  43               	.L4:
  44 001a 903E      		cpi r25,lo8(-32)
  45 001c 01F0      		breq .L7
  46 001e 903F      		cpi r25,lo8(-16)
  47 0020 01F0      		breq .L8
  48 0022 0895      		ret
  49               	.L5:
 227:C:\Users\Hexma\Documents\Arduino\hardware\SMART-Response-XE-Low_level-master\avr\libraries\SmartResponseXE\SmartResponseXE.cpp ****   {
 228:C:\Users\Hexma\Documents\Arduino\hardware\SMART-Response-XE-Low_level-master\avr\libraries\SmartResponseXE\SmartResponseXE.cpp ****     case 0xA0: // really port G
 229:C:\Users\Hexma\Documents\Arduino\hardware\SMART-Response-XE-Low_level-master\avr\libraries\SmartResponseXE\SmartResponseXE.cpp ****       *iPort = (bInput) ? &PING : &PORTG;
  50               		.loc 1 229 0
  51 0024 232B      		or r18,r19
  52 0026 01F4      		brne .L14
  53 0028 24E3      		ldi r18,lo8(52)
  54 002a 30E0      		ldi r19,0
  55               	.LVL4:
  56               	.L9:
GAS LISTING C:\Users\Hexma\AppData\Local\Temp\cc7G6F1c.s 			page 6


  57               		.loc 1 229 0 is_stmt 0 discriminator 4
  58 002c 2D93      		st X+,r18
  59 002e 3C93      		st X,r19
 230:C:\Users\Hexma\Documents\Arduino\hardware\SMART-Response-XE-Low_level-master\avr\libraries\SmartResponseXE\SmartResponseXE.cpp ****       *iDDR = &DDRG;
  60               		.loc 1 230 0 is_stmt 1 discriminator 4
  61 0030 23E3      		ldi r18,lo8(51)
  62 0032 30E0      		ldi r19,0
  63               	.L19:
 231:C:\Users\Hexma\Documents\Arduino\hardware\SMART-Response-XE-Low_level-master\avr\libraries\SmartResponseXE\SmartResponseXE.cpp ****       break;
 232:C:\Users\Hexma\Documents\Arduino\hardware\SMART-Response-XE-Low_level-master\avr\libraries\SmartResponseXE\SmartResponseXE.cpp ****     case 0xB0:
 233:C:\Users\Hexma\Documents\Arduino\hardware\SMART-Response-XE-Low_level-master\avr\libraries\SmartResponseXE\SmartResponseXE.cpp ****       *iPort = (bInput) ? &PINB : &PORTB;
 234:C:\Users\Hexma\Documents\Arduino\hardware\SMART-Response-XE-Low_level-master\avr\libraries\SmartResponseXE\SmartResponseXE.cpp ****       *iDDR = &DDRB;
 235:C:\Users\Hexma\Documents\Arduino\hardware\SMART-Response-XE-Low_level-master\avr\libraries\SmartResponseXE\SmartResponseXE.cpp ****       break;
 236:C:\Users\Hexma\Documents\Arduino\hardware\SMART-Response-XE-Low_level-master\avr\libraries\SmartResponseXE\SmartResponseXE.cpp ****     case 0xD0:
 237:C:\Users\Hexma\Documents\Arduino\hardware\SMART-Response-XE-Low_level-master\avr\libraries\SmartResponseXE\SmartResponseXE.cpp ****       *iPort = (bInput) ? &PIND : &PORTD;
 238:C:\Users\Hexma\Documents\Arduino\hardware\SMART-Response-XE-Low_level-master\avr\libraries\SmartResponseXE\SmartResponseXE.cpp ****       *iDDR = &DDRD;
 239:C:\Users\Hexma\Documents\Arduino\hardware\SMART-Response-XE-Low_level-master\avr\libraries\SmartResponseXE\SmartResponseXE.cpp ****       break;
 240:C:\Users\Hexma\Documents\Arduino\hardware\SMART-Response-XE-Low_level-master\avr\libraries\SmartResponseXE\SmartResponseXE.cpp ****     case 0xE0:
 241:C:\Users\Hexma\Documents\Arduino\hardware\SMART-Response-XE-Low_level-master\avr\libraries\SmartResponseXE\SmartResponseXE.cpp ****       *iPort = (bInput) ? &PINE : &PORTE;
 242:C:\Users\Hexma\Documents\Arduino\hardware\SMART-Response-XE-Low_level-master\avr\libraries\SmartResponseXE\SmartResponseXE.cpp ****       *iDDR = &DDRE;
 243:C:\Users\Hexma\Documents\Arduino\hardware\SMART-Response-XE-Low_level-master\avr\libraries\SmartResponseXE\SmartResponseXE.cpp ****       break;
 244:C:\Users\Hexma\Documents\Arduino\hardware\SMART-Response-XE-Low_level-master\avr\libraries\SmartResponseXE\SmartResponseXE.cpp ****     case 0xF0:
 245:C:\Users\Hexma\Documents\Arduino\hardware\SMART-Response-XE-Low_level-master\avr\libraries\SmartResponseXE\SmartResponseXE.cpp ****       *iPort = (bInput) ? &PINF : &PORTF;
 246:C:\Users\Hexma\Documents\Arduino\hardware\SMART-Response-XE-Low_level-master\avr\libraries\SmartResponseXE\SmartResponseXE.cpp ****       *iDDR = &DDRF;
  64               		.loc 1 246 0 discriminator 4
  65 0034 3183      		std Z+1,r19
  66 0036 2083      		st Z,r18
  67               	/* epilogue start */
 247:C:\Users\Hexma\Documents\Arduino\hardware\SMART-Response-XE-Low_level-master\avr\libraries\SmartResponseXE\SmartResponseXE.cpp ****       break;
 248:C:\Users\Hexma\Documents\Arduino\hardware\SMART-Response-XE-Low_level-master\avr\libraries\SmartResponseXE\SmartResponseXE.cpp ****   }
 249:C:\Users\Hexma\Documents\Arduino\hardware\SMART-Response-XE-Low_level-master\avr\libraries\SmartResponseXE\SmartResponseXE.cpp ****   return bit;
 250:C:\Users\Hexma\Documents\Arduino\hardware\SMART-Response-XE-Low_level-master\avr\libraries\SmartResponseXE\SmartResponseXE.cpp **** } /* getPinInfo() */
  68               		.loc 1 250 0 discriminator 4
  69 0038 0895      		ret
  70               	.LVL5:
  71               	.L14:
 229:C:\Users\Hexma\Documents\Arduino\hardware\SMART-Response-XE-Low_level-master\avr\libraries\SmartResponseXE\SmartResponseXE.cpp ****       *iDDR = &DDRG;
  72               		.loc 1 229 0
  73 003a 22E3      		ldi r18,lo8(50)
  74 003c 30E0      		ldi r19,0
  75               	.LVL6:
  76 003e 00C0      		rjmp .L9
  77               	.LVL7:
  78               	.L6:
 233:C:\Users\Hexma\Documents\Arduino\hardware\SMART-Response-XE-Low_level-master\avr\libraries\SmartResponseXE\SmartResponseXE.cpp ****       *iDDR = &DDRB;
  79               		.loc 1 233 0
  80 0040 232B      		or r18,r19
  81 0042 01F4      		brne .L15
  82 0044 25E2      		ldi r18,lo8(37)
  83 0046 30E0      		ldi r19,0
  84               	.LVL8:
  85               	.L10:
 233:C:\Users\Hexma\Documents\Arduino\hardware\SMART-Response-XE-Low_level-master\avr\libraries\SmartResponseXE\SmartResponseXE.cpp ****       *iDDR = &DDRB;
  86               		.loc 1 233 0 is_stmt 0 discriminator 4
  87 0048 2D93      		st X+,r18
  88 004a 3C93      		st X,r19
 234:C:\Users\Hexma\Documents\Arduino\hardware\SMART-Response-XE-Low_level-master\avr\libraries\SmartResponseXE\SmartResponseXE.cpp ****       break;
GAS LISTING C:\Users\Hexma\AppData\Local\Temp\cc7G6F1c.s 			page 7


  89               		.loc 1 234 0 is_stmt 1 discriminator 4
  90 004c 24E2      		ldi r18,lo8(36)
  91 004e 30E0      		ldi r19,0
  92 0050 00C0      		rjmp .L19
  93               	.LVL9:
  94               	.L15:
 233:C:\Users\Hexma\Documents\Arduino\hardware\SMART-Response-XE-Low_level-master\avr\libraries\SmartResponseXE\SmartResponseXE.cpp ****       *iDDR = &DDRB;
  95               		.loc 1 233 0
  96 0052 23E2      		ldi r18,lo8(35)
  97 0054 30E0      		ldi r19,0
  98               	.LVL10:
  99 0056 00C0      		rjmp .L10
 100               	.LVL11:
 101               	.L3:
 237:C:\Users\Hexma\Documents\Arduino\hardware\SMART-Response-XE-Low_level-master\avr\libraries\SmartResponseXE\SmartResponseXE.cpp ****       *iDDR = &DDRD;
 102               		.loc 1 237 0
 103 0058 232B      		or r18,r19
 104 005a 01F4      		brne .L16
 105 005c 2BE2      		ldi r18,lo8(43)
 106 005e 30E0      		ldi r19,0
 107               	.LVL12:
 108               	.L11:
 237:C:\Users\Hexma\Documents\Arduino\hardware\SMART-Response-XE-Low_level-master\avr\libraries\SmartResponseXE\SmartResponseXE.cpp ****       *iDDR = &DDRD;
 109               		.loc 1 237 0 is_stmt 0 discriminator 4
 110 0060 2D93      		st X+,r18
 111 0062 3C93      		st X,r19
 238:C:\Users\Hexma\Documents\Arduino\hardware\SMART-Response-XE-Low_level-master\avr\libraries\SmartResponseXE\SmartResponseXE.cpp ****       break;
 112               		.loc 1 238 0 is_stmt 1 discriminator 4
 113 0064 2AE2      		ldi r18,lo8(42)
 114 0066 30E0      		ldi r19,0
 115 0068 00C0      		rjmp .L19
 116               	.LVL13:
 117               	.L16:
 237:C:\Users\Hexma\Documents\Arduino\hardware\SMART-Response-XE-Low_level-master\avr\libraries\SmartResponseXE\SmartResponseXE.cpp ****       *iDDR = &DDRD;
 118               		.loc 1 237 0
 119 006a 29E2      		ldi r18,lo8(41)
 120 006c 30E0      		ldi r19,0
 121               	.LVL14:
 122 006e 00C0      		rjmp .L11
 123               	.LVL15:
 124               	.L7:
 241:C:\Users\Hexma\Documents\Arduino\hardware\SMART-Response-XE-Low_level-master\avr\libraries\SmartResponseXE\SmartResponseXE.cpp ****       *iDDR = &DDRE;
 125               		.loc 1 241 0
 126 0070 232B      		or r18,r19
 127 0072 01F4      		brne .L17
 128 0074 2EE2      		ldi r18,lo8(46)
 129 0076 30E0      		ldi r19,0
 130               	.LVL16:
 131               	.L12:
 241:C:\Users\Hexma\Documents\Arduino\hardware\SMART-Response-XE-Low_level-master\avr\libraries\SmartResponseXE\SmartResponseXE.cpp ****       *iDDR = &DDRE;
 132               		.loc 1 241 0 is_stmt 0 discriminator 4
 133 0078 2D93      		st X+,r18
 134 007a 3C93      		st X,r19
 242:C:\Users\Hexma\Documents\Arduino\hardware\SMART-Response-XE-Low_level-master\avr\libraries\SmartResponseXE\SmartResponseXE.cpp ****       break;
 135               		.loc 1 242 0 is_stmt 1 discriminator 4
 136 007c 2DE2      		ldi r18,lo8(45)
 137 007e 30E0      		ldi r19,0
GAS LISTING C:\Users\Hexma\AppData\Local\Temp\cc7G6F1c.s 			page 8


 138 0080 00C0      		rjmp .L19
 139               	.LVL17:
 140               	.L17:
 241:C:\Users\Hexma\Documents\Arduino\hardware\SMART-Response-XE-Low_level-master\avr\libraries\SmartResponseXE\SmartResponseXE.cpp ****       *iDDR = &DDRE;
 141               		.loc 1 241 0
 142 0082 2CE2      		ldi r18,lo8(44)
 143 0084 30E0      		ldi r19,0
 144               	.LVL18:
 145 0086 00C0      		rjmp .L12
 146               	.LVL19:
 147               	.L8:
 245:C:\Users\Hexma\Documents\Arduino\hardware\SMART-Response-XE-Low_level-master\avr\libraries\SmartResponseXE\SmartResponseXE.cpp ****       *iDDR = &DDRF;
 148               		.loc 1 245 0
 149 0088 232B      		or r18,r19
 150 008a 01F4      		brne .L18
 151 008c 21E3      		ldi r18,lo8(49)
 152 008e 30E0      		ldi r19,0
 153               	.LVL20:
 154               	.L13:
 245:C:\Users\Hexma\Documents\Arduino\hardware\SMART-Response-XE-Low_level-master\avr\libraries\SmartResponseXE\SmartResponseXE.cpp ****       *iDDR = &DDRF;
 155               		.loc 1 245 0 is_stmt 0 discriminator 4
 156 0090 2D93      		st X+,r18
 157 0092 3C93      		st X,r19
 246:C:\Users\Hexma\Documents\Arduino\hardware\SMART-Response-XE-Low_level-master\avr\libraries\SmartResponseXE\SmartResponseXE.cpp ****       break;
 158               		.loc 1 246 0 is_stmt 1 discriminator 4
 159 0094 20E3      		ldi r18,lo8(48)
 160 0096 30E0      		ldi r19,0
 161 0098 00C0      		rjmp .L19
 162               	.LVL21:
 163               	.L18:
 245:C:\Users\Hexma\Documents\Arduino\hardware\SMART-Response-XE-Low_level-master\avr\libraries\SmartResponseXE\SmartResponseXE.cpp ****       *iDDR = &DDRF;
 164               		.loc 1 245 0
 165 009a 2FE2      		ldi r18,lo8(47)
 166 009c 30E0      		ldi r19,0
 167               	.LVL22:
 168 009e 00C0      		rjmp .L13
 169               		.cfi_endproc
 170               	.LFE112:
 172               		.section	.text._Z9mypinModehh,"ax",@progbits
 173               	.global	_Z9mypinModehh
 175               	_Z9mypinModehh:
 176               	.LFB113:
 251:C:\Users\Hexma\Documents\Arduino\hardware\SMART-Response-XE-Low_level-master\avr\libraries\SmartResponseXE\SmartResponseXE.cpp **** 
 252:C:\Users\Hexma\Documents\Arduino\hardware\SMART-Response-XE-Low_level-master\avr\libraries\SmartResponseXE\SmartResponseXE.cpp **** 
 253:C:\Users\Hexma\Documents\Arduino\hardware\SMART-Response-XE-Low_level-master\avr\libraries\SmartResponseXE\SmartResponseXE.cpp **** //
 254:C:\Users\Hexma\Documents\Arduino\hardware\SMART-Response-XE-Low_level-master\avr\libraries\SmartResponseXE\SmartResponseXE.cpp **** // Simplified pin numbering scheme uses a hex number to specify the port number
 255:C:\Users\Hexma\Documents\Arduino\hardware\SMART-Response-XE-Low_level-master\avr\libraries\SmartResponseXE\SmartResponseXE.cpp **** // and bit. Top 4 bits = port (B/D/E/F/G), bottom 3 bits specify the bit of the port
 256:C:\Users\Hexma\Documents\Arduino\hardware\SMART-Response-XE-Low_level-master\avr\libraries\SmartResponseXE\SmartResponseXE.cpp **** // e.g. 0xB4 = PORTB, bit 4, 0Ax is for port G
 257:C:\Users\Hexma\Documents\Arduino\hardware\SMART-Response-XE-Low_level-master\avr\libraries\SmartResponseXE\SmartResponseXE.cpp **** //
 258:C:\Users\Hexma\Documents\Arduino\hardware\SMART-Response-XE-Low_level-master\avr\libraries\SmartResponseXE\SmartResponseXE.cpp **** void mypinMode(uint8_t pin, uint8_t mode)
 259:C:\Users\Hexma\Documents\Arduino\hardware\SMART-Response-XE-Low_level-master\avr\libraries\SmartResponseXE\SmartResponseXE.cpp **** {
 177               		.loc 1 259 0
 178               		.cfi_startproc
 179               	.LVL23:
 180 0000 1F93      		push r17
 181               	.LCFI0:
 182               		.cfi_def_cfa_offset 3
GAS LISTING C:\Users\Hexma\AppData\Local\Temp\cc7G6F1c.s 			page 9


 183               		.cfi_offset 17, -2
 184 0002 CF93      		push r28
 185               	.LCFI1:
 186               		.cfi_def_cfa_offset 4
 187               		.cfi_offset 28, -3
 188 0004 DF93      		push r29
 189               	.LCFI2:
 190               		.cfi_def_cfa_offset 5
 191               		.cfi_offset 29, -4
 192 0006 00D0      		rcall .
 193 0008 00D0      		rcall .
 194               	.LCFI3:
 195               		.cfi_def_cfa_offset 9
 196 000a CDB7      		in r28,__SP_L__
 197 000c DEB7      		in r29,__SP_H__
 198               	.LCFI4:
 199               		.cfi_def_cfa_register 28
 200               	/* prologue: function */
 201               	/* frame size = 4 */
 202               	/* stack size = 7 */
 203               	.L__stack_usage = 7
 204 000e 162F      		mov r17,r22
 260:C:\Users\Hexma\Documents\Arduino\hardware\SMART-Response-XE-Low_level-master\avr\libraries\SmartResponseXE\SmartResponseXE.cpp ****   uint8_t bit;
 261:C:\Users\Hexma\Documents\Arduino\hardware\SMART-Response-XE-Low_level-master\avr\libraries\SmartResponseXE\SmartResponseXE.cpp ****   volatile uint8_t *iPort, *iDDR;
 262:C:\Users\Hexma\Documents\Arduino\hardware\SMART-Response-XE-Low_level-master\avr\libraries\SmartResponseXE\SmartResponseXE.cpp **** 
 263:C:\Users\Hexma\Documents\Arduino\hardware\SMART-Response-XE-Low_level-master\avr\libraries\SmartResponseXE\SmartResponseXE.cpp ****   bit = getPinInfo(pin, &iDDR, &iPort, 0);
 205               		.loc 1 263 0
 206 0010 30E0      		ldi r19,0
 207 0012 20E0      		ldi r18,0
 208 0014 AE01      		movw r20,r28
 209 0016 4D5F      		subi r20,-3
 210 0018 5F4F      		sbci r21,-1
 211 001a BE01      		movw r22,r28
 212               	.LVL24:
 213 001c 6F5F      		subi r22,-1
 214 001e 7F4F      		sbci r23,-1
 215 0020 0E94 0000 		call _Z10getPinInfohPPVhS1_i
 216               	.LVL25:
 264:C:\Users\Hexma\Documents\Arduino\hardware\SMART-Response-XE-Low_level-master\avr\libraries\SmartResponseXE\SmartResponseXE.cpp ****   switch (mode)
 217               		.loc 1 264 0
 218 0024 1130      		cpi r17,lo8(1)
 219 0026 01F0      		breq .L22
 220 0028 00F0      		brlo .L23
 221 002a 1230      		cpi r17,lo8(2)
 222 002c 01F0      		breq .L24
 223               	.LVL26:
 224               	.L20:
 225               	/* epilogue start */
 265:C:\Users\Hexma\Documents\Arduino\hardware\SMART-Response-XE-Low_level-master\avr\libraries\SmartResponseXE\SmartResponseXE.cpp ****   {
 266:C:\Users\Hexma\Documents\Arduino\hardware\SMART-Response-XE-Low_level-master\avr\libraries\SmartResponseXE\SmartResponseXE.cpp ****     case INPUT:
 267:C:\Users\Hexma\Documents\Arduino\hardware\SMART-Response-XE-Low_level-master\avr\libraries\SmartResponseXE\SmartResponseXE.cpp ****       *iDDR &= ~(1 << bit);
 268:C:\Users\Hexma\Documents\Arduino\hardware\SMART-Response-XE-Low_level-master\avr\libraries\SmartResponseXE\SmartResponseXE.cpp ****       break;
 269:C:\Users\Hexma\Documents\Arduino\hardware\SMART-Response-XE-Low_level-master\avr\libraries\SmartResponseXE\SmartResponseXE.cpp ****     case INPUT_PULLUP:
 270:C:\Users\Hexma\Documents\Arduino\hardware\SMART-Response-XE-Low_level-master\avr\libraries\SmartResponseXE\SmartResponseXE.cpp ****       *iDDR |= (1 << bit);
 271:C:\Users\Hexma\Documents\Arduino\hardware\SMART-Response-XE-Low_level-master\avr\libraries\SmartResponseXE\SmartResponseXE.cpp ****       *iPort |= (1 << bit); // set the output high, then set it as an input
 272:C:\Users\Hexma\Documents\Arduino\hardware\SMART-Response-XE-Low_level-master\avr\libraries\SmartResponseXE\SmartResponseXE.cpp ****       *iDDR &= ~(1 << bit);
 273:C:\Users\Hexma\Documents\Arduino\hardware\SMART-Response-XE-Low_level-master\avr\libraries\SmartResponseXE\SmartResponseXE.cpp ****       break;
GAS LISTING C:\Users\Hexma\AppData\Local\Temp\cc7G6F1c.s 			page 10


 274:C:\Users\Hexma\Documents\Arduino\hardware\SMART-Response-XE-Low_level-master\avr\libraries\SmartResponseXE\SmartResponseXE.cpp ****     case OUTPUT:
 275:C:\Users\Hexma\Documents\Arduino\hardware\SMART-Response-XE-Low_level-master\avr\libraries\SmartResponseXE\SmartResponseXE.cpp ****       *iDDR |= (1 << bit);
 276:C:\Users\Hexma\Documents\Arduino\hardware\SMART-Response-XE-Low_level-master\avr\libraries\SmartResponseXE\SmartResponseXE.cpp ****       break;
 277:C:\Users\Hexma\Documents\Arduino\hardware\SMART-Response-XE-Low_level-master\avr\libraries\SmartResponseXE\SmartResponseXE.cpp ****   }
 278:C:\Users\Hexma\Documents\Arduino\hardware\SMART-Response-XE-Low_level-master\avr\libraries\SmartResponseXE\SmartResponseXE.cpp **** } /* mypinMode() */
 226               		.loc 1 278 0
 227 002e 0F90      		pop __tmp_reg__
 228 0030 0F90      		pop __tmp_reg__
 229 0032 0F90      		pop __tmp_reg__
 230 0034 0F90      		pop __tmp_reg__
 231 0036 DF91      		pop r29
 232 0038 CF91      		pop r28
 233 003a 1F91      		pop r17
 234               	.LVL27:
 235 003c 0895      		ret
 236               	.LVL28:
 237               	.L23:
 267:C:\Users\Hexma\Documents\Arduino\hardware\SMART-Response-XE-Low_level-master\avr\libraries\SmartResponseXE\SmartResponseXE.cpp ****       break;
 238               		.loc 1 267 0
 239 003e E981      		ldd r30,Y+1
 240 0040 FA81      		ldd r31,Y+2
 241 0042 4081      		ld r20,Z
 242 0044 21E0      		ldi r18,lo8(1)
 243 0046 30E0      		ldi r19,0
 244 0048 B901      		movw r22,r18
 245 004a 00C0      		rjmp 2f
 246               		1:
 247 004c 660F      		lsl r22
 248 004e 771F      		rol r23
 249               		2:
 250 0050 8A95      		dec r24
 251 0052 02F4      		brpl 1b
 252 0054 CB01      		movw r24,r22
 253               	.LVL29:
 254 0056 8095      		com r24
 255 0058 8423      		and r24,r20
 256               	.L25:
 275:C:\Users\Hexma\Documents\Arduino\hardware\SMART-Response-XE-Low_level-master\avr\libraries\SmartResponseXE\SmartResponseXE.cpp ****       break;
 257               		.loc 1 275 0
 258 005a 8083      		st Z,r24
 259               		.loc 1 278 0
 260 005c 00C0      		rjmp .L20
 261               	.LVL30:
 262               	.L24:
 270:C:\Users\Hexma\Documents\Arduino\hardware\SMART-Response-XE-Low_level-master\avr\libraries\SmartResponseXE\SmartResponseXE.cpp ****       *iPort |= (1 << bit); // set the output high, then set it as an input
 263               		.loc 1 270 0
 264 005e E981      		ldd r30,Y+1
 265 0060 FA81      		ldd r31,Y+2
 266 0062 4081      		ld r20,Z
 267 0064 21E0      		ldi r18,lo8(1)
 268 0066 30E0      		ldi r19,0
 269 0068 B901      		movw r22,r18
 270 006a 00C0      		rjmp 2f
 271               		1:
 272 006c 660F      		lsl r22
 273 006e 771F      		rol r23
 274               		2:
GAS LISTING C:\Users\Hexma\AppData\Local\Temp\cc7G6F1c.s 			page 11


 275 0070 8A95      		dec r24
 276 0072 02F4      		brpl 1b
 277 0074 CB01      		movw r24,r22
 278               	.LVL31:
 279 0076 942F      		mov r25,r20
 280 0078 982B      		or r25,r24
 281 007a 9083      		st Z,r25
 271:C:\Users\Hexma\Documents\Arduino\hardware\SMART-Response-XE-Low_level-master\avr\libraries\SmartResponseXE\SmartResponseXE.cpp ****       *iDDR &= ~(1 << bit);
 282               		.loc 1 271 0
 283 007c EB81      		ldd r30,Y+3
 284 007e FC81      		ldd r31,Y+4
 285 0080 9081      		ld r25,Z
 286 0082 982B      		or r25,r24
 287 0084 9083      		st Z,r25
 272:C:\Users\Hexma\Documents\Arduino\hardware\SMART-Response-XE-Low_level-master\avr\libraries\SmartResponseXE\SmartResponseXE.cpp ****       break;
 288               		.loc 1 272 0
 289 0086 E981      		ldd r30,Y+1
 290 0088 FA81      		ldd r31,Y+2
 291 008a 9081      		ld r25,Z
 292 008c 8095      		com r24
 293 008e 8923      		and r24,r25
 294 0090 00C0      		rjmp .L25
 295               	.LVL32:
 296               	.L22:
 275:C:\Users\Hexma\Documents\Arduino\hardware\SMART-Response-XE-Low_level-master\avr\libraries\SmartResponseXE\SmartResponseXE.cpp ****       break;
 297               		.loc 1 275 0
 298 0092 E981      		ldd r30,Y+1
 299 0094 FA81      		ldd r31,Y+2
 300 0096 9081      		ld r25,Z
 301 0098 21E0      		ldi r18,lo8(1)
 302 009a 30E0      		ldi r19,0
 303 009c 00C0      		rjmp 2f
 304               		1:
 305 009e 220F      		lsl r18
 306               		2:
 307 00a0 8A95      		dec r24
 308 00a2 02F4      		brpl 1b
 309 00a4 892F      		mov r24,r25
 310               	.LVL33:
 311 00a6 822B      		or r24,r18
 312 00a8 00C0      		rjmp .L25
 313               		.cfi_endproc
 314               	.LFE113:
 316               		.section	.text._Z14mydigitalWritehh,"ax",@progbits
 317               	.global	_Z14mydigitalWritehh
 319               	_Z14mydigitalWritehh:
 320               	.LFB114:
 279:C:\Users\Hexma\Documents\Arduino\hardware\SMART-Response-XE-Low_level-master\avr\libraries\SmartResponseXE\SmartResponseXE.cpp **** 
 280:C:\Users\Hexma\Documents\Arduino\hardware\SMART-Response-XE-Low_level-master\avr\libraries\SmartResponseXE\SmartResponseXE.cpp **** 
 281:C:\Users\Hexma\Documents\Arduino\hardware\SMART-Response-XE-Low_level-master\avr\libraries\SmartResponseXE\SmartResponseXE.cpp **** void mydigitalWrite(uint8_t pin, uint8_t value)
 282:C:\Users\Hexma\Documents\Arduino\hardware\SMART-Response-XE-Low_level-master\avr\libraries\SmartResponseXE\SmartResponseXE.cpp **** {
 321               		.loc 1 282 0
 322               		.cfi_startproc
 323               	.LVL34:
 324 0000 1F93      		push r17
 325               	.LCFI5:
 326               		.cfi_def_cfa_offset 3
GAS LISTING C:\Users\Hexma\AppData\Local\Temp\cc7G6F1c.s 			page 12


 327               		.cfi_offset 17, -2
 328 0002 CF93      		push r28
 329               	.LCFI6:
 330               		.cfi_def_cfa_offset 4
 331               		.cfi_offset 28, -3
 332 0004 DF93      		push r29
 333               	.LCFI7:
 334               		.cfi_def_cfa_offset 5
 335               		.cfi_offset 29, -4
 336 0006 00D0      		rcall .
 337 0008 00D0      		rcall .
 338               	.LCFI8:
 339               		.cfi_def_cfa_offset 9
 340 000a CDB7      		in r28,__SP_L__
 341 000c DEB7      		in r29,__SP_H__
 342               	.LCFI9:
 343               		.cfi_def_cfa_register 28
 344               	/* prologue: function */
 345               	/* frame size = 4 */
 346               	/* stack size = 7 */
 347               	.L__stack_usage = 7
 348 000e 162F      		mov r17,r22
 283:C:\Users\Hexma\Documents\Arduino\hardware\SMART-Response-XE-Low_level-master\avr\libraries\SmartResponseXE\SmartResponseXE.cpp ****   uint8_t bit;
 284:C:\Users\Hexma\Documents\Arduino\hardware\SMART-Response-XE-Low_level-master\avr\libraries\SmartResponseXE\SmartResponseXE.cpp ****   volatile uint8_t *iPort, *iDDR;
 285:C:\Users\Hexma\Documents\Arduino\hardware\SMART-Response-XE-Low_level-master\avr\libraries\SmartResponseXE\SmartResponseXE.cpp **** 
 286:C:\Users\Hexma\Documents\Arduino\hardware\SMART-Response-XE-Low_level-master\avr\libraries\SmartResponseXE\SmartResponseXE.cpp ****   bit = getPinInfo(pin, &iDDR, &iPort, 0);
 349               		.loc 1 286 0
 350 0010 30E0      		ldi r19,0
 351 0012 20E0      		ldi r18,0
 352 0014 AE01      		movw r20,r28
 353 0016 4D5F      		subi r20,-3
 354 0018 5F4F      		sbci r21,-1
 355 001a BE01      		movw r22,r28
 356               	.LVL35:
 357 001c 6F5F      		subi r22,-1
 358 001e 7F4F      		sbci r23,-1
 359 0020 0E94 0000 		call _Z10getPinInfohPPVhS1_i
 360               	.LVL36:
 361 0024 EB81      		ldd r30,Y+3
 362 0026 FC81      		ldd r31,Y+4
 287:C:\Users\Hexma\Documents\Arduino\hardware\SMART-Response-XE-Low_level-master\avr\libraries\SmartResponseXE\SmartResponseXE.cpp ****   if (value == LOW)
 363               		.loc 1 287 0
 364 0028 1111      		cpse r17,__zero_reg__
 365 002a 00C0      		rjmp .L27
 288:C:\Users\Hexma\Documents\Arduino\hardware\SMART-Response-XE-Low_level-master\avr\libraries\SmartResponseXE\SmartResponseXE.cpp ****   {
 289:C:\Users\Hexma\Documents\Arduino\hardware\SMART-Response-XE-Low_level-master\avr\libraries\SmartResponseXE\SmartResponseXE.cpp ****     *iPort &= ~(1 << bit);
 366               		.loc 1 289 0
 367 002c 4081      		ld r20,Z
 368 002e 21E0      		ldi r18,lo8(1)
 369 0030 30E0      		ldi r19,0
 370 0032 B901      		movw r22,r18
 371 0034 00C0      		rjmp 2f
 372               		1:
 373 0036 660F      		lsl r22
 374 0038 771F      		rol r23
 375               		2:
 376 003a 8A95      		dec r24
GAS LISTING C:\Users\Hexma\AppData\Local\Temp\cc7G6F1c.s 			page 13


 377 003c 02F4      		brpl 1b
 378 003e CB01      		movw r24,r22
 379               	.LVL37:
 380 0040 8095      		com r24
 381 0042 8423      		and r24,r20
 382               	.L29:
 290:C:\Users\Hexma\Documents\Arduino\hardware\SMART-Response-XE-Low_level-master\avr\libraries\SmartResponseXE\SmartResponseXE.cpp ****   }
 291:C:\Users\Hexma\Documents\Arduino\hardware\SMART-Response-XE-Low_level-master\avr\libraries\SmartResponseXE\SmartResponseXE.cpp ****   else
 292:C:\Users\Hexma\Documents\Arduino\hardware\SMART-Response-XE-Low_level-master\avr\libraries\SmartResponseXE\SmartResponseXE.cpp ****   {
 293:C:\Users\Hexma\Documents\Arduino\hardware\SMART-Response-XE-Low_level-master\avr\libraries\SmartResponseXE\SmartResponseXE.cpp ****     *iPort |= (1 << bit);
 383               		.loc 1 293 0
 384 0044 8083      		st Z,r24
 385               	/* epilogue start */
 294:C:\Users\Hexma\Documents\Arduino\hardware\SMART-Response-XE-Low_level-master\avr\libraries\SmartResponseXE\SmartResponseXE.cpp ****   }
 295:C:\Users\Hexma\Documents\Arduino\hardware\SMART-Response-XE-Low_level-master\avr\libraries\SmartResponseXE\SmartResponseXE.cpp **** } /* mydigitalWrite() */
 386               		.loc 1 295 0
 387 0046 0F90      		pop __tmp_reg__
 388 0048 0F90      		pop __tmp_reg__
 389 004a 0F90      		pop __tmp_reg__
 390 004c 0F90      		pop __tmp_reg__
 391 004e DF91      		pop r29
 392 0050 CF91      		pop r28
 393 0052 1F91      		pop r17
 394               	.LVL38:
 395 0054 0895      		ret
 396               	.LVL39:
 397               	.L27:
 293:C:\Users\Hexma\Documents\Arduino\hardware\SMART-Response-XE-Low_level-master\avr\libraries\SmartResponseXE\SmartResponseXE.cpp ****   }
 398               		.loc 1 293 0
 399 0056 9081      		ld r25,Z
 400 0058 21E0      		ldi r18,lo8(1)
 401 005a 30E0      		ldi r19,0
 402 005c 00C0      		rjmp 2f
 403               		1:
 404 005e 220F      		lsl r18
 405               		2:
 406 0060 8A95      		dec r24
 407 0062 02F4      		brpl 1b
 408 0064 892F      		mov r24,r25
 409               	.LVL40:
 410 0066 822B      		or r24,r18
 411 0068 00C0      		rjmp .L29
 412               		.cfi_endproc
 413               	.LFE114:
 415               		.section	.text._Z13mydigitalReadh,"ax",@progbits
 416               	.global	_Z13mydigitalReadh
 418               	_Z13mydigitalReadh:
 419               	.LFB115:
 296:C:\Users\Hexma\Documents\Arduino\hardware\SMART-Response-XE-Low_level-master\avr\libraries\SmartResponseXE\SmartResponseXE.cpp **** 
 297:C:\Users\Hexma\Documents\Arduino\hardware\SMART-Response-XE-Low_level-master\avr\libraries\SmartResponseXE\SmartResponseXE.cpp **** 
 298:C:\Users\Hexma\Documents\Arduino\hardware\SMART-Response-XE-Low_level-master\avr\libraries\SmartResponseXE\SmartResponseXE.cpp **** uint8_t mydigitalRead(uint8_t pin)
 299:C:\Users\Hexma\Documents\Arduino\hardware\SMART-Response-XE-Low_level-master\avr\libraries\SmartResponseXE\SmartResponseXE.cpp **** {
 420               		.loc 1 299 0
 421               		.cfi_startproc
 422               	.LVL41:
 423 0000 CF93      		push r28
 424               	.LCFI10:
GAS LISTING C:\Users\Hexma\AppData\Local\Temp\cc7G6F1c.s 			page 14


 425               		.cfi_def_cfa_offset 3
 426               		.cfi_offset 28, -2
 427 0002 DF93      		push r29
 428               	.LCFI11:
 429               		.cfi_def_cfa_offset 4
 430               		.cfi_offset 29, -3
 431 0004 00D0      		rcall .
 432 0006 00D0      		rcall .
 433               	.LCFI12:
 434               		.cfi_def_cfa_offset 8
 435 0008 CDB7      		in r28,__SP_L__
 436 000a DEB7      		in r29,__SP_H__
 437               	.LCFI13:
 438               		.cfi_def_cfa_register 28
 439               	/* prologue: function */
 440               	/* frame size = 4 */
 441               	/* stack size = 6 */
 442               	.L__stack_usage = 6
 300:C:\Users\Hexma\Documents\Arduino\hardware\SMART-Response-XE-Low_level-master\avr\libraries\SmartResponseXE\SmartResponseXE.cpp ****   uint8_t bit;
 301:C:\Users\Hexma\Documents\Arduino\hardware\SMART-Response-XE-Low_level-master\avr\libraries\SmartResponseXE\SmartResponseXE.cpp ****   volatile uint8_t *iPort, *iDDR;
 302:C:\Users\Hexma\Documents\Arduino\hardware\SMART-Response-XE-Low_level-master\avr\libraries\SmartResponseXE\SmartResponseXE.cpp **** 
 303:C:\Users\Hexma\Documents\Arduino\hardware\SMART-Response-XE-Low_level-master\avr\libraries\SmartResponseXE\SmartResponseXE.cpp ****   bit = getPinInfo(pin, &iDDR, &iPort, 1);
 443               		.loc 1 303 0
 444 000c 21E0      		ldi r18,lo8(1)
 445 000e 30E0      		ldi r19,0
 446 0010 AE01      		movw r20,r28
 447 0012 4D5F      		subi r20,-3
 448 0014 5F4F      		sbci r21,-1
 449 0016 BE01      		movw r22,r28
 450 0018 6F5F      		subi r22,-1
 451 001a 7F4F      		sbci r23,-1
 452 001c 0E94 0000 		call _Z10getPinInfohPPVhS1_i
 453               	.LVL42:
 304:C:\Users\Hexma\Documents\Arduino\hardware\SMART-Response-XE-Low_level-master\avr\libraries\SmartResponseXE\SmartResponseXE.cpp ****   if (*iPort & (1 << bit))
 454               		.loc 1 304 0
 455 0020 EB81      		ldd r30,Y+3
 456 0022 FC81      		ldd r31,Y+4
 457 0024 2081      		ld r18,Z
 458 0026 30E0      		ldi r19,0
 459 0028 A901      		movw r20,r18
 460 002a 00C0      		rjmp 2f
 461               		1:
 462 002c 5595      		asr r21
 463 002e 4795      		ror r20
 464               		2:
 465 0030 8A95      		dec r24
 466 0032 02F4      		brpl 1b
 467 0034 CA01      		movw r24,r20
 468               	.LVL43:
 305:C:\Users\Hexma\Documents\Arduino\hardware\SMART-Response-XE-Low_level-master\avr\libraries\SmartResponseXE\SmartResponseXE.cpp ****     return HIGH;
 306:C:\Users\Hexma\Documents\Arduino\hardware\SMART-Response-XE-Low_level-master\avr\libraries\SmartResponseXE\SmartResponseXE.cpp ****   else
 307:C:\Users\Hexma\Documents\Arduino\hardware\SMART-Response-XE-Low_level-master\avr\libraries\SmartResponseXE\SmartResponseXE.cpp ****     return LOW;
 308:C:\Users\Hexma\Documents\Arduino\hardware\SMART-Response-XE-Low_level-master\avr\libraries\SmartResponseXE\SmartResponseXE.cpp **** } /* mydigitalRead() */
 469               		.loc 1 308 0
 470 0036 8170      		andi r24,lo8(1)
 471               	/* epilogue start */
 472 0038 0F90      		pop __tmp_reg__
GAS LISTING C:\Users\Hexma\AppData\Local\Temp\cc7G6F1c.s 			page 15


 473 003a 0F90      		pop __tmp_reg__
 474 003c 0F90      		pop __tmp_reg__
 475 003e 0F90      		pop __tmp_reg__
 476 0040 DF91      		pop r29
 477 0042 CF91      		pop r28
 478 0044 0895      		ret
 479               		.cfi_endproc
 480               	.LFE115:
 482               		.section	.text.__vector_3,"ax",@progbits
 483               	.global	__vector_3
 485               	__vector_3:
 486               	.LFB116:
 309:C:\Users\Hexma\Documents\Arduino\hardware\SMART-Response-XE-Low_level-master\avr\libraries\SmartResponseXE\SmartResponseXE.cpp **** 
 310:C:\Users\Hexma\Documents\Arduino\hardware\SMART-Response-XE-Low_level-master\avr\libraries\SmartResponseXE\SmartResponseXE.cpp **** 
 311:C:\Users\Hexma\Documents\Arduino\hardware\SMART-Response-XE-Low_level-master\avr\libraries\SmartResponseXE\SmartResponseXE.cpp **** //
 312:C:\Users\Hexma\Documents\Arduino\hardware\SMART-Response-XE-Low_level-master\avr\libraries\SmartResponseXE\SmartResponseXE.cpp **** // Called when the power button is pressed to wake up the system
 313:C:\Users\Hexma\Documents\Arduino\hardware\SMART-Response-XE-Low_level-master\avr\libraries\SmartResponseXE\SmartResponseXE.cpp **** // Power up the display
 314:C:\Users\Hexma\Documents\Arduino\hardware\SMART-Response-XE-Low_level-master\avr\libraries\SmartResponseXE\SmartResponseXE.cpp **** //
 315:C:\Users\Hexma\Documents\Arduino\hardware\SMART-Response-XE-Low_level-master\avr\libraries\SmartResponseXE\SmartResponseXE.cpp **** ISR (INT2_vect)
 316:C:\Users\Hexma\Documents\Arduino\hardware\SMART-Response-XE-Low_level-master\avr\libraries\SmartResponseXE\SmartResponseXE.cpp **** {
 487               		.loc 1 316 0
 488               		.cfi_startproc
 489 0000 1F92      		push r1
 490               	.LCFI14:
 491               		.cfi_def_cfa_offset 3
 492               		.cfi_offset 1, -2
 493 0002 0F92      		push r0
 494               	.LCFI15:
 495               		.cfi_def_cfa_offset 4
 496               		.cfi_offset 0, -3
 497 0004 0FB6      		in r0,__SREG__
 498 0006 0F92      		push r0
 499 0008 1124      		clr __zero_reg__
 500 000a 8F93      		push r24
 501               	.LCFI16:
 502               		.cfi_def_cfa_offset 5
 503               		.cfi_offset 24, -4
 504               	/* prologue: Signal */
 505               	/* frame size = 0 */
 506               	/* stack size = 4 */
 507               	.L__stack_usage = 4
 317:C:\Users\Hexma\Documents\Arduino\hardware\SMART-Response-XE-Low_level-master\avr\libraries\SmartResponseXE\SmartResponseXE.cpp ****   // cancel sleep as a precaution
 318:C:\Users\Hexma\Documents\Arduino\hardware\SMART-Response-XE-Low_level-master\avr\libraries\SmartResponseXE\SmartResponseXE.cpp ****   sleep_disable();
 508               		.loc 1 318 0
 509 000c 83B7      		in r24,0x33
 510 000e 8E7F      		andi r24,lo8(-2)
 511 0010 83BF      		out 0x33,r24
 512               	/* epilogue start */
 319:C:\Users\Hexma\Documents\Arduino\hardware\SMART-Response-XE-Low_level-master\avr\libraries\SmartResponseXE\SmartResponseXE.cpp **** }
 513               		.loc 1 319 0
 514 0012 8F91      		pop r24
 515 0014 0F90      		pop r0
 516 0016 0FBE      		out __SREG__,r0
 517 0018 0F90      		pop r0
 518 001a 1F90      		pop r1
 519 001c 1895      		reti
 520               		.cfi_endproc
GAS LISTING C:\Users\Hexma\AppData\Local\Temp\cc7G6F1c.s 			page 16


 521               	.LFE116:
 523               		.section	.text._Z8SPI_Initv,"ax",@progbits
 524               	.global	_Z8SPI_Initv
 526               	_Z8SPI_Initv:
 527               	.LFB118:
 320:C:\Users\Hexma\Documents\Arduino\hardware\SMART-Response-XE-Low_level-master\avr\libraries\SmartResponseXE\SmartResponseXE.cpp **** 
 321:C:\Users\Hexma\Documents\Arduino\hardware\SMART-Response-XE-Low_level-master\avr\libraries\SmartResponseXE\SmartResponseXE.cpp **** 
 322:C:\Users\Hexma\Documents\Arduino\hardware\SMART-Response-XE-Low_level-master\avr\libraries\SmartResponseXE\SmartResponseXE.cpp **** //
 323:C:\Users\Hexma\Documents\Arduino\hardware\SMART-Response-XE-Low_level-master\avr\libraries\SmartResponseXE\SmartResponseXE.cpp **** // Put the device in a deep sleep to save power
 324:C:\Users\Hexma\Documents\Arduino\hardware\SMART-Response-XE-Low_level-master\avr\libraries\SmartResponseXE\SmartResponseXE.cpp **** // Wakes up when pressing the "power" button
 325:C:\Users\Hexma\Documents\Arduino\hardware\SMART-Response-XE-Low_level-master\avr\libraries\SmartResponseXE\SmartResponseXE.cpp **** //
 326:C:\Users\Hexma\Documents\Arduino\hardware\SMART-Response-XE-Low_level-master\avr\libraries\SmartResponseXE\SmartResponseXE.cpp **** void SRXESleep(void)
 327:C:\Users\Hexma\Documents\Arduino\hardware\SMART-Response-XE-Low_level-master\avr\libraries\SmartResponseXE\SmartResponseXE.cpp **** {
 328:C:\Users\Hexma\Documents\Arduino\hardware\SMART-Response-XE-Low_level-master\avr\libraries\SmartResponseXE\SmartResponseXE.cpp ****   // Turn off the LCD
 329:C:\Users\Hexma\Documents\Arduino\hardware\SMART-Response-XE-Low_level-master\avr\libraries\SmartResponseXE\SmartResponseXE.cpp ****   SRXEPowerDown();
 330:C:\Users\Hexma\Documents\Arduino\hardware\SMART-Response-XE-Low_level-master\avr\libraries\SmartResponseXE\SmartResponseXE.cpp **** 
 331:C:\Users\Hexma\Documents\Arduino\hardware\SMART-Response-XE-Low_level-master\avr\libraries\SmartResponseXE\SmartResponseXE.cpp ****   TRXPR = 1 << SLPTR; // send transceiver to sleep
 332:C:\Users\Hexma\Documents\Arduino\hardware\SMART-Response-XE-Low_level-master\avr\libraries\SmartResponseXE\SmartResponseXE.cpp **** 
 333:C:\Users\Hexma\Documents\Arduino\hardware\SMART-Response-XE-Low_level-master\avr\libraries\SmartResponseXE\SmartResponseXE.cpp ****   // disable ADC
 334:C:\Users\Hexma\Documents\Arduino\hardware\SMART-Response-XE-Low_level-master\avr\libraries\SmartResponseXE\SmartResponseXE.cpp ****   ADCSRA = 0;
 335:C:\Users\Hexma\Documents\Arduino\hardware\SMART-Response-XE-Low_level-master\avr\libraries\SmartResponseXE\SmartResponseXE.cpp ****   DDRD &= ~(1 << PORTD2); //PIN INT2 as input
 336:C:\Users\Hexma\Documents\Arduino\hardware\SMART-Response-XE-Low_level-master\avr\libraries\SmartResponseXE\SmartResponseXE.cpp ****   PORTD |= (1 << PORTD2); // pull-up resistor, the pin is forced to 1 if nothing is connected
 337:C:\Users\Hexma\Documents\Arduino\hardware\SMART-Response-XE-Low_level-master\avr\libraries\SmartResponseXE\SmartResponseXE.cpp ****   EIMSK &= ~(1 << INT2); //disabling interrupt on INT2
 338:C:\Users\Hexma\Documents\Arduino\hardware\SMART-Response-XE-Low_level-master\avr\libraries\SmartResponseXE\SmartResponseXE.cpp ****   EICRA &= ~((1 << ISC21) | (1 << ISC20)); // low level triggers interrupt
 339:C:\Users\Hexma\Documents\Arduino\hardware\SMART-Response-XE-Low_level-master\avr\libraries\SmartResponseXE\SmartResponseXE.cpp ****   EIFR |= (1 << INTF2); //clear interrupt flag
 340:C:\Users\Hexma\Documents\Arduino\hardware\SMART-Response-XE-Low_level-master\avr\libraries\SmartResponseXE\SmartResponseXE.cpp ****   EIMSK |= (1 << INT2); //enabling interrupt flag on INT2
 341:C:\Users\Hexma\Documents\Arduino\hardware\SMART-Response-XE-Low_level-master\avr\libraries\SmartResponseXE\SmartResponseXE.cpp **** 
 342:C:\Users\Hexma\Documents\Arduino\hardware\SMART-Response-XE-Low_level-master\avr\libraries\SmartResponseXE\SmartResponseXE.cpp ****   set_sleep_mode (SLEEP_MODE_PWR_DOWN);
 343:C:\Users\Hexma\Documents\Arduino\hardware\SMART-Response-XE-Low_level-master\avr\libraries\SmartResponseXE\SmartResponseXE.cpp ****   sleep_enable();
 344:C:\Users\Hexma\Documents\Arduino\hardware\SMART-Response-XE-Low_level-master\avr\libraries\SmartResponseXE\SmartResponseXE.cpp **** 
 345:C:\Users\Hexma\Documents\Arduino\hardware\SMART-Response-XE-Low_level-master\avr\libraries\SmartResponseXE\SmartResponseXE.cpp ****   // turn off brown-out enable in software
 346:C:\Users\Hexma\Documents\Arduino\hardware\SMART-Response-XE-Low_level-master\avr\libraries\SmartResponseXE\SmartResponseXE.cpp ****   // BODS must be set to one and BODSE must be set to zero within four clock cycles
 347:C:\Users\Hexma\Documents\Arduino\hardware\SMART-Response-XE-Low_level-master\avr\libraries\SmartResponseXE\SmartResponseXE.cpp ****   //  MCUCR = bit (BODS) | bit (BODSE);
 348:C:\Users\Hexma\Documents\Arduino\hardware\SMART-Response-XE-Low_level-master\avr\libraries\SmartResponseXE\SmartResponseXE.cpp ****   // The BODS bit is automatically cleared after three clock cycles
 349:C:\Users\Hexma\Documents\Arduino\hardware\SMART-Response-XE-Low_level-master\avr\libraries\SmartResponseXE\SmartResponseXE.cpp ****   //  MCUCR = bit (BODS);
 350:C:\Users\Hexma\Documents\Arduino\hardware\SMART-Response-XE-Low_level-master\avr\libraries\SmartResponseXE\SmartResponseXE.cpp **** 
 351:C:\Users\Hexma\Documents\Arduino\hardware\SMART-Response-XE-Low_level-master\avr\libraries\SmartResponseXE\SmartResponseXE.cpp ****   // We are guaranteed that the sleep_cpu call will be done
 352:C:\Users\Hexma\Documents\Arduino\hardware\SMART-Response-XE-Low_level-master\avr\libraries\SmartResponseXE\SmartResponseXE.cpp ****   // as the processor executes the next instruction after
 353:C:\Users\Hexma\Documents\Arduino\hardware\SMART-Response-XE-Low_level-master\avr\libraries\SmartResponseXE\SmartResponseXE.cpp ****   // interrupts are turned on.
 354:C:\Users\Hexma\Documents\Arduino\hardware\SMART-Response-XE-Low_level-master\avr\libraries\SmartResponseXE\SmartResponseXE.cpp ****   sleep_cpu ();   // one cycle
 355:C:\Users\Hexma\Documents\Arduino\hardware\SMART-Response-XE-Low_level-master\avr\libraries\SmartResponseXE\SmartResponseXE.cpp ****   SRXEPowerUp();
 356:C:\Users\Hexma\Documents\Arduino\hardware\SMART-Response-XE-Low_level-master\avr\libraries\SmartResponseXE\SmartResponseXE.cpp **** } /* SRXESleep() */
 357:C:\Users\Hexma\Documents\Arduino\hardware\SMART-Response-XE-Low_level-master\avr\libraries\SmartResponseXE\SmartResponseXE.cpp **** 
 358:C:\Users\Hexma\Documents\Arduino\hardware\SMART-Response-XE-Low_level-master\avr\libraries\SmartResponseXE\SmartResponseXE.cpp **** 
 359:C:\Users\Hexma\Documents\Arduino\hardware\SMART-Response-XE-Low_level-master\avr\libraries\SmartResponseXE\SmartResponseXE.cpp **** //
 360:C:\Users\Hexma\Documents\Arduino\hardware\SMART-Response-XE-Low_level-master\avr\libraries\SmartResponseXE\SmartResponseXE.cpp **** // Initialize SPI using direct register access
 361:C:\Users\Hexma\Documents\Arduino\hardware\SMART-Response-XE-Low_level-master\avr\libraries\SmartResponseXE\SmartResponseXE.cpp **** //
 362:C:\Users\Hexma\Documents\Arduino\hardware\SMART-Response-XE-Low_level-master\avr\libraries\SmartResponseXE\SmartResponseXE.cpp **** void SPI_Init(void)
 363:C:\Users\Hexma\Documents\Arduino\hardware\SMART-Response-XE-Low_level-master\avr\libraries\SmartResponseXE\SmartResponseXE.cpp **** {
 528               		.loc 1 363 0
 529               		.cfi_startproc
 530               	/* prologue: function */
 531               	/* frame size = 0 */
 532               	/* stack size = 0 */
 533               	.L__stack_usage = 0
 364:C:\Users\Hexma\Documents\Arduino\hardware\SMART-Response-XE-Low_level-master\avr\libraries\SmartResponseXE\SmartResponseXE.cpp ****   uint8_t temp;
 365:C:\Users\Hexma\Documents\Arduino\hardware\SMART-Response-XE-Low_level-master\avr\libraries\SmartResponseXE\SmartResponseXE.cpp ****   // Initialize SPI
GAS LISTING C:\Users\Hexma\AppData\Local\Temp\cc7G6F1c.s 			page 17


 366:C:\Users\Hexma\Documents\Arduino\hardware\SMART-Response-XE-Low_level-master\avr\libraries\SmartResponseXE\SmartResponseXE.cpp ****   // Set SS to high so a connected chip will be "deselected" by default
 367:C:\Users\Hexma\Documents\Arduino\hardware\SMART-Response-XE-Low_level-master\avr\libraries\SmartResponseXE\SmartResponseXE.cpp ****   //  digitalWrite(SS, HIGH);
 368:C:\Users\Hexma\Documents\Arduino\hardware\SMART-Response-XE-Low_level-master\avr\libraries\SmartResponseXE\SmartResponseXE.cpp ****   mydigitalWrite(0xb0, HIGH);
 534               		.loc 1 368 0
 535 0000 61E0      		ldi r22,lo8(1)
 536 0002 80EB      		ldi r24,lo8(-80)
 537 0004 0E94 0000 		call _Z14mydigitalWritehh
 538               	.LVL44:
 369:C:\Users\Hexma\Documents\Arduino\hardware\SMART-Response-XE-Low_level-master\avr\libraries\SmartResponseXE\SmartResponseXE.cpp **** 
 370:C:\Users\Hexma\Documents\Arduino\hardware\SMART-Response-XE-Low_level-master\avr\libraries\SmartResponseXE\SmartResponseXE.cpp ****   // When the SS pin is set as OUTPUT, it can be used as
 371:C:\Users\Hexma\Documents\Arduino\hardware\SMART-Response-XE-Low_level-master\avr\libraries\SmartResponseXE\SmartResponseXE.cpp ****   // a general purpose output port (it doesn't influence
 372:C:\Users\Hexma\Documents\Arduino\hardware\SMART-Response-XE-Low_level-master\avr\libraries\SmartResponseXE\SmartResponseXE.cpp ****   // SPI operations).
 373:C:\Users\Hexma\Documents\Arduino\hardware\SMART-Response-XE-Low_level-master\avr\libraries\SmartResponseXE\SmartResponseXE.cpp ****   //  pinMode(SS, OUTPUT);
 374:C:\Users\Hexma\Documents\Arduino\hardware\SMART-Response-XE-Low_level-master\avr\libraries\SmartResponseXE\SmartResponseXE.cpp ****   mypinMode(0xb0, OUTPUT);
 539               		.loc 1 374 0
 540 0008 61E0      		ldi r22,lo8(1)
 541 000a 80EB      		ldi r24,lo8(-80)
 542 000c 0E94 0000 		call _Z9mypinModehh
 543               	.LVL45:
 375:C:\Users\Hexma\Documents\Arduino\hardware\SMART-Response-XE-Low_level-master\avr\libraries\SmartResponseXE\SmartResponseXE.cpp **** 
 376:C:\Users\Hexma\Documents\Arduino\hardware\SMART-Response-XE-Low_level-master\avr\libraries\SmartResponseXE\SmartResponseXE.cpp ****   // SPCR = 01010000
 377:C:\Users\Hexma\Documents\Arduino\hardware\SMART-Response-XE-Low_level-master\avr\libraries\SmartResponseXE\SmartResponseXE.cpp ****   //interrupt disabled,spi enabled,msb 1st,master,clk low when idle,
 378:C:\Users\Hexma\Documents\Arduino\hardware\SMART-Response-XE-Low_level-master\avr\libraries\SmartResponseXE\SmartResponseXE.cpp ****   //*fdufnews 11/2019 ****************  modification to speed SPI transfert  *********************
 379:C:\Users\Hexma\Documents\Arduino\hardware\SMART-Response-XE-Low_level-master\avr\libraries\SmartResponseXE\SmartResponseXE.cpp ****   //sample on leading edge of clk,system clock/2 rate
 380:C:\Users\Hexma\Documents\Arduino\hardware\SMART-Response-XE-Low_level-master\avr\libraries\SmartResponseXE\SmartResponseXE.cpp ****   SPCR = (1 << SPE) | (1 << MSTR);
 544               		.loc 1 380 0
 545 0010 80E5      		ldi r24,lo8(80)
 546 0012 8CBD      		out 0x2c,r24
 381:C:\Users\Hexma\Documents\Arduino\hardware\SMART-Response-XE-Low_level-master\avr\libraries\SmartResponseXE\SmartResponseXE.cpp ****   SPSR = (1 << SPI2X);
 547               		.loc 1 381 0
 548 0014 81E0      		ldi r24,lo8(1)
 549 0016 8DBD      		out 0x2d,r24
 382:C:\Users\Hexma\Documents\Arduino\hardware\SMART-Response-XE-Low_level-master\avr\libraries\SmartResponseXE\SmartResponseXE.cpp ****   temp = SPSR; // clear old data
 550               		.loc 1 382 0
 551 0018 8DB5      		in r24,0x2d
 383:C:\Users\Hexma\Documents\Arduino\hardware\SMART-Response-XE-Low_level-master\avr\libraries\SmartResponseXE\SmartResponseXE.cpp ****   temp = SPDR;
 552               		.loc 1 383 0
 553 001a 8EB5      		in r24,0x2e
 384:C:\Users\Hexma\Documents\Arduino\hardware\SMART-Response-XE-Low_level-master\avr\libraries\SmartResponseXE\SmartResponseXE.cpp ****   if (temp != 0) {}; // suppress compiler warning
 385:C:\Users\Hexma\Documents\Arduino\hardware\SMART-Response-XE-Low_level-master\avr\libraries\SmartResponseXE\SmartResponseXE.cpp ****   // Set SCK as output
 386:C:\Users\Hexma\Documents\Arduino\hardware\SMART-Response-XE-Low_level-master\avr\libraries\SmartResponseXE\SmartResponseXE.cpp ****   //pinMode(13, OUTPUT);
 387:C:\Users\Hexma\Documents\Arduino\hardware\SMART-Response-XE-Low_level-master\avr\libraries\SmartResponseXE\SmartResponseXE.cpp ****   mypinMode(0xb1, OUTPUT);
 554               		.loc 1 387 0
 555 001c 61E0      		ldi r22,lo8(1)
 556 001e 81EB      		ldi r24,lo8(-79)
 557 0020 0E94 0000 		call _Z9mypinModehh
 558               	.LVL46:
 388:C:\Users\Hexma\Documents\Arduino\hardware\SMART-Response-XE-Low_level-master\avr\libraries\SmartResponseXE\SmartResponseXE.cpp ****   // set MOSI as output
 389:C:\Users\Hexma\Documents\Arduino\hardware\SMART-Response-XE-Low_level-master\avr\libraries\SmartResponseXE\SmartResponseXE.cpp ****   //pinMode(11, OUTPUT);
 390:C:\Users\Hexma\Documents\Arduino\hardware\SMART-Response-XE-Low_level-master\avr\libraries\SmartResponseXE\SmartResponseXE.cpp ****   mypinMode(0xb2, OUTPUT);
 559               		.loc 1 390 0
 560 0024 61E0      		ldi r22,lo8(1)
 561 0026 82EB      		ldi r24,lo8(-78)
 562 0028 0C94 0000 		jmp _Z9mypinModehh
 563               	.LVL47:
 564               		.cfi_endproc
 565               	.LFE118:
GAS LISTING C:\Users\Hexma\AppData\Local\Temp\cc7G6F1c.s 			page 18


 567               		.section	.text._Z12SPI_transferc,"ax",@progbits
 568               	.global	_Z12SPI_transferc
 570               	_Z12SPI_transferc:
 571               	.LFB119:
 391:C:\Users\Hexma\Documents\Arduino\hardware\SMART-Response-XE-Low_level-master\avr\libraries\SmartResponseXE\SmartResponseXE.cpp **** 
 392:C:\Users\Hexma\Documents\Arduino\hardware\SMART-Response-XE-Low_level-master\avr\libraries\SmartResponseXE\SmartResponseXE.cpp **** } /* SPI_Init() */
 393:C:\Users\Hexma\Documents\Arduino\hardware\SMART-Response-XE-Low_level-master\avr\libraries\SmartResponseXE\SmartResponseXE.cpp **** 
 394:C:\Users\Hexma\Documents\Arduino\hardware\SMART-Response-XE-Low_level-master\avr\libraries\SmartResponseXE\SmartResponseXE.cpp **** 
 395:C:\Users\Hexma\Documents\Arduino\hardware\SMART-Response-XE-Low_level-master\avr\libraries\SmartResponseXE\SmartResponseXE.cpp **** uint8_t SPI_transfer(volatile char data)
 396:C:\Users\Hexma\Documents\Arduino\hardware\SMART-Response-XE-Low_level-master\avr\libraries\SmartResponseXE\SmartResponseXE.cpp **** {
 572               		.loc 1 396 0
 573               		.cfi_startproc
 574               	.LVL48:
 575 0000 CF93      		push r28
 576               	.LCFI17:
 577               		.cfi_def_cfa_offset 3
 578               		.cfi_offset 28, -2
 579 0002 DF93      		push r29
 580               	.LCFI18:
 581               		.cfi_def_cfa_offset 4
 582               		.cfi_offset 29, -3
 583 0004 1F92      		push __zero_reg__
 584               	.LCFI19:
 585               		.cfi_def_cfa_offset 5
 586 0006 CDB7      		in r28,__SP_L__
 587 0008 DEB7      		in r29,__SP_H__
 588               	.LCFI20:
 589               		.cfi_def_cfa_register 28
 590               	/* prologue: function */
 591               	/* frame size = 1 */
 592               	/* stack size = 3 */
 593               	.L__stack_usage = 3
 594 000a 8983      		std Y+1,r24
 397:C:\Users\Hexma\Documents\Arduino\hardware\SMART-Response-XE-Low_level-master\avr\libraries\SmartResponseXE\SmartResponseXE.cpp ****   SPDR = data;                    // Start the transmission
 595               		.loc 1 397 0
 596 000c 8981      		ldd r24,Y+1
 597               	.LVL49:
 598 000e 8EBD      		out 0x2e,r24
 599               	.LVL50:
 398:C:\Users\Hexma\Documents\Arduino\hardware\SMART-Response-XE-Low_level-master\avr\libraries\SmartResponseXE\SmartResponseXE.cpp ****   /* trick from arduboy code
 399:C:\Users\Hexma\Documents\Arduino\hardware\SMART-Response-XE-Low_level-master\avr\libraries\SmartResponseXE\SmartResponseXE.cpp ****     The following NOP introduces a small delay that can prevent the wait
 400:C:\Users\Hexma\Documents\Arduino\hardware\SMART-Response-XE-Low_level-master\avr\libraries\SmartResponseXE\SmartResponseXE.cpp ****     loop from iterating when running at the maximum speed. This gives
 401:C:\Users\Hexma\Documents\Arduino\hardware\SMART-Response-XE-Low_level-master\avr\libraries\SmartResponseXE\SmartResponseXE.cpp ****     about 10% more speed, even if it seems counter-intuitive. At lower
 402:C:\Users\Hexma\Documents\Arduino\hardware\SMART-Response-XE-Low_level-master\avr\libraries\SmartResponseXE\SmartResponseXE.cpp ****     speeds it is unnoticed.
 403:C:\Users\Hexma\Documents\Arduino\hardware\SMART-Response-XE-Low_level-master\avr\libraries\SmartResponseXE\SmartResponseXE.cpp ****   */
 404:C:\Users\Hexma\Documents\Arduino\hardware\SMART-Response-XE-Low_level-master\avr\libraries\SmartResponseXE\SmartResponseXE.cpp ****   asm volatile("nop");
 600               		.loc 1 404 0
 601               	/* #APP */
 602               	 ;  404 "C:\Users\Hexma\Documents\Arduino\hardware\SMART-Response-XE-Low_level-master\avr\libraries
 603 0010 0000      		nop
 604               	 ;  0 "" 2
 605               	/* #NOAPP */
 606               	.L34:
 405:C:\Users\Hexma\Documents\Arduino\hardware\SMART-Response-XE-Low_level-master\avr\libraries\SmartResponseXE\SmartResponseXE.cpp ****   while (!(SPSR & (1 << SPIF)))   // Wait for the end of the transmission
 607               		.loc 1 405 0
 608 0012 0DB4      		in __tmp_reg__,0x2d
 609 0014 07FE      		sbrs __tmp_reg__,7
GAS LISTING C:\Users\Hexma\AppData\Local\Temp\cc7G6F1c.s 			page 19


 610 0016 00C0      		rjmp .L34
 406:C:\Users\Hexma\Documents\Arduino\hardware\SMART-Response-XE-Low_level-master\avr\libraries\SmartResponseXE\SmartResponseXE.cpp ****   {
 407:C:\Users\Hexma\Documents\Arduino\hardware\SMART-Response-XE-Low_level-master\avr\libraries\SmartResponseXE\SmartResponseXE.cpp ****   };
 408:C:\Users\Hexma\Documents\Arduino\hardware\SMART-Response-XE-Low_level-master\avr\libraries\SmartResponseXE\SmartResponseXE.cpp ****   return SPDR;                    // return the received byte
 611               		.loc 1 408 0
 612 0018 8EB5      		in r24,0x2e
 613               	/* epilogue start */
 409:C:\Users\Hexma\Documents\Arduino\hardware\SMART-Response-XE-Low_level-master\avr\libraries\SmartResponseXE\SmartResponseXE.cpp **** } /* SPI_transfer() */
 614               		.loc 1 409 0
 615 001a 0F90      		pop __tmp_reg__
 616 001c DF91      		pop r29
 617 001e CF91      		pop r28
 618 0020 0895      		ret
 619               		.cfi_endproc
 620               	.LFE119:
 622               		.section	.text._ZL16SRXEWriteCommandh,"ax",@progbits
 624               	_ZL16SRXEWriteCommandh:
 625               	.LFB125:
 410:C:\Users\Hexma\Documents\Arduino\hardware\SMART-Response-XE-Low_level-master\avr\libraries\SmartResponseXE\SmartResponseXE.cpp **** 
 411:C:\Users\Hexma\Documents\Arduino\hardware\SMART-Response-XE-Low_level-master\avr\libraries\SmartResponseXE\SmartResponseXE.cpp **** 
 412:C:\Users\Hexma\Documents\Arduino\hardware\SMART-Response-XE-Low_level-master\avr\libraries\SmartResponseXE\SmartResponseXE.cpp **** // Sets the D/C pin to data or command mode
 413:C:\Users\Hexma\Documents\Arduino\hardware\SMART-Response-XE-Low_level-master\avr\libraries\SmartResponseXE\SmartResponseXE.cpp **** static void SRXESetMode(int iMode)
 414:C:\Users\Hexma\Documents\Arduino\hardware\SMART-Response-XE-Low_level-master\avr\libraries\SmartResponseXE\SmartResponseXE.cpp **** {
 415:C:\Users\Hexma\Documents\Arduino\hardware\SMART-Response-XE-Low_level-master\avr\libraries\SmartResponseXE\SmartResponseXE.cpp ****   mydigitalWrite(iDCPin, (iMode == MODE_DATA));
 416:C:\Users\Hexma\Documents\Arduino\hardware\SMART-Response-XE-Low_level-master\avr\libraries\SmartResponseXE\SmartResponseXE.cpp **** } /* SRXESetMode() */
 417:C:\Users\Hexma\Documents\Arduino\hardware\SMART-Response-XE-Low_level-master\avr\libraries\SmartResponseXE\SmartResponseXE.cpp **** 
 418:C:\Users\Hexma\Documents\Arduino\hardware\SMART-Response-XE-Low_level-master\avr\libraries\SmartResponseXE\SmartResponseXE.cpp **** 
 419:C:\Users\Hexma\Documents\Arduino\hardware\SMART-Response-XE-Low_level-master\avr\libraries\SmartResponseXE\SmartResponseXE.cpp **** // Write a block of pixel data to the LCD
 420:C:\Users\Hexma\Documents\Arduino\hardware\SMART-Response-XE-Low_level-master\avr\libraries\SmartResponseXE\SmartResponseXE.cpp **** // Length can be anything from 1 to 17404 (whole display)
 421:C:\Users\Hexma\Documents\Arduino\hardware\SMART-Response-XE-Low_level-master\avr\libraries\SmartResponseXE\SmartResponseXE.cpp **** void SRXEWriteDataBlock(unsigned char *ucBuf, int iLen)
 422:C:\Users\Hexma\Documents\Arduino\hardware\SMART-Response-XE-Low_level-master\avr\libraries\SmartResponseXE\SmartResponseXE.cpp **** {
 423:C:\Users\Hexma\Documents\Arduino\hardware\SMART-Response-XE-Low_level-master\avr\libraries\SmartResponseXE\SmartResponseXE.cpp ****   int i;
 424:C:\Users\Hexma\Documents\Arduino\hardware\SMART-Response-XE-Low_level-master\avr\libraries\SmartResponseXE\SmartResponseXE.cpp **** 
 425:C:\Users\Hexma\Documents\Arduino\hardware\SMART-Response-XE-Low_level-master\avr\libraries\SmartResponseXE\SmartResponseXE.cpp ****   mydigitalWrite(iCSPin, LOW);
 426:C:\Users\Hexma\Documents\Arduino\hardware\SMART-Response-XE-Low_level-master\avr\libraries\SmartResponseXE\SmartResponseXE.cpp ****   for (i = 0; i < iLen; i++)
 427:C:\Users\Hexma\Documents\Arduino\hardware\SMART-Response-XE-Low_level-master\avr\libraries\SmartResponseXE\SmartResponseXE.cpp ****     SPI_transfer(ucBuf[i]);
 428:C:\Users\Hexma\Documents\Arduino\hardware\SMART-Response-XE-Low_level-master\avr\libraries\SmartResponseXE\SmartResponseXE.cpp ****   mydigitalWrite(iCSPin, HIGH);
 429:C:\Users\Hexma\Documents\Arduino\hardware\SMART-Response-XE-Low_level-master\avr\libraries\SmartResponseXE\SmartResponseXE.cpp **** }
 430:C:\Users\Hexma\Documents\Arduino\hardware\SMART-Response-XE-Low_level-master\avr\libraries\SmartResponseXE\SmartResponseXE.cpp **** 
 431:C:\Users\Hexma\Documents\Arduino\hardware\SMART-Response-XE-Low_level-master\avr\libraries\SmartResponseXE\SmartResponseXE.cpp **** 
 432:C:\Users\Hexma\Documents\Arduino\hardware\SMART-Response-XE-Low_level-master\avr\libraries\SmartResponseXE\SmartResponseXE.cpp **** //
 433:C:\Users\Hexma\Documents\Arduino\hardware\SMART-Response-XE-Low_level-master\avr\libraries\SmartResponseXE\SmartResponseXE.cpp **** // Command sequence to power up the LCD controller
 434:C:\Users\Hexma\Documents\Arduino\hardware\SMART-Response-XE-Low_level-master\avr\libraries\SmartResponseXE\SmartResponseXE.cpp **** //
 435:C:\Users\Hexma\Documents\Arduino\hardware\SMART-Response-XE-Low_level-master\avr\libraries\SmartResponseXE\SmartResponseXE.cpp **** void SRXEPowerUp(void)
 436:C:\Users\Hexma\Documents\Arduino\hardware\SMART-Response-XE-Low_level-master\avr\libraries\SmartResponseXE\SmartResponseXE.cpp **** {
 437:C:\Users\Hexma\Documents\Arduino\hardware\SMART-Response-XE-Low_level-master\avr\libraries\SmartResponseXE\SmartResponseXE.cpp ****   uint8_t ucTemp[4];
 438:C:\Users\Hexma\Documents\Arduino\hardware\SMART-Response-XE-Low_level-master\avr\libraries\SmartResponseXE\SmartResponseXE.cpp ****   const char *pList = powerup;
 439:C:\Users\Hexma\Documents\Arduino\hardware\SMART-Response-XE-Low_level-master\avr\libraries\SmartResponseXE\SmartResponseXE.cpp ****   uint8_t val, count, len = 1;
 440:C:\Users\Hexma\Documents\Arduino\hardware\SMART-Response-XE-Low_level-master\avr\libraries\SmartResponseXE\SmartResponseXE.cpp **** 
 441:C:\Users\Hexma\Documents\Arduino\hardware\SMART-Response-XE-Low_level-master\avr\libraries\SmartResponseXE\SmartResponseXE.cpp ****   while (len != 0)
 442:C:\Users\Hexma\Documents\Arduino\hardware\SMART-Response-XE-Low_level-master\avr\libraries\SmartResponseXE\SmartResponseXE.cpp ****   {
 443:C:\Users\Hexma\Documents\Arduino\hardware\SMART-Response-XE-Low_level-master\avr\libraries\SmartResponseXE\SmartResponseXE.cpp ****     len = pgm_read_byte(pList++);
 444:C:\Users\Hexma\Documents\Arduino\hardware\SMART-Response-XE-Low_level-master\avr\libraries\SmartResponseXE\SmartResponseXE.cpp ****     if (len == 99) // delay
 445:C:\Users\Hexma\Documents\Arduino\hardware\SMART-Response-XE-Low_level-master\avr\libraries\SmartResponseXE\SmartResponseXE.cpp ****     {
 446:C:\Users\Hexma\Documents\Arduino\hardware\SMART-Response-XE-Low_level-master\avr\libraries\SmartResponseXE\SmartResponseXE.cpp ****       val = pgm_read_byte(pList++);
 447:C:\Users\Hexma\Documents\Arduino\hardware\SMART-Response-XE-Low_level-master\avr\libraries\SmartResponseXE\SmartResponseXE.cpp ****       delay(val);
 448:C:\Users\Hexma\Documents\Arduino\hardware\SMART-Response-XE-Low_level-master\avr\libraries\SmartResponseXE\SmartResponseXE.cpp ****     }
GAS LISTING C:\Users\Hexma\AppData\Local\Temp\cc7G6F1c.s 			page 20


 449:C:\Users\Hexma\Documents\Arduino\hardware\SMART-Response-XE-Low_level-master\avr\libraries\SmartResponseXE\SmartResponseXE.cpp ****     else if (len != 0) // send command with optional data
 450:C:\Users\Hexma\Documents\Arduino\hardware\SMART-Response-XE-Low_level-master\avr\libraries\SmartResponseXE\SmartResponseXE.cpp ****     {
 451:C:\Users\Hexma\Documents\Arduino\hardware\SMART-Response-XE-Low_level-master\avr\libraries\SmartResponseXE\SmartResponseXE.cpp ****       val = pgm_read_byte(pList++); // command
 452:C:\Users\Hexma\Documents\Arduino\hardware\SMART-Response-XE-Low_level-master\avr\libraries\SmartResponseXE\SmartResponseXE.cpp ****       SRXEWriteCommand(val);
 453:C:\Users\Hexma\Documents\Arduino\hardware\SMART-Response-XE-Low_level-master\avr\libraries\SmartResponseXE\SmartResponseXE.cpp ****       count = len - 1;
 454:C:\Users\Hexma\Documents\Arduino\hardware\SMART-Response-XE-Low_level-master\avr\libraries\SmartResponseXE\SmartResponseXE.cpp ****       if (count != 0)
 455:C:\Users\Hexma\Documents\Arduino\hardware\SMART-Response-XE-Low_level-master\avr\libraries\SmartResponseXE\SmartResponseXE.cpp ****       {
 456:C:\Users\Hexma\Documents\Arduino\hardware\SMART-Response-XE-Low_level-master\avr\libraries\SmartResponseXE\SmartResponseXE.cpp ****         memcpy_P(ucTemp, pList, count);
 457:C:\Users\Hexma\Documents\Arduino\hardware\SMART-Response-XE-Low_level-master\avr\libraries\SmartResponseXE\SmartResponseXE.cpp ****         pList += count;
 458:C:\Users\Hexma\Documents\Arduino\hardware\SMART-Response-XE-Low_level-master\avr\libraries\SmartResponseXE\SmartResponseXE.cpp ****         SRXEWriteDataBlock(ucTemp, count);
 459:C:\Users\Hexma\Documents\Arduino\hardware\SMART-Response-XE-Low_level-master\avr\libraries\SmartResponseXE\SmartResponseXE.cpp ****       }
 460:C:\Users\Hexma\Documents\Arduino\hardware\SMART-Response-XE-Low_level-master\avr\libraries\SmartResponseXE\SmartResponseXE.cpp ****     }
 461:C:\Users\Hexma\Documents\Arduino\hardware\SMART-Response-XE-Low_level-master\avr\libraries\SmartResponseXE\SmartResponseXE.cpp ****   }
 462:C:\Users\Hexma\Documents\Arduino\hardware\SMART-Response-XE-Low_level-master\avr\libraries\SmartResponseXE\SmartResponseXE.cpp **** } /* SRXEPowerUp() */
 463:C:\Users\Hexma\Documents\Arduino\hardware\SMART-Response-XE-Low_level-master\avr\libraries\SmartResponseXE\SmartResponseXE.cpp **** 
 464:C:\Users\Hexma\Documents\Arduino\hardware\SMART-Response-XE-Low_level-master\avr\libraries\SmartResponseXE\SmartResponseXE.cpp **** 
 465:C:\Users\Hexma\Documents\Arduino\hardware\SMART-Response-XE-Low_level-master\avr\libraries\SmartResponseXE\SmartResponseXE.cpp **** //
 466:C:\Users\Hexma\Documents\Arduino\hardware\SMART-Response-XE-Low_level-master\avr\libraries\SmartResponseXE\SmartResponseXE.cpp **** // Initializes the LCD controller
 467:C:\Users\Hexma\Documents\Arduino\hardware\SMART-Response-XE-Low_level-master\avr\libraries\SmartResponseXE\SmartResponseXE.cpp **** // Parameters: GPIO pin numbers used for the CS/DC/RST control lines
 468:C:\Users\Hexma\Documents\Arduino\hardware\SMART-Response-XE-Low_level-master\avr\libraries\SmartResponseXE\SmartResponseXE.cpp **** //
 469:C:\Users\Hexma\Documents\Arduino\hardware\SMART-Response-XE-Low_level-master\avr\libraries\SmartResponseXE\SmartResponseXE.cpp **** int SRXEInit(int iCS, int iDC, int iReset)
 470:C:\Users\Hexma\Documents\Arduino\hardware\SMART-Response-XE-Low_level-master\avr\libraries\SmartResponseXE\SmartResponseXE.cpp **** {
 471:C:\Users\Hexma\Documents\Arduino\hardware\SMART-Response-XE-Low_level-master\avr\libraries\SmartResponseXE\SmartResponseXE.cpp ****   byte uc, ucTemp[8];
 472:C:\Users\Hexma\Documents\Arduino\hardware\SMART-Response-XE-Low_level-master\avr\libraries\SmartResponseXE\SmartResponseXE.cpp **** 
 473:C:\Users\Hexma\Documents\Arduino\hardware\SMART-Response-XE-Low_level-master\avr\libraries\SmartResponseXE\SmartResponseXE.cpp ****   iCSPin = iCS;
 474:C:\Users\Hexma\Documents\Arduino\hardware\SMART-Response-XE-Low_level-master\avr\libraries\SmartResponseXE\SmartResponseXE.cpp ****   iDCPin = iDC;
 475:C:\Users\Hexma\Documents\Arduino\hardware\SMART-Response-XE-Low_level-master\avr\libraries\SmartResponseXE\SmartResponseXE.cpp ****   iResetPin = iReset;
 476:C:\Users\Hexma\Documents\Arduino\hardware\SMART-Response-XE-Low_level-master\avr\libraries\SmartResponseXE\SmartResponseXE.cpp **** 
 477:C:\Users\Hexma\Documents\Arduino\hardware\SMART-Response-XE-Low_level-master\avr\libraries\SmartResponseXE\SmartResponseXE.cpp ****   SPI_Init();
 478:C:\Users\Hexma\Documents\Arduino\hardware\SMART-Response-XE-Low_level-master\avr\libraries\SmartResponseXE\SmartResponseXE.cpp ****   mypinMode(iCSPin, OUTPUT);
 479:C:\Users\Hexma\Documents\Arduino\hardware\SMART-Response-XE-Low_level-master\avr\libraries\SmartResponseXE\SmartResponseXE.cpp ****   mypinMode(CS_FLASH, OUTPUT); // in case we want to use the SPI flash
 480:C:\Users\Hexma\Documents\Arduino\hardware\SMART-Response-XE-Low_level-master\avr\libraries\SmartResponseXE\SmartResponseXE.cpp ****   mydigitalWrite(iCSPin, HIGH);
 481:C:\Users\Hexma\Documents\Arduino\hardware\SMART-Response-XE-Low_level-master\avr\libraries\SmartResponseXE\SmartResponseXE.cpp **** 
 482:C:\Users\Hexma\Documents\Arduino\hardware\SMART-Response-XE-Low_level-master\avr\libraries\SmartResponseXE\SmartResponseXE.cpp ****   mypinMode(iDCPin, OUTPUT);
 483:C:\Users\Hexma\Documents\Arduino\hardware\SMART-Response-XE-Low_level-master\avr\libraries\SmartResponseXE\SmartResponseXE.cpp ****   mypinMode(iResetPin, OUTPUT);
 484:C:\Users\Hexma\Documents\Arduino\hardware\SMART-Response-XE-Low_level-master\avr\libraries\SmartResponseXE\SmartResponseXE.cpp **** 
 485:C:\Users\Hexma\Documents\Arduino\hardware\SMART-Response-XE-Low_level-master\avr\libraries\SmartResponseXE\SmartResponseXE.cpp ****   // Start by reseting the LCD controller
 486:C:\Users\Hexma\Documents\Arduino\hardware\SMART-Response-XE-Low_level-master\avr\libraries\SmartResponseXE\SmartResponseXE.cpp ****   mydigitalWrite(iResetPin, HIGH);
 487:C:\Users\Hexma\Documents\Arduino\hardware\SMART-Response-XE-Low_level-master\avr\libraries\SmartResponseXE\SmartResponseXE.cpp ****   delay(50);
 488:C:\Users\Hexma\Documents\Arduino\hardware\SMART-Response-XE-Low_level-master\avr\libraries\SmartResponseXE\SmartResponseXE.cpp ****   mydigitalWrite(iResetPin, LOW);
 489:C:\Users\Hexma\Documents\Arduino\hardware\SMART-Response-XE-Low_level-master\avr\libraries\SmartResponseXE\SmartResponseXE.cpp ****   delay(5);
 490:C:\Users\Hexma\Documents\Arduino\hardware\SMART-Response-XE-Low_level-master\avr\libraries\SmartResponseXE\SmartResponseXE.cpp ****   mydigitalWrite(iResetPin, HIGH); // take it out of reset
 491:C:\Users\Hexma\Documents\Arduino\hardware\SMART-Response-XE-Low_level-master\avr\libraries\SmartResponseXE\SmartResponseXE.cpp ****   delay(150); // datasheet says it must be at least 120ms
 492:C:\Users\Hexma\Documents\Arduino\hardware\SMART-Response-XE-Low_level-master\avr\libraries\SmartResponseXE\SmartResponseXE.cpp **** 
 493:C:\Users\Hexma\Documents\Arduino\hardware\SMART-Response-XE-Low_level-master\avr\libraries\SmartResponseXE\SmartResponseXE.cpp ****   //  mydigitalWrite(iCSPin, LOW); // leave CS low forever
 494:C:\Users\Hexma\Documents\Arduino\hardware\SMART-Response-XE-Low_level-master\avr\libraries\SmartResponseXE\SmartResponseXE.cpp **** 
 495:C:\Users\Hexma\Documents\Arduino\hardware\SMART-Response-XE-Low_level-master\avr\libraries\SmartResponseXE\SmartResponseXE.cpp ****   SRXEPowerUp(); // turn on and initialize the display
 496:C:\Users\Hexma\Documents\Arduino\hardware\SMART-Response-XE-Low_level-master\avr\libraries\SmartResponseXE\SmartResponseXE.cpp **** 
 497:C:\Users\Hexma\Documents\Arduino\hardware\SMART-Response-XE-Low_level-master\avr\libraries\SmartResponseXE\SmartResponseXE.cpp ****   SRXEFill(0); // erase memory (it's already cleared by resetting it)
 498:C:\Users\Hexma\Documents\Arduino\hardware\SMART-Response-XE-Low_level-master\avr\libraries\SmartResponseXE\SmartResponseXE.cpp ****   return 0;
 499:C:\Users\Hexma\Documents\Arduino\hardware\SMART-Response-XE-Low_level-master\avr\libraries\SmartResponseXE\SmartResponseXE.cpp **** 
 500:C:\Users\Hexma\Documents\Arduino\hardware\SMART-Response-XE-Low_level-master\avr\libraries\SmartResponseXE\SmartResponseXE.cpp **** } /* SRXEInit() */
 501:C:\Users\Hexma\Documents\Arduino\hardware\SMART-Response-XE-Low_level-master\avr\libraries\SmartResponseXE\SmartResponseXE.cpp **** 
 502:C:\Users\Hexma\Documents\Arduino\hardware\SMART-Response-XE-Low_level-master\avr\libraries\SmartResponseXE\SmartResponseXE.cpp **** 
 503:C:\Users\Hexma\Documents\Arduino\hardware\SMART-Response-XE-Low_level-master\avr\libraries\SmartResponseXE\SmartResponseXE.cpp **** //
 504:C:\Users\Hexma\Documents\Arduino\hardware\SMART-Response-XE-Low_level-master\avr\libraries\SmartResponseXE\SmartResponseXE.cpp **** // Turn off the LCD display (lowest power mode)
 505:C:\Users\Hexma\Documents\Arduino\hardware\SMART-Response-XE-Low_level-master\avr\libraries\SmartResponseXE\SmartResponseXE.cpp **** //
GAS LISTING C:\Users\Hexma\AppData\Local\Temp\cc7G6F1c.s 			page 21


 506:C:\Users\Hexma\Documents\Arduino\hardware\SMART-Response-XE-Low_level-master\avr\libraries\SmartResponseXE\SmartResponseXE.cpp **** void SRXEPowerDown()
 507:C:\Users\Hexma\Documents\Arduino\hardware\SMART-Response-XE-Low_level-master\avr\libraries\SmartResponseXE\SmartResponseXE.cpp **** {
 508:C:\Users\Hexma\Documents\Arduino\hardware\SMART-Response-XE-Low_level-master\avr\libraries\SmartResponseXE\SmartResponseXE.cpp ****   SRXEFill(0); // fill memory with zeros to go to lowest power mode
 509:C:\Users\Hexma\Documents\Arduino\hardware\SMART-Response-XE-Low_level-master\avr\libraries\SmartResponseXE\SmartResponseXE.cpp ****   SRXEWriteCommand(0x28); // Display OFF
 510:C:\Users\Hexma\Documents\Arduino\hardware\SMART-Response-XE-Low_level-master\avr\libraries\SmartResponseXE\SmartResponseXE.cpp ****   SRXEWriteCommand(0x10); // Sleep in
 511:C:\Users\Hexma\Documents\Arduino\hardware\SMART-Response-XE-Low_level-master\avr\libraries\SmartResponseXE\SmartResponseXE.cpp **** } /* SRXEPowerDown() */
 512:C:\Users\Hexma\Documents\Arduino\hardware\SMART-Response-XE-Low_level-master\avr\libraries\SmartResponseXE\SmartResponseXE.cpp **** 
 513:C:\Users\Hexma\Documents\Arduino\hardware\SMART-Response-XE-Low_level-master\avr\libraries\SmartResponseXE\SmartResponseXE.cpp **** 
 514:C:\Users\Hexma\Documents\Arduino\hardware\SMART-Response-XE-Low_level-master\avr\libraries\SmartResponseXE\SmartResponseXE.cpp **** //
 515:C:\Users\Hexma\Documents\Arduino\hardware\SMART-Response-XE-Low_level-master\avr\libraries\SmartResponseXE\SmartResponseXE.cpp **** // Write a 1 byte command to the LCD controller
 516:C:\Users\Hexma\Documents\Arduino\hardware\SMART-Response-XE-Low_level-master\avr\libraries\SmartResponseXE\SmartResponseXE.cpp **** //
 517:C:\Users\Hexma\Documents\Arduino\hardware\SMART-Response-XE-Low_level-master\avr\libraries\SmartResponseXE\SmartResponseXE.cpp **** static void SRXEWriteCommand(unsigned char c)
 518:C:\Users\Hexma\Documents\Arduino\hardware\SMART-Response-XE-Low_level-master\avr\libraries\SmartResponseXE\SmartResponseXE.cpp **** {
 626               		.loc 1 518 0
 627               		.cfi_startproc
 628               	.LVL51:
 629 0000 1F93      		push r17
 630               	.LCFI21:
 631               		.cfi_def_cfa_offset 3
 632               		.cfi_offset 17, -2
 633 0002 CF93      		push r28
 634               	.LCFI22:
 635               		.cfi_def_cfa_offset 4
 636               		.cfi_offset 28, -3
 637 0004 DF93      		push r29
 638               	.LCFI23:
 639               		.cfi_def_cfa_offset 5
 640               		.cfi_offset 29, -4
 641               	/* prologue: function */
 642               	/* frame size = 0 */
 643               	/* stack size = 3 */
 644               	.L__stack_usage = 3
 645 0006 182F      		mov r17,r24
 519:C:\Users\Hexma\Documents\Arduino\hardware\SMART-Response-XE-Low_level-master\avr\libraries\SmartResponseXE\SmartResponseXE.cpp ****   mydigitalWrite(iCSPin, LOW);
 646               		.loc 1 519 0
 647 0008 C091 0000 		lds r28,_ZL6iCSPin
 648 000c 60E0      		ldi r22,0
 649 000e 8C2F      		mov r24,r28
 650               	.LVL52:
 651 0010 0E94 0000 		call _Z14mydigitalWritehh
 652               	.LVL53:
 653               	.LBB8:
 654               	.LBB9:
 415:C:\Users\Hexma\Documents\Arduino\hardware\SMART-Response-XE-Low_level-master\avr\libraries\SmartResponseXE\SmartResponseXE.cpp **** } /* SRXESetMode() */
 655               		.loc 1 415 0
 656 0014 D091 0000 		lds r29,_ZL6iDCPin
 657 0018 60E0      		ldi r22,0
 658 001a 8D2F      		mov r24,r29
 659 001c 0E94 0000 		call _Z14mydigitalWritehh
 660               	.LVL54:
 661               	.LBE9:
 662               	.LBE8:
 520:C:\Users\Hexma\Documents\Arduino\hardware\SMART-Response-XE-Low_level-master\avr\libraries\SmartResponseXE\SmartResponseXE.cpp ****   SRXESetMode(MODE_COMMAND);
 521:C:\Users\Hexma\Documents\Arduino\hardware\SMART-Response-XE-Low_level-master\avr\libraries\SmartResponseXE\SmartResponseXE.cpp ****   SPI_transfer(c);
 663               		.loc 1 521 0
 664 0020 812F      		mov r24,r17
 665 0022 0E94 0000 		call _Z12SPI_transferc
GAS LISTING C:\Users\Hexma\AppData\Local\Temp\cc7G6F1c.s 			page 22


 666               	.LVL55:
 667               	.LBB10:
 668               	.LBB11:
 415:C:\Users\Hexma\Documents\Arduino\hardware\SMART-Response-XE-Low_level-master\avr\libraries\SmartResponseXE\SmartResponseXE.cpp **** } /* SRXESetMode() */
 669               		.loc 1 415 0
 670 0026 61E0      		ldi r22,lo8(1)
 671 0028 8D2F      		mov r24,r29
 672 002a 0E94 0000 		call _Z14mydigitalWritehh
 673               	.LVL56:
 674               	.LBE11:
 675               	.LBE10:
 522:C:\Users\Hexma\Documents\Arduino\hardware\SMART-Response-XE-Low_level-master\avr\libraries\SmartResponseXE\SmartResponseXE.cpp ****   SRXESetMode(MODE_DATA);
 523:C:\Users\Hexma\Documents\Arduino\hardware\SMART-Response-XE-Low_level-master\avr\libraries\SmartResponseXE\SmartResponseXE.cpp ****   mydigitalWrite(iCSPin, HIGH);
 676               		.loc 1 523 0
 677 002e 61E0      		ldi r22,lo8(1)
 678 0030 8C2F      		mov r24,r28
 679               	/* epilogue start */
 524:C:\Users\Hexma\Documents\Arduino\hardware\SMART-Response-XE-Low_level-master\avr\libraries\SmartResponseXE\SmartResponseXE.cpp **** } /* SRXEWriteCommand() */
 680               		.loc 1 524 0
 681 0032 DF91      		pop r29
 682 0034 CF91      		pop r28
 683 0036 1F91      		pop r17
 684               	.LVL57:
 523:C:\Users\Hexma\Documents\Arduino\hardware\SMART-Response-XE-Low_level-master\avr\libraries\SmartResponseXE\SmartResponseXE.cpp **** } /* SRXEWriteCommand() */
 685               		.loc 1 523 0
 686 0038 0C94 0000 		jmp _Z14mydigitalWritehh
 687               	.LVL58:
 688               		.cfi_endproc
 689               	.LFE125:
 691               		.section	.text._Z18SRXEWriteDataBlockPhi,"ax",@progbits
 692               	.global	_Z18SRXEWriteDataBlockPhi
 694               	_Z18SRXEWriteDataBlockPhi:
 695               	.LFB121:
 422:C:\Users\Hexma\Documents\Arduino\hardware\SMART-Response-XE-Low_level-master\avr\libraries\SmartResponseXE\SmartResponseXE.cpp ****   int i;
 696               		.loc 1 422 0
 697               		.cfi_startproc
 698               	.LVL59:
 699 0000 CF92      		push r12
 700               	.LCFI24:
 701               		.cfi_def_cfa_offset 3
 702               		.cfi_offset 12, -2
 703 0002 DF92      		push r13
 704               	.LCFI25:
 705               		.cfi_def_cfa_offset 4
 706               		.cfi_offset 13, -3
 707 0004 EF92      		push r14
 708               	.LCFI26:
 709               		.cfi_def_cfa_offset 5
 710               		.cfi_offset 14, -4
 711 0006 FF92      		push r15
 712               	.LCFI27:
 713               		.cfi_def_cfa_offset 6
 714               		.cfi_offset 15, -5
 715 0008 1F93      		push r17
 716               	.LCFI28:
 717               		.cfi_def_cfa_offset 7
 718               		.cfi_offset 17, -6
GAS LISTING C:\Users\Hexma\AppData\Local\Temp\cc7G6F1c.s 			page 23


 719 000a CF93      		push r28
 720               	.LCFI29:
 721               		.cfi_def_cfa_offset 8
 722               		.cfi_offset 28, -7
 723 000c DF93      		push r29
 724               	.LCFI30:
 725               		.cfi_def_cfa_offset 9
 726               		.cfi_offset 29, -8
 727               	/* prologue: function */
 728               	/* frame size = 0 */
 729               	/* stack size = 7 */
 730               	.L__stack_usage = 7
 731 000e 7C01      		movw r14,r24
 732 0010 6B01      		movw r12,r22
 425:C:\Users\Hexma\Documents\Arduino\hardware\SMART-Response-XE-Low_level-master\avr\libraries\SmartResponseXE\SmartResponseXE.cpp ****   for (i = 0; i < iLen; i++)
 733               		.loc 1 425 0
 734 0012 1091 0000 		lds r17,_ZL6iCSPin
 735 0016 60E0      		ldi r22,0
 736               	.LVL60:
 737 0018 812F      		mov r24,r17
 738               	.LVL61:
 739 001a 0E94 0000 		call _Z14mydigitalWritehh
 740               	.LVL62:
 741 001e E701      		movw r28,r14
 742               	.LVL63:
 743               	.L39:
 426:C:\Users\Hexma\Documents\Arduino\hardware\SMART-Response-XE-Low_level-master\avr\libraries\SmartResponseXE\SmartResponseXE.cpp ****     SPI_transfer(ucBuf[i]);
 744               		.loc 1 426 0 discriminator 3
 745 0020 CE01      		movw r24,r28
 746 0022 8E19      		sub r24,r14
 747 0024 9F09      		sbc r25,r15
 748 0026 8C15      		cp r24,r12
 749 0028 9D05      		cpc r25,r13
 750 002a 04F4      		brge .L38
 427:C:\Users\Hexma\Documents\Arduino\hardware\SMART-Response-XE-Low_level-master\avr\libraries\SmartResponseXE\SmartResponseXE.cpp ****   mydigitalWrite(iCSPin, HIGH);
 751               		.loc 1 427 0 discriminator 2
 752 002c 8991      		ld r24,Y+
 753               	.LVL64:
 754 002e 0E94 0000 		call _Z12SPI_transferc
 755               	.LVL65:
 426:C:\Users\Hexma\Documents\Arduino\hardware\SMART-Response-XE-Low_level-master\avr\libraries\SmartResponseXE\SmartResponseXE.cpp ****     SPI_transfer(ucBuf[i]);
 756               		.loc 1 426 0 discriminator 2
 757 0032 00C0      		rjmp .L39
 758               	.L38:
 428:C:\Users\Hexma\Documents\Arduino\hardware\SMART-Response-XE-Low_level-master\avr\libraries\SmartResponseXE\SmartResponseXE.cpp **** }
 759               		.loc 1 428 0
 760 0034 61E0      		ldi r22,lo8(1)
 761 0036 812F      		mov r24,r17
 762               	/* epilogue start */
 429:C:\Users\Hexma\Documents\Arduino\hardware\SMART-Response-XE-Low_level-master\avr\libraries\SmartResponseXE\SmartResponseXE.cpp **** 
 763               		.loc 1 429 0
 764 0038 DF91      		pop r29
 765 003a CF91      		pop r28
 766               	.LVL66:
 767 003c 1F91      		pop r17
 768 003e FF90      		pop r15
 769 0040 EF90      		pop r14
GAS LISTING C:\Users\Hexma\AppData\Local\Temp\cc7G6F1c.s 			page 24


 770               	.LVL67:
 771 0042 DF90      		pop r13
 772 0044 CF90      		pop r12
 773               	.LVL68:
 428:C:\Users\Hexma\Documents\Arduino\hardware\SMART-Response-XE-Low_level-master\avr\libraries\SmartResponseXE\SmartResponseXE.cpp **** }
 774               		.loc 1 428 0
 775 0046 0C94 0000 		jmp _Z14mydigitalWritehh
 776               	.LVL69:
 777               		.cfi_endproc
 778               	.LFE121:
 780               		.section	.text._Z15SRXESetPositioniiii.part.0,"ax",@progbits
 782               	_Z15SRXESetPositioniiii.part.0:
 783               	.LFB144:
 525:C:\Users\Hexma\Documents\Arduino\hardware\SMART-Response-XE-Low_level-master\avr\libraries\SmartResponseXE\SmartResponseXE.cpp **** 
 526:C:\Users\Hexma\Documents\Arduino\hardware\SMART-Response-XE-Low_level-master\avr\libraries\SmartResponseXE\SmartResponseXE.cpp **** 
 527:C:\Users\Hexma\Documents\Arduino\hardware\SMART-Response-XE-Low_level-master\avr\libraries\SmartResponseXE\SmartResponseXE.cpp **** //
 528:C:\Users\Hexma\Documents\Arduino\hardware\SMART-Response-XE-Low_level-master\avr\libraries\SmartResponseXE\SmartResponseXE.cpp **** // Send commands to position the "cursor" to the given
 529:C:\Users\Hexma\Documents\Arduino\hardware\SMART-Response-XE-Low_level-master\avr\libraries\SmartResponseXE\SmartResponseXE.cpp **** // row and column
 530:C:\Users\Hexma\Documents\Arduino\hardware\SMART-Response-XE-Low_level-master\avr\libraries\SmartResponseXE\SmartResponseXE.cpp **** // Opens a window in the display RAM
 531:C:\Users\Hexma\Documents\Arduino\hardware\SMART-Response-XE-Low_level-master\avr\libraries\SmartResponseXE\SmartResponseXE.cpp **** // the windows starts @ x, y and it is cx wide and cy tall
 532:C:\Users\Hexma\Documents\Arduino\hardware\SMART-Response-XE-Low_level-master\avr\libraries\SmartResponseXE\SmartResponseXE.cpp **** // all the subsequent write cycles will be done in that window
 533:C:\Users\Hexma\Documents\Arduino\hardware\SMART-Response-XE-Low_level-master\avr\libraries\SmartResponseXE\SmartResponseXE.cpp **** //
 534:C:\Users\Hexma\Documents\Arduino\hardware\SMART-Response-XE-Low_level-master\avr\libraries\SmartResponseXE\SmartResponseXE.cpp **** void SRXESetPosition(int x, int y, int cx, int cy)
 784               		.loc 1 534 0
 785               		.cfi_startproc
 786               	.LVL70:
 787 0000 CF92      		push r12
 788               	.LCFI31:
 789               		.cfi_def_cfa_offset 3
 790               		.cfi_offset 12, -2
 791 0002 DF92      		push r13
 792               	.LCFI32:
 793               		.cfi_def_cfa_offset 4
 794               		.cfi_offset 13, -3
 795 0004 EF92      		push r14
 796               	.LCFI33:
 797               		.cfi_def_cfa_offset 5
 798               		.cfi_offset 14, -4
 799 0006 FF92      		push r15
 800               	.LCFI34:
 801               		.cfi_def_cfa_offset 6
 802               		.cfi_offset 15, -5
 803 0008 0F93      		push r16
 804               	.LCFI35:
 805               		.cfi_def_cfa_offset 7
 806               		.cfi_offset 16, -6
 807 000a 1F93      		push r17
 808               	.LCFI36:
 809               		.cfi_def_cfa_offset 8
 810               		.cfi_offset 17, -7
 811 000c CF93      		push r28
 812               	.LCFI37:
 813               		.cfi_def_cfa_offset 9
 814               		.cfi_offset 28, -8
 815 000e DF93      		push r29
 816               	.LCFI38:
 817               		.cfi_def_cfa_offset 10
GAS LISTING C:\Users\Hexma\AppData\Local\Temp\cc7G6F1c.s 			page 25


 818               		.cfi_offset 29, -9
 819 0010 00D0      		rcall .
 820 0012 00D0      		rcall .
 821               	.LCFI39:
 822               		.cfi_def_cfa_offset 14
 823 0014 CDB7      		in r28,__SP_L__
 824 0016 DEB7      		in r29,__SP_H__
 825               	.LCFI40:
 826               		.cfi_def_cfa_register 28
 827               	/* prologue: function */
 828               	/* frame size = 4 */
 829               	/* stack size = 12 */
 830               	.L__stack_usage = 12
 831 0018 8C01      		movw r16,r24
 832 001a E62E      		mov r14,r22
 833 001c 6A01      		movw r12,r20
 834 001e F22E      		mov r15,r18
 535:C:\Users\Hexma\Documents\Arduino\hardware\SMART-Response-XE-Low_level-master\avr\libraries\SmartResponseXE\SmartResponseXE.cpp **** {
 536:C:\Users\Hexma\Documents\Arduino\hardware\SMART-Response-XE-Low_level-master\avr\libraries\SmartResponseXE\SmartResponseXE.cpp ****   byte ucTemp[4];
 537:C:\Users\Hexma\Documents\Arduino\hardware\SMART-Response-XE-Low_level-master\avr\libraries\SmartResponseXE\SmartResponseXE.cpp **** 
 538:C:\Users\Hexma\Documents\Arduino\hardware\SMART-Response-XE-Low_level-master\avr\libraries\SmartResponseXE\SmartResponseXE.cpp ****   if (x > 383 || y > 159 || cx > 384 || cy > 160)
 539:C:\Users\Hexma\Documents\Arduino\hardware\SMART-Response-XE-Low_level-master\avr\libraries\SmartResponseXE\SmartResponseXE.cpp ****     return; // invalid
 540:C:\Users\Hexma\Documents\Arduino\hardware\SMART-Response-XE-Low_level-master\avr\libraries\SmartResponseXE\SmartResponseXE.cpp ****   SRXEWriteCommand(0x2a); // set column address
 835               		.loc 1 540 0
 836 0020 8AE2      		ldi r24,lo8(42)
 837               	.LVL71:
 838 0022 0E94 0000 		call _ZL16SRXEWriteCommandh
 839               	.LVL72:
 541:C:\Users\Hexma\Documents\Arduino\hardware\SMART-Response-XE-Low_level-master\avr\libraries\SmartResponseXE\SmartResponseXE.cpp ****   ucTemp[0] = 0; // start column high byte
 840               		.loc 1 541 0
 841 0026 1982      		std Y+1,__zero_reg__
 542:C:\Users\Hexma\Documents\Arduino\hardware\SMART-Response-XE-Low_level-master\avr\libraries\SmartResponseXE\SmartResponseXE.cpp ****   ucTemp[1] = x / 3; // start column low byte
 842               		.loc 1 542 0
 843 0028 23E0      		ldi r18,lo8(3)
 844 002a 30E0      		ldi r19,0
 845 002c C801      		movw r24,r16
 846 002e B901      		movw r22,r18
 847 0030 0E94 0000 		call __divmodhi4
 848 0034 6A83      		std Y+2,r22
 543:C:\Users\Hexma\Documents\Arduino\hardware\SMART-Response-XE-Low_level-master\avr\libraries\SmartResponseXE\SmartResponseXE.cpp ****   ucTemp[2] = 0; // end col high byte
 849               		.loc 1 543 0
 850 0036 1B82      		std Y+3,__zero_reg__
 544:C:\Users\Hexma\Documents\Arduino\hardware\SMART-Response-XE-Low_level-master\avr\libraries\SmartResponseXE\SmartResponseXE.cpp ****   ucTemp[3] = (x + cx - 1) / 3; // end col low byte
 851               		.loc 1 544 0
 852 0038 C801      		movw r24,r16
 853 003a 8C0D      		add r24,r12
 854 003c 9D1D      		adc r25,r13
 855 003e 0197      		sbiw r24,1
 856 0040 B901      		movw r22,r18
 857 0042 0E94 0000 		call __divmodhi4
 858 0046 6C83      		std Y+4,r22
 545:C:\Users\Hexma\Documents\Arduino\hardware\SMART-Response-XE-Low_level-master\avr\libraries\SmartResponseXE\SmartResponseXE.cpp ****   SRXEWriteDataBlock(ucTemp, 4);
 859               		.loc 1 545 0
 860 0048 64E0      		ldi r22,lo8(4)
 861 004a 70E0      		ldi r23,0
 862 004c CE01      		movw r24,r28
 863 004e 0196      		adiw r24,1
GAS LISTING C:\Users\Hexma\AppData\Local\Temp\cc7G6F1c.s 			page 26


 864 0050 0E94 0000 		call _Z18SRXEWriteDataBlockPhi
 865               	.LVL73:
 546:C:\Users\Hexma\Documents\Arduino\hardware\SMART-Response-XE-Low_level-master\avr\libraries\SmartResponseXE\SmartResponseXE.cpp ****   SRXEWriteCommand(0x2b); // set row address
 866               		.loc 1 546 0
 867 0054 8BE2      		ldi r24,lo8(43)
 868 0056 0E94 0000 		call _ZL16SRXEWriteCommandh
 869               	.LVL74:
 547:C:\Users\Hexma\Documents\Arduino\hardware\SMART-Response-XE-Low_level-master\avr\libraries\SmartResponseXE\SmartResponseXE.cpp ****   ucTemp[0] = 0; // start row high byte
 870               		.loc 1 547 0
 871 005a 1982      		std Y+1,__zero_reg__
 548:C:\Users\Hexma\Documents\Arduino\hardware\SMART-Response-XE-Low_level-master\avr\libraries\SmartResponseXE\SmartResponseXE.cpp ****   ucTemp[1] = y; // start row low byte
 872               		.loc 1 548 0
 873 005c EA82      		std Y+2,r14
 549:C:\Users\Hexma\Documents\Arduino\hardware\SMART-Response-XE-Low_level-master\avr\libraries\SmartResponseXE\SmartResponseXE.cpp ****   ucTemp[2] = 0; // end row high byte
 874               		.loc 1 549 0
 875 005e 1B82      		std Y+3,__zero_reg__
 550:C:\Users\Hexma\Documents\Arduino\hardware\SMART-Response-XE-Low_level-master\avr\libraries\SmartResponseXE\SmartResponseXE.cpp ****   ucTemp[3] = y + cy - 1; // end row low byte
 876               		.loc 1 550 0
 877 0060 FA94      		dec r15
 878 0062 FE0C      		add r15,r14
 879 0064 FC82      		std Y+4,r15
 551:C:\Users\Hexma\Documents\Arduino\hardware\SMART-Response-XE-Low_level-master\avr\libraries\SmartResponseXE\SmartResponseXE.cpp ****   SRXEWriteDataBlock(ucTemp, 4);
 880               		.loc 1 551 0
 881 0066 64E0      		ldi r22,lo8(4)
 882 0068 70E0      		ldi r23,0
 883 006a CE01      		movw r24,r28
 884 006c 0196      		adiw r24,1
 885 006e 0E94 0000 		call _Z18SRXEWriteDataBlockPhi
 886               	.LVL75:
 552:C:\Users\Hexma\Documents\Arduino\hardware\SMART-Response-XE-Low_level-master\avr\libraries\SmartResponseXE\SmartResponseXE.cpp ****   SRXEWriteCommand(0x2c); // write RAM
 887               		.loc 1 552 0
 888 0072 8CE2      		ldi r24,lo8(44)
 889 0074 0E94 0000 		call _ZL16SRXEWriteCommandh
 890               	.LVL76:
 891               	/* epilogue start */
 553:C:\Users\Hexma\Documents\Arduino\hardware\SMART-Response-XE-Low_level-master\avr\libraries\SmartResponseXE\SmartResponseXE.cpp **** } /* SRXESetPosition() */
 892               		.loc 1 553 0
 893 0078 0F90      		pop __tmp_reg__
 894 007a 0F90      		pop __tmp_reg__
 895 007c 0F90      		pop __tmp_reg__
 896 007e 0F90      		pop __tmp_reg__
 897 0080 DF91      		pop r29
 898 0082 CF91      		pop r28
 899 0084 1F91      		pop r17
 900 0086 0F91      		pop r16
 901               	.LVL77:
 902 0088 FF90      		pop r15
 903 008a EF90      		pop r14
 904 008c DF90      		pop r13
 905 008e CF90      		pop r12
 906               	.LVL78:
 907 0090 0895      		ret
 908               		.cfi_endproc
 909               	.LFE144:
 911               		.section	.text._Z11SRXEPowerUpv,"ax",@progbits
 912               	.global	_Z11SRXEPowerUpv
 914               	_Z11SRXEPowerUpv:
GAS LISTING C:\Users\Hexma\AppData\Local\Temp\cc7G6F1c.s 			page 27


 915               	.LFB122:
 436:C:\Users\Hexma\Documents\Arduino\hardware\SMART-Response-XE-Low_level-master\avr\libraries\SmartResponseXE\SmartResponseXE.cpp ****   uint8_t ucTemp[4];
 916               		.loc 1 436 0
 917               		.cfi_startproc
 918 0000 EF92      		push r14
 919               	.LCFI41:
 920               		.cfi_def_cfa_offset 3
 921               		.cfi_offset 14, -2
 922 0002 FF92      		push r15
 923               	.LCFI42:
 924               		.cfi_def_cfa_offset 4
 925               		.cfi_offset 15, -3
 926 0004 0F93      		push r16
 927               	.LCFI43:
 928               		.cfi_def_cfa_offset 5
 929               		.cfi_offset 16, -4
 930 0006 1F93      		push r17
 931               	.LCFI44:
 932               		.cfi_def_cfa_offset 6
 933               		.cfi_offset 17, -5
 934 0008 CF93      		push r28
 935               	.LCFI45:
 936               		.cfi_def_cfa_offset 7
 937               		.cfi_offset 28, -6
 938 000a DF93      		push r29
 939               	.LCFI46:
 940               		.cfi_def_cfa_offset 8
 941               		.cfi_offset 29, -7
 942 000c 00D0      		rcall .
 943 000e 00D0      		rcall .
 944               	.LCFI47:
 945               		.cfi_def_cfa_offset 12
 946 0010 CDB7      		in r28,__SP_L__
 947 0012 DEB7      		in r29,__SP_H__
 948               	.LCFI48:
 949               		.cfi_def_cfa_register 28
 950               	/* prologue: function */
 951               	/* frame size = 4 */
 952               	/* stack size = 10 */
 953               	.L__stack_usage = 10
 954               	.LVL79:
 438:C:\Users\Hexma\Documents\Arduino\hardware\SMART-Response-XE-Low_level-master\avr\libraries\SmartResponseXE\SmartResponseXE.cpp ****   uint8_t val, count, len = 1;
 955               		.loc 1 438 0
 956 0014 80E0      		ldi r24,lo8(_ZL7powerup)
 957 0016 E82E      		mov r14,r24
 958 0018 80E0      		ldi r24,hi8(_ZL7powerup)
 959 001a F82E      		mov r15,r24
 960               	.LVL80:
 961               	.L42:
 962               	.LBB12:
 443:C:\Users\Hexma\Documents\Arduino\hardware\SMART-Response-XE-Low_level-master\avr\libraries\SmartResponseXE\SmartResponseXE.cpp ****     if (len == 99) // delay
 963               		.loc 1 443 0
 964 001c C701      		movw r24,r14
 965 001e 0196      		adiw r24,1
 966               	.LVL81:
 967 0020 F701      		movw r30,r14
 968               	/* #APP */
GAS LISTING C:\Users\Hexma\AppData\Local\Temp\cc7G6F1c.s 			page 28


 969               	 ;  443 "C:\Users\Hexma\Documents\Arduino\hardware\SMART-Response-XE-Low_level-master\avr\libraries
 970 0022 0491      		lpm r16, Z
 971               		
 972               	 ;  0 "" 2
 973               	.LVL82:
 974               	/* #NOAPP */
 975               	.LBE12:
 976               	.LBB13:
 444:C:\Users\Hexma\Documents\Arduino\hardware\SMART-Response-XE-Low_level-master\avr\libraries\SmartResponseXE\SmartResponseXE.cpp ****     {
 977               		.loc 1 444 0
 978 0024 0336      		cpi r16,lo8(99)
 979 0026 01F4      		brne .L43
 980               	.LBB14:
 981               	.LBB15:
 446:C:\Users\Hexma\Documents\Arduino\hardware\SMART-Response-XE-Low_level-master\avr\libraries\SmartResponseXE\SmartResponseXE.cpp ****       delay(val);
 982               		.loc 1 446 0
 983 0028 F2E0      		ldi r31,2
 984 002a EF0E      		add r14,r31
 985 002c F11C      		adc r15,__zero_reg__
 986               	.LVL83:
 987 002e FC01      		movw r30,r24
 988               	.LVL84:
 989               	/* #APP */
 990               	 ;  446 "C:\Users\Hexma\Documents\Arduino\hardware\SMART-Response-XE-Low_level-master\avr\libraries
 991 0030 6491      		lpm r22, Z
 992               		
 993               	 ;  0 "" 2
 994               	.LVL85:
 995               	/* #NOAPP */
 996               	.LBE15:
 447:C:\Users\Hexma\Documents\Arduino\hardware\SMART-Response-XE-Low_level-master\avr\libraries\SmartResponseXE\SmartResponseXE.cpp ****     }
 997               		.loc 1 447 0
 998 0032 70E0      		ldi r23,0
 999 0034 90E0      		ldi r25,0
 1000 0036 80E0      		ldi r24,0
 1001               	.LVL86:
 1002 0038 0E94 0000 		call delay
 1003               	.LVL87:
 1004 003c 00C0      		rjmp .L42
 1005               	.LVL88:
 1006               	.L43:
 1007               	.LBE14:
 1008               	.LBB16:
 449:C:\Users\Hexma\Documents\Arduino\hardware\SMART-Response-XE-Low_level-master\avr\libraries\SmartResponseXE\SmartResponseXE.cpp ****     {
 1009               		.loc 1 449 0
 1010 003e 0023      		tst r16
 1011 0040 01F0      		breq .L41
 1012               	.LBB17:
 1013               	.LBB18:
 451:C:\Users\Hexma\Documents\Arduino\hardware\SMART-Response-XE-Low_level-master\avr\libraries\SmartResponseXE\SmartResponseXE.cpp ****       SRXEWriteCommand(val);
 1014               		.loc 1 451 0
 1015 0042 F2E0      		ldi r31,2
 1016 0044 EF0E      		add r14,r31
 1017 0046 F11C      		adc r15,__zero_reg__
 1018               	.LVL89:
 1019 0048 FC01      		movw r30,r24
 1020               	.LVL90:
GAS LISTING C:\Users\Hexma\AppData\Local\Temp\cc7G6F1c.s 			page 29


 1021               	/* #APP */
 1022               	 ;  451 "C:\Users\Hexma\Documents\Arduino\hardware\SMART-Response-XE-Low_level-master\avr\libraries
 1023 004a 8491      		lpm r24, Z
 1024               		
 1025               	 ;  0 "" 2
 1026               	.LVL91:
 1027               	/* #NOAPP */
 1028               	.LBE18:
 452:C:\Users\Hexma\Documents\Arduino\hardware\SMART-Response-XE-Low_level-master\avr\libraries\SmartResponseXE\SmartResponseXE.cpp ****       count = len - 1;
 1029               		.loc 1 452 0
 1030 004c 0E94 0000 		call _ZL16SRXEWriteCommandh
 1031               	.LVL92:
 453:C:\Users\Hexma\Documents\Arduino\hardware\SMART-Response-XE-Low_level-master\avr\libraries\SmartResponseXE\SmartResponseXE.cpp ****       if (count != 0)
 1032               		.loc 1 453 0
 1033 0050 0150      		subi r16,lo8(-(-1))
 1034               	.LVL93:
 454:C:\Users\Hexma\Documents\Arduino\hardware\SMART-Response-XE-Low_level-master\avr\libraries\SmartResponseXE\SmartResponseXE.cpp ****       {
 1035               		.loc 1 454 0
 1036 0052 01F0      		breq .L42
 456:C:\Users\Hexma\Documents\Arduino\hardware\SMART-Response-XE-Low_level-master\avr\libraries\SmartResponseXE\SmartResponseXE.cpp ****         pList += count;
 1037               		.loc 1 456 0
 1038 0054 10E0      		ldi r17,0
 1039 0056 A801      		movw r20,r16
 1040 0058 B701      		movw r22,r14
 1041 005a CE01      		movw r24,r28
 1042 005c 0196      		adiw r24,1
 1043 005e 0E94 0000 		call memcpy_P
 1044               	.LVL94:
 457:C:\Users\Hexma\Documents\Arduino\hardware\SMART-Response-XE-Low_level-master\avr\libraries\SmartResponseXE\SmartResponseXE.cpp ****         SRXEWriteDataBlock(ucTemp, count);
 1045               		.loc 1 457 0
 1046 0062 E00E      		add r14,r16
 1047 0064 F11E      		adc r15,r17
 1048               	.LVL95:
 458:C:\Users\Hexma\Documents\Arduino\hardware\SMART-Response-XE-Low_level-master\avr\libraries\SmartResponseXE\SmartResponseXE.cpp ****       }
 1049               		.loc 1 458 0
 1050 0066 B801      		movw r22,r16
 1051 0068 CE01      		movw r24,r28
 1052 006a 0196      		adiw r24,1
 1053 006c 0E94 0000 		call _Z18SRXEWriteDataBlockPhi
 1054               	.LVL96:
 1055               	.LBE17:
 1056               	.LBE16:
 1057               	.LBE13:
 1058 0070 00C0      		rjmp .L42
 1059               	.LVL97:
 1060               	.L41:
 1061               	/* epilogue start */
 462:C:\Users\Hexma\Documents\Arduino\hardware\SMART-Response-XE-Low_level-master\avr\libraries\SmartResponseXE\SmartResponseXE.cpp **** 
 1062               		.loc 1 462 0
 1063 0072 0F90      		pop __tmp_reg__
 1064 0074 0F90      		pop __tmp_reg__
 1065 0076 0F90      		pop __tmp_reg__
 1066 0078 0F90      		pop __tmp_reg__
 1067 007a DF91      		pop r29
 1068 007c CF91      		pop r28
 1069 007e 1F91      		pop r17
 1070 0080 0F91      		pop r16
GAS LISTING C:\Users\Hexma\AppData\Local\Temp\cc7G6F1c.s 			page 30


 1071               	.LVL98:
 1072 0082 FF90      		pop r15
 1073 0084 EF90      		pop r14
 1074               	.LVL99:
 1075 0086 0895      		ret
 1076               		.cfi_endproc
 1077               	.LFE122:
 1079               		.section	.text._Z15SRXESetPositioniiii,"ax",@progbits
 1080               	.global	_Z15SRXESetPositioniiii
 1082               	_Z15SRXESetPositioniiii:
 1083               	.LFB126:
 535:C:\Users\Hexma\Documents\Arduino\hardware\SMART-Response-XE-Low_level-master\avr\libraries\SmartResponseXE\SmartResponseXE.cpp ****   byte ucTemp[4];
 1084               		.loc 1 535 0
 1085               		.cfi_startproc
 1086               	.LVL100:
 1087               	/* prologue: function */
 1088               	/* frame size = 0 */
 1089               	/* stack size = 0 */
 1090               	.L__stack_usage = 0
 538:C:\Users\Hexma\Documents\Arduino\hardware\SMART-Response-XE-Low_level-master\avr\libraries\SmartResponseXE\SmartResponseXE.cpp ****     return; // invalid
 1091               		.loc 1 538 0
 1092 0000 8038      		cpi r24,-128
 1093 0002 E1E0      		ldi r30,1
 1094 0004 9E07      		cpc r25,r30
 1095 0006 04F4      		brge .L49
 538:C:\Users\Hexma\Documents\Arduino\hardware\SMART-Response-XE-Low_level-master\avr\libraries\SmartResponseXE\SmartResponseXE.cpp ****     return; // invalid
 1096               		.loc 1 538 0 is_stmt 0 discriminator 1
 1097 0008 603A      		cpi r22,-96
 1098 000a 7105      		cpc r23,__zero_reg__
 1099 000c 04F4      		brge .L49
 538:C:\Users\Hexma\Documents\Arduino\hardware\SMART-Response-XE-Low_level-master\avr\libraries\SmartResponseXE\SmartResponseXE.cpp ****     return; // invalid
 1100               		.loc 1 538 0 discriminator 2
 1101 000e 4138      		cpi r20,-127
 1102 0010 E1E0      		ldi r30,1
 1103 0012 5E07      		cpc r21,r30
 1104 0014 04F4      		brge .L49
 538:C:\Users\Hexma\Documents\Arduino\hardware\SMART-Response-XE-Low_level-master\avr\libraries\SmartResponseXE\SmartResponseXE.cpp ****     return; // invalid
 1105               		.loc 1 538 0 discriminator 3
 1106 0016 213A      		cpi r18,-95
 1107 0018 3105      		cpc r19,__zero_reg__
 1108 001a 04F4      		brge .L49
 1109 001c 0C94 0000 		jmp _Z15SRXESetPositioniiii.part.0
 1110               	.LVL101:
 1111               	.L49:
 1112               	/* epilogue start */
 1113               		.loc 1 553 0 is_stmt 1
 1114 0020 0895      		ret
 1115               		.cfi_endproc
 1116               	.LFE126:
 1118               		.section	.text._Z17SRXELoadBitmapRLEiiPKh,"ax",@progbits
 1119               	.global	_Z17SRXELoadBitmapRLEiiPKh
 1121               	_Z17SRXELoadBitmapRLEiiPKh:
 1122               	.LFB127:
 554:C:\Users\Hexma\Documents\Arduino\hardware\SMART-Response-XE-Low_level-master\avr\libraries\SmartResponseXE\SmartResponseXE.cpp **** 
 555:C:\Users\Hexma\Documents\Arduino\hardware\SMART-Response-XE-Low_level-master\avr\libraries\SmartResponseXE\SmartResponseXE.cpp **** 
 556:C:\Users\Hexma\Documents\Arduino\hardware\SMART-Response-XE-Low_level-master\avr\libraries\SmartResponseXE\SmartResponseXE.cpp **** //    SRXELoadBitmapRLE
 557:C:\Users\Hexma\Documents\Arduino\hardware\SMART-Response-XE-Low_level-master\avr\libraries\SmartResponseXE\SmartResponseXE.cpp **** //  load a bitmap in the display RAM
GAS LISTING C:\Users\Hexma\AppData\Local\Temp\cc7G6F1c.s 			page 31


 558:C:\Users\Hexma\Documents\Arduino\hardware\SMART-Response-XE-Low_level-master\avr\libraries\SmartResponseXE\SmartResponseXE.cpp **** //  input
 559:C:\Users\Hexma\Documents\Arduino\hardware\SMART-Response-XE-Low_level-master\avr\libraries\SmartResponseXE\SmartResponseXE.cpp **** //    x, y coordinate of top left in the display
 560:C:\Users\Hexma\Documents\Arduino\hardware\SMART-Response-XE-Low_level-master\avr\libraries\SmartResponseXE\SmartResponseXE.cpp **** //    btmp array containing the bitmap compressed with RLE
 561:C:\Users\Hexma\Documents\Arduino\hardware\SMART-Response-XE-Low_level-master\avr\libraries\SmartResponseXE\SmartResponseXE.cpp **** //
 562:C:\Users\Hexma\Documents\Arduino\hardware\SMART-Response-XE-Low_level-master\avr\libraries\SmartResponseXE\SmartResponseXE.cpp **** void SRXELoadBitmapRLE(int x, int y, const uint8_t *btmp){
 1123               		.loc 1 562 0
 1124               		.cfi_startproc
 1125               	.LVL102:
 1126 0000 EF92      		push r14
 1127               	.LCFI49:
 1128               		.cfi_def_cfa_offset 3
 1129               		.cfi_offset 14, -2
 1130 0002 FF92      		push r15
 1131               	.LCFI50:
 1132               		.cfi_def_cfa_offset 4
 1133               		.cfi_offset 15, -3
 1134 0004 0F93      		push r16
 1135               	.LCFI51:
 1136               		.cfi_def_cfa_offset 5
 1137               		.cfi_offset 16, -4
 1138 0006 1F93      		push r17
 1139               	.LCFI52:
 1140               		.cfi_def_cfa_offset 6
 1141               		.cfi_offset 17, -5
 1142 0008 CF93      		push r28
 1143               	.LCFI53:
 1144               		.cfi_def_cfa_offset 7
 1145               		.cfi_offset 28, -6
 1146 000a DF93      		push r29
 1147               	.LCFI54:
 1148               		.cfi_def_cfa_offset 8
 1149               		.cfi_offset 29, -7
 1150               	/* prologue: function */
 1151               	/* frame size = 0 */
 1152               	/* stack size = 6 */
 1153               	.L__stack_usage = 6
 1154 000c DC01      		movw r26,r24
 1155 000e EA01      		movw r28,r20
 1156               	.LVL103:
 1157               	.LBB19:
 563:C:\Users\Hexma\Documents\Arduino\hardware\SMART-Response-XE-Low_level-master\avr\libraries\SmartResponseXE\SmartResponseXE.cpp ****   int width, height, index=0;
 564:C:\Users\Hexma\Documents\Arduino\hardware\SMART-Response-XE-Low_level-master\avr\libraries\SmartResponseXE\SmartResponseXE.cpp ****   unsigned char length, value;
 565:C:\Users\Hexma\Documents\Arduino\hardware\SMART-Response-XE-Low_level-master\avr\libraries\SmartResponseXE\SmartResponseXE.cpp **** 
 566:C:\Users\Hexma\Documents\Arduino\hardware\SMART-Response-XE-Low_level-master\avr\libraries\SmartResponseXE\SmartResponseXE.cpp ****   width = pgm_read_byte_near(btmp+index++) + (pgm_read_byte_near(btmp+index++) <<8);
 1158               		.loc 1 566 0
 1159 0010 FA01      		movw r30,r20
 1160               	/* #APP */
 1161               	 ;  566 "C:\Users\Hexma\Documents\Arduino\hardware\SMART-Response-XE-Low_level-master\avr\libraries
 1162 0012 1491      		lpm r17, Z
 1163               		
 1164               	 ;  0 "" 2
 1165               	.LVL104:
 1166               	/* #NOAPP */
 1167               	.LBE19:
 1168               	.LBB20:
 1169 0014 3196      		adiw r30,1
 1170               	/* #APP */
GAS LISTING C:\Users\Hexma\AppData\Local\Temp\cc7G6F1c.s 			page 32


 1171               	 ;  566 "C:\Users\Hexma\Documents\Arduino\hardware\SMART-Response-XE-Low_level-master\avr\libraries
 1172 0016 9491      		lpm r25, Z
 1173               		
 1174               	 ;  0 "" 2
 1175               	.LVL105:
 1176               	/* #NOAPP */
 1177               	.LBE20:
 1178               	.LBB21:
 567:C:\Users\Hexma\Documents\Arduino\hardware\SMART-Response-XE-Low_level-master\avr\libraries\SmartResponseXE\SmartResponseXE.cpp ****   height = pgm_read_byte_near(btmp+index++)  + (pgm_read_byte_near(btmp+index++) <<8);
 1179               		.loc 1 567 0
 1180 0018 3196      		adiw r30,1
 1181               	/* #APP */
 1182               	 ;  567 "C:\Users\Hexma\Documents\Arduino\hardware\SMART-Response-XE-Low_level-master\avr\libraries
 1183 001a 8491      		lpm r24, Z
 1184               		
 1185               	 ;  0 "" 2
 1186               	.LVL106:
 1187               	/* #NOAPP */
 1188               	.LBE21:
 1189               	.LBB22:
 1190 001c 3196      		adiw r30,1
 1191               	/* #APP */
 1192               	 ;  567 "C:\Users\Hexma\Documents\Arduino\hardware\SMART-Response-XE-Low_level-master\avr\libraries
 1193 001e E491      		lpm r30, Z
 1194               		
 1195               	 ;  0 "" 2
 1196               	.LVL107:
 1197               	/* #NOAPP */
 1198               	.LBE22:
 1199 0020 2E2F      		mov r18,r30
 1200 0022 30E0      		ldi r19,0
 1201 0024 322F      		mov r19,r18
 1202 0026 2227      		clr r18
 1203               	.LVL108:
 1204 0028 280F      		add r18,r24
 1205 002a 311D      		adc r19,__zero_reg__
 566:C:\Users\Hexma\Documents\Arduino\hardware\SMART-Response-XE-Low_level-master\avr\libraries\SmartResponseXE\SmartResponseXE.cpp ****   height = pgm_read_byte_near(btmp+index++)  + (pgm_read_byte_near(btmp+index++) <<8);
 1206               		.loc 1 566 0
 1207 002c 492F      		mov r20,r25
 1208 002e 50E0      		ldi r21,0
 1209 0030 542F      		mov r21,r20
 1210 0032 4427      		clr r20
 1211               	.LVL109:
 1212 0034 410F      		add r20,r17
 1213 0036 511D      		adc r21,__zero_reg__
 568:C:\Users\Hexma\Documents\Arduino\hardware\SMART-Response-XE-Low_level-master\avr\libraries\SmartResponseXE\SmartResponseXE.cpp ****   SRXESetPosition(x, y, width, height);
 1214               		.loc 1 568 0
 1215 0038 CD01      		movw r24,r26
 1216               	.LVL110:
 1217 003a 0E94 0000 		call _Z15SRXESetPositioniiii
 1218               	.LVL111:
 569:C:\Users\Hexma\Documents\Arduino\hardware\SMART-Response-XE-Low_level-master\avr\libraries\SmartResponseXE\SmartResponseXE.cpp ****   mydigitalWrite(iCSPin, LOW);
 1219               		.loc 1 569 0
 1220 003e F090 0000 		lds r15,_ZL6iCSPin
 1221 0042 60E0      		ldi r22,0
 1222 0044 8F2D      		mov r24,r15
 1223 0046 0E94 0000 		call _Z14mydigitalWritehh
GAS LISTING C:\Users\Hexma\AppData\Local\Temp\cc7G6F1c.s 			page 33


 1224               	.LVL112:
 1225 004a 2496      		adiw r28,4
 1226               	.LVL113:
 1227               	.L54:
 1228               	.LBB23:
 570:C:\Users\Hexma\Documents\Arduino\hardware\SMART-Response-XE-Low_level-master\avr\libraries\SmartResponseXE\SmartResponseXE.cpp ****   while(length = pgm_read_byte_near(btmp+index++) ){
 1229               		.loc 1 570 0
 1230 004c FE01      		movw r30,r28
 1231               	/* #APP */
 1232               	 ;  570 "C:\Users\Hexma\Documents\Arduino\hardware\SMART-Response-XE-Low_level-master\avr\libraries
 1233 004e E490      		lpm r14, Z
 1234               		
 1235               	 ;  0 "" 2
 1236               	.LVL114:
 1237               	/* #NOAPP */
 1238               	.LBE23:
 1239 0050 EE20      		tst r14
 1240 0052 01F0      		breq .L52
 1241               	.LVL115:
 1242               	.LBB24:
 571:C:\Users\Hexma\Documents\Arduino\hardware\SMART-Response-XE-Low_level-master\avr\libraries\SmartResponseXE\SmartResponseXE.cpp ****     value = pgm_read_byte_near(btmp+index++) ;
 1243               		.loc 1 571 0
 1244 0054 3196      		adiw r30,1
 1245               	.LVL116:
 1246               	/* #APP */
 1247               	 ;  571 "C:\Users\Hexma\Documents\Arduino\hardware\SMART-Response-XE-Low_level-master\avr\libraries
 1248 0056 0491      		lpm r16, Z
 1249               		
 1250               	 ;  0 "" 2
 1251               	.LVL117:
 1252               	/* #NOAPP */
 1253               	.LBE24:
 1254               	.LBB25:
 572:C:\Users\Hexma\Documents\Arduino\hardware\SMART-Response-XE-Low_level-master\avr\libraries\SmartResponseXE\SmartResponseXE.cpp ****     for(unsigned char count=0; count<length; count++){
 1255               		.loc 1 572 0
 1256 0058 10E0      		ldi r17,0
 1257               	.LVL118:
 1258               	.L53:
 573:C:\Users\Hexma\Documents\Arduino\hardware\SMART-Response-XE-Low_level-master\avr\libraries\SmartResponseXE\SmartResponseXE.cpp ****       SPI_transfer(value);
 1259               		.loc 1 573 0 discriminator 2
 1260 005a 802F      		mov r24,r16
 1261 005c 0E94 0000 		call _Z12SPI_transferc
 1262               	.LVL119:
 572:C:\Users\Hexma\Documents\Arduino\hardware\SMART-Response-XE-Low_level-master\avr\libraries\SmartResponseXE\SmartResponseXE.cpp ****     for(unsigned char count=0; count<length; count++){
 1263               		.loc 1 572 0 discriminator 2
 1264 0060 1F5F      		subi r17,lo8(-(1))
 1265               	.LVL120:
 1266 0062 E112      		cpse r14,r17
 1267 0064 00C0      		rjmp .L53
 1268 0066 2296      		adiw r28,2
 1269               	.LVL121:
 1270 0068 00C0      		rjmp .L54
 1271               	.LVL122:
 1272               	.L52:
 1273               	.LBE25:
 574:C:\Users\Hexma\Documents\Arduino\hardware\SMART-Response-XE-Low_level-master\avr\libraries\SmartResponseXE\SmartResponseXE.cpp ****     }
 575:C:\Users\Hexma\Documents\Arduino\hardware\SMART-Response-XE-Low_level-master\avr\libraries\SmartResponseXE\SmartResponseXE.cpp ****   }
GAS LISTING C:\Users\Hexma\AppData\Local\Temp\cc7G6F1c.s 			page 34


 576:C:\Users\Hexma\Documents\Arduino\hardware\SMART-Response-XE-Low_level-master\avr\libraries\SmartResponseXE\SmartResponseXE.cpp ****   mydigitalWrite(iCSPin, HIGH);
 1274               		.loc 1 576 0
 1275 006a 61E0      		ldi r22,lo8(1)
 1276 006c 8F2D      		mov r24,r15
 1277               	/* epilogue start */
 577:C:\Users\Hexma\Documents\Arduino\hardware\SMART-Response-XE-Low_level-master\avr\libraries\SmartResponseXE\SmartResponseXE.cpp **** }
 1278               		.loc 1 577 0
 1279 006e DF91      		pop r29
 1280 0070 CF91      		pop r28
 1281               	.LVL123:
 1282 0072 1F91      		pop r17
 1283 0074 0F91      		pop r16
 1284 0076 FF90      		pop r15
 1285 0078 EF90      		pop r14
 1286               	.LVL124:
 576:C:\Users\Hexma\Documents\Arduino\hardware\SMART-Response-XE-Low_level-master\avr\libraries\SmartResponseXE\SmartResponseXE.cpp **** }
 1287               		.loc 1 576 0
 1288 007a 0C94 0000 		jmp _Z14mydigitalWritehh
 1289               	.LVL125:
 1290               		.cfi_endproc
 1291               	.LFE127:
 1293               		.section	.text._Z15SRXEIncreaseVopv,"ax",@progbits
 1294               	.global	_Z15SRXEIncreaseVopv
 1296               	_Z15SRXEIncreaseVopv:
 1297               	.LFB128:
 578:C:\Users\Hexma\Documents\Arduino\hardware\SMART-Response-XE-Low_level-master\avr\libraries\SmartResponseXE\SmartResponseXE.cpp **** 
 579:C:\Users\Hexma\Documents\Arduino\hardware\SMART-Response-XE-Low_level-master\avr\libraries\SmartResponseXE\SmartResponseXE.cpp **** // SRXEIncreaseVop
 580:C:\Users\Hexma\Documents\Arduino\hardware\SMART-Response-XE-Low_level-master\avr\libraries\SmartResponseXE\SmartResponseXE.cpp **** //
 581:C:\Users\Hexma\Documents\Arduino\hardware\SMART-Response-XE-Low_level-master\avr\libraries\SmartResponseXE\SmartResponseXE.cpp **** void SRXEIncreaseVop(void){
 1298               		.loc 1 581 0
 1299               		.cfi_startproc
 1300               	/* prologue: function */
 1301               	/* frame size = 0 */
 1302               	/* stack size = 0 */
 1303               	.L__stack_usage = 0
 582:C:\Users\Hexma\Documents\Arduino\hardware\SMART-Response-XE-Low_level-master\avr\libraries\SmartResponseXE\SmartResponseXE.cpp ****   SRXEWriteCommand(0xc1);
 1304               		.loc 1 582 0
 1305 0000 81EC      		ldi r24,lo8(-63)
 1306 0002 0C94 0000 		jmp _ZL16SRXEWriteCommandh
 1307               	.LVL126:
 1308               		.cfi_endproc
 1309               	.LFE128:
 1311               		.section	.text._Z15SRXEDecreaseVopv,"ax",@progbits
 1312               	.global	_Z15SRXEDecreaseVopv
 1314               	_Z15SRXEDecreaseVopv:
 1315               	.LFB129:
 583:C:\Users\Hexma\Documents\Arduino\hardware\SMART-Response-XE-Low_level-master\avr\libraries\SmartResponseXE\SmartResponseXE.cpp **** }
 584:C:\Users\Hexma\Documents\Arduino\hardware\SMART-Response-XE-Low_level-master\avr\libraries\SmartResponseXE\SmartResponseXE.cpp **** 
 585:C:\Users\Hexma\Documents\Arduino\hardware\SMART-Response-XE-Low_level-master\avr\libraries\SmartResponseXE\SmartResponseXE.cpp **** // SRXEDecreaseVop
 586:C:\Users\Hexma\Documents\Arduino\hardware\SMART-Response-XE-Low_level-master\avr\libraries\SmartResponseXE\SmartResponseXE.cpp **** //
 587:C:\Users\Hexma\Documents\Arduino\hardware\SMART-Response-XE-Low_level-master\avr\libraries\SmartResponseXE\SmartResponseXE.cpp **** void SRXEDecreaseVop(void){
 1316               		.loc 1 587 0
 1317               		.cfi_startproc
 1318               	/* prologue: function */
 1319               	/* frame size = 0 */
 1320               	/* stack size = 0 */
 1321               	.L__stack_usage = 0
GAS LISTING C:\Users\Hexma\AppData\Local\Temp\cc7G6F1c.s 			page 35


 588:C:\Users\Hexma\Documents\Arduino\hardware\SMART-Response-XE-Low_level-master\avr\libraries\SmartResponseXE\SmartResponseXE.cpp ****   SRXEWriteCommand(0xc2);
 1322               		.loc 1 588 0
 1323 0000 82EC      		ldi r24,lo8(-62)
 1324 0002 0C94 0000 		jmp _ZL16SRXEWriteCommandh
 1325               	.LVL127:
 1326               		.cfi_endproc
 1327               	.LFE129:
 1329               		.section	.text._Z14SRXEScrollAreaiii,"ax",@progbits
 1330               	.global	_Z14SRXEScrollAreaiii
 1332               	_Z14SRXEScrollAreaiii:
 1333               	.LFB130:
 589:C:\Users\Hexma\Documents\Arduino\hardware\SMART-Response-XE-Low_level-master\avr\libraries\SmartResponseXE\SmartResponseXE.cpp **** }
 590:C:\Users\Hexma\Documents\Arduino\hardware\SMART-Response-XE-Low_level-master\avr\libraries\SmartResponseXE\SmartResponseXE.cpp **** 
 591:C:\Users\Hexma\Documents\Arduino\hardware\SMART-Response-XE-Low_level-master\avr\libraries\SmartResponseXE\SmartResponseXE.cpp **** //
 592:C:\Users\Hexma\Documents\Arduino\hardware\SMART-Response-XE-Low_level-master\avr\libraries\SmartResponseXE\SmartResponseXE.cpp **** //  Set Scroll Area
 593:C:\Users\Hexma\Documents\Arduino\hardware\SMART-Response-XE-Low_level-master\avr\libraries\SmartResponseXE\SmartResponseXE.cpp **** // inputs:
 594:C:\Users\Hexma\Documents\Arduino\hardware\SMART-Response-XE-Low_level-master\avr\libraries\SmartResponseXE\SmartResponseXE.cpp **** // TA: top fixed area
 595:C:\Users\Hexma\Documents\Arduino\hardware\SMART-Response-XE-Low_level-master\avr\libraries\SmartResponseXE\SmartResponseXE.cpp **** // SA: scroll area
 596:C:\Users\Hexma\Documents\Arduino\hardware\SMART-Response-XE-Low_level-master\avr\libraries\SmartResponseXE\SmartResponseXE.cpp **** // BA: bottom fixed area
 597:C:\Users\Hexma\Documents\Arduino\hardware\SMART-Response-XE-Low_level-master\avr\libraries\SmartResponseXE\SmartResponseXE.cpp **** // TA + SA + BA = 160
 598:C:\Users\Hexma\Documents\Arduino\hardware\SMART-Response-XE-Low_level-master\avr\libraries\SmartResponseXE\SmartResponseXE.cpp **** //
 599:C:\Users\Hexma\Documents\Arduino\hardware\SMART-Response-XE-Low_level-master\avr\libraries\SmartResponseXE\SmartResponseXE.cpp **** //  fdufnews 12/2019
 600:C:\Users\Hexma\Documents\Arduino\hardware\SMART-Response-XE-Low_level-master\avr\libraries\SmartResponseXE\SmartResponseXE.cpp **** //
 601:C:\Users\Hexma\Documents\Arduino\hardware\SMART-Response-XE-Low_level-master\avr\libraries\SmartResponseXE\SmartResponseXE.cpp **** void SRXEScrollArea(int TA, int SA, int BA)
 602:C:\Users\Hexma\Documents\Arduino\hardware\SMART-Response-XE-Low_level-master\avr\libraries\SmartResponseXE\SmartResponseXE.cpp **** {
 1334               		.loc 1 602 0
 1335               		.cfi_startproc
 1336               	.LVL128:
 1337 0000 CF92      		push r12
 1338               	.LCFI55:
 1339               		.cfi_def_cfa_offset 3
 1340               		.cfi_offset 12, -2
 1341 0002 DF92      		push r13
 1342               	.LCFI56:
 1343               		.cfi_def_cfa_offset 4
 1344               		.cfi_offset 13, -3
 1345 0004 EF92      		push r14
 1346               	.LCFI57:
 1347               		.cfi_def_cfa_offset 5
 1348               		.cfi_offset 14, -4
 1349 0006 FF92      		push r15
 1350               	.LCFI58:
 1351               		.cfi_def_cfa_offset 6
 1352               		.cfi_offset 15, -5
 1353 0008 0F93      		push r16
 1354               	.LCFI59:
 1355               		.cfi_def_cfa_offset 7
 1356               		.cfi_offset 16, -6
 1357 000a 1F93      		push r17
 1358               	.LCFI60:
 1359               		.cfi_def_cfa_offset 8
 1360               		.cfi_offset 17, -7
 1361 000c CF93      		push r28
 1362               	.LCFI61:
 1363               		.cfi_def_cfa_offset 9
 1364               		.cfi_offset 28, -8
 1365 000e DF93      		push r29
GAS LISTING C:\Users\Hexma\AppData\Local\Temp\cc7G6F1c.s 			page 36


 1366               	.LCFI62:
 1367               		.cfi_def_cfa_offset 10
 1368               		.cfi_offset 29, -9
 1369 0010 00D0      		rcall .
 1370 0012 1F92      		push __zero_reg__
 1371               	.LCFI63:
 1372               		.cfi_def_cfa_offset 13
 1373 0014 CDB7      		in r28,__SP_L__
 1374 0016 DEB7      		in r29,__SP_H__
 1375               	.LCFI64:
 1376               		.cfi_def_cfa_register 28
 1377               	/* prologue: function */
 1378               	/* frame size = 3 */
 1379               	/* stack size = 11 */
 1380               	.L__stack_usage = 11
 603:C:\Users\Hexma\Documents\Arduino\hardware\SMART-Response-XE-Low_level-master\avr\libraries\SmartResponseXE\SmartResponseXE.cpp ****   byte ucTemp[3];
 604:C:\Users\Hexma\Documents\Arduino\hardware\SMART-Response-XE-Low_level-master\avr\libraries\SmartResponseXE\SmartResponseXE.cpp **** 
 605:C:\Users\Hexma\Documents\Arduino\hardware\SMART-Response-XE-Low_level-master\avr\libraries\SmartResponseXE\SmartResponseXE.cpp ****   if ((TA+SA+BA)!=160) return;
 1381               		.loc 1 605 0
 1382 0018 9C01      		movw r18,r24
 1383 001a 260F      		add r18,r22
 1384 001c 371F      		adc r19,r23
 1385 001e 240F      		add r18,r20
 1386 0020 351F      		adc r19,r21
 1387 0022 203A      		cpi r18,-96
 1388 0024 3105      		cpc r19,__zero_reg__
 1389 0026 01F4      		brne .L58
 1390 0028 7A01      		movw r14,r20
 1391 002a 8B01      		movw r16,r22
 1392 002c 6C01      		movw r12,r24
 606:C:\Users\Hexma\Documents\Arduino\hardware\SMART-Response-XE-Low_level-master\avr\libraries\SmartResponseXE\SmartResponseXE.cpp ****   SRXEWriteCommand(0x33); // set scroll area
 1393               		.loc 1 606 0
 1394 002e 83E3      		ldi r24,lo8(51)
 1395               	.LVL129:
 1396 0030 0E94 0000 		call _ZL16SRXEWriteCommandh
 1397               	.LVL130:
 607:C:\Users\Hexma\Documents\Arduino\hardware\SMART-Response-XE-Low_level-master\avr\libraries\SmartResponseXE\SmartResponseXE.cpp **** 
 608:C:\Users\Hexma\Documents\Arduino\hardware\SMART-Response-XE-Low_level-master\avr\libraries\SmartResponseXE\SmartResponseXE.cpp ****   ucTemp[0] = (byte)TA;
 1398               		.loc 1 608 0
 1399 0034 C982      		std Y+1,r12
 609:C:\Users\Hexma\Documents\Arduino\hardware\SMART-Response-XE-Low_level-master\avr\libraries\SmartResponseXE\SmartResponseXE.cpp ****   ucTemp[1] = (byte)SA;
 1400               		.loc 1 609 0
 1401 0036 0A83      		std Y+2,r16
 610:C:\Users\Hexma\Documents\Arduino\hardware\SMART-Response-XE-Low_level-master\avr\libraries\SmartResponseXE\SmartResponseXE.cpp ****   ucTemp[2] = (byte)BA;
 1402               		.loc 1 610 0
 1403 0038 EB82      		std Y+3,r14
 611:C:\Users\Hexma\Documents\Arduino\hardware\SMART-Response-XE-Low_level-master\avr\libraries\SmartResponseXE\SmartResponseXE.cpp ****   SRXEWriteDataBlock(ucTemp, 3);
 1404               		.loc 1 611 0
 1405 003a 63E0      		ldi r22,lo8(3)
 1406 003c 70E0      		ldi r23,0
 1407 003e CE01      		movw r24,r28
 1408 0040 0196      		adiw r24,1
 1409 0042 0E94 0000 		call _Z18SRXEWriteDataBlockPhi
 1410               	.LVL131:
 612:C:\Users\Hexma\Documents\Arduino\hardware\SMART-Response-XE-Low_level-master\avr\libraries\SmartResponseXE\SmartResponseXE.cpp ****   scrollArea = (byte)SA;
 1411               		.loc 1 612 0
 1412 0046 1127      		clr r17
GAS LISTING C:\Users\Hexma\AppData\Local\Temp\cc7G6F1c.s 			page 37


 1413               	.LVL132:
 1414 0048 1093 0000 		sts _ZL10scrollArea+1,r17
 1415 004c 0093 0000 		sts _ZL10scrollArea,r16
 1416               	.LVL133:
 1417               	.L58:
 1418               	/* epilogue start */
 613:C:\Users\Hexma\Documents\Arduino\hardware\SMART-Response-XE-Low_level-master\avr\libraries\SmartResponseXE\SmartResponseXE.cpp **** }
 1419               		.loc 1 613 0
 1420 0050 0F90      		pop __tmp_reg__
 1421 0052 0F90      		pop __tmp_reg__
 1422 0054 0F90      		pop __tmp_reg__
 1423 0056 DF91      		pop r29
 1424 0058 CF91      		pop r28
 1425 005a 1F91      		pop r17
 1426 005c 0F91      		pop r16
 1427 005e FF90      		pop r15
 1428 0060 EF90      		pop r14
 1429 0062 DF90      		pop r13
 1430 0064 CF90      		pop r12
 1431 0066 0895      		ret
 1432               		.cfi_endproc
 1433               	.LFE130:
 1435               		.section	.text._Z10SRXEScrolli,"ax",@progbits
 1436               	.global	_Z10SRXEScrolli
 1438               	_Z10SRXEScrolli:
 1439               	.LFB131:
 614:C:\Users\Hexma\Documents\Arduino\hardware\SMART-Response-XE-Low_level-master\avr\libraries\SmartResponseXE\SmartResponseXE.cpp **** //
 615:C:\Users\Hexma\Documents\Arduino\hardware\SMART-Response-XE-Low_level-master\avr\libraries\SmartResponseXE\SmartResponseXE.cpp **** // Scroll the screen N lines vertically (positive or negative)
 616:C:\Users\Hexma\Documents\Arduino\hardware\SMART-Response-XE-Low_level-master\avr\libraries\SmartResponseXE\SmartResponseXE.cpp **** // The value given represents a delta which affects the current scroll offset
 617:C:\Users\Hexma\Documents\Arduino\hardware\SMART-Response-XE-Low_level-master\avr\libraries\SmartResponseXE\SmartResponseXE.cpp **** //
 618:C:\Users\Hexma\Documents\Arduino\hardware\SMART-Response-XE-Low_level-master\avr\libraries\SmartResponseXE\SmartResponseXE.cpp **** //  fdufnews 12/2019
 619:C:\Users\Hexma\Documents\Arduino\hardware\SMART-Response-XE-Low_level-master\avr\libraries\SmartResponseXE\SmartResponseXE.cpp **** // scroll offset is modulo scrollArea and not LCD_HEIGHT
 620:C:\Users\Hexma\Documents\Arduino\hardware\SMART-Response-XE-Low_level-master\avr\libraries\SmartResponseXE\SmartResponseXE.cpp **** //
 621:C:\Users\Hexma\Documents\Arduino\hardware\SMART-Response-XE-Low_level-master\avr\libraries\SmartResponseXE\SmartResponseXE.cpp **** void SRXEScroll(int iLines)
 622:C:\Users\Hexma\Documents\Arduino\hardware\SMART-Response-XE-Low_level-master\avr\libraries\SmartResponseXE\SmartResponseXE.cpp **** {
 1440               		.loc 1 622 0
 1441               		.cfi_startproc
 1442               	.LVL134:
 1443 0000 1F93      		push r17
 1444               	.LCFI65:
 1445               		.cfi_def_cfa_offset 3
 1446               		.cfi_offset 17, -2
 1447 0002 CF93      		push r28
 1448               	.LCFI66:
 1449               		.cfi_def_cfa_offset 4
 1450               		.cfi_offset 28, -3
 1451 0004 DF93      		push r29
 1452               	.LCFI67:
 1453               		.cfi_def_cfa_offset 5
 1454               		.cfi_offset 29, -4
 1455 0006 1F92      		push __zero_reg__
 1456               	.LCFI68:
 1457               		.cfi_def_cfa_offset 6
 1458 0008 CDB7      		in r28,__SP_L__
 1459 000a DEB7      		in r29,__SP_H__
 1460               	.LCFI69:
 1461               		.cfi_def_cfa_register 28
GAS LISTING C:\Users\Hexma\AppData\Local\Temp\cc7G6F1c.s 			page 38


 1462               	/* prologue: function */
 1463               	/* frame size = 1 */
 1464               	/* stack size = 4 */
 1465               	.L__stack_usage = 4
 623:C:\Users\Hexma\Documents\Arduino\hardware\SMART-Response-XE-Low_level-master\avr\libraries\SmartResponseXE\SmartResponseXE.cpp ****   byte b;
 624:C:\Users\Hexma\Documents\Arduino\hardware\SMART-Response-XE-Low_level-master\avr\libraries\SmartResponseXE\SmartResponseXE.cpp **** 
 625:C:\Users\Hexma\Documents\Arduino\hardware\SMART-Response-XE-Low_level-master\avr\libraries\SmartResponseXE\SmartResponseXE.cpp **** //  iScrollOffset = (iScrollOffset + iLines) % LCD_HEIGHT;
 626:C:\Users\Hexma\Documents\Arduino\hardware\SMART-Response-XE-Low_level-master\avr\libraries\SmartResponseXE\SmartResponseXE.cpp ****   iScrollOffset = (iScrollOffset + iLines) % scrollArea;
 1466               		.loc 1 626 0
 1467 000c 2091 0000 		lds r18,_ZL13iScrollOffset
 1468 0010 3091 0000 		lds r19,_ZL13iScrollOffset+1
 1469 0014 820F      		add r24,r18
 1470 0016 931F      		adc r25,r19
 1471               	.LVL135:
 1472 0018 6091 0000 		lds r22,_ZL10scrollArea
 1473 001c 7091 0000 		lds r23,_ZL10scrollArea+1
 1474 0020 0E94 0000 		call __divmodhi4
 1475 0024 182F      		mov r17,r24
 1476 0026 8093 0000 		sts _ZL13iScrollOffset,r24
 1477 002a 9093 0000 		sts _ZL13iScrollOffset+1,r25
 627:C:\Users\Hexma\Documents\Arduino\hardware\SMART-Response-XE-Low_level-master\avr\libraries\SmartResponseXE\SmartResponseXE.cpp ****   SRXEWriteCommand(0x37); // set scroll start line
 1478               		.loc 1 627 0
 1479 002e 87E3      		ldi r24,lo8(55)
 1480 0030 0E94 0000 		call _ZL16SRXEWriteCommandh
 1481               	.LVL136:
 628:C:\Users\Hexma\Documents\Arduino\hardware\SMART-Response-XE-Low_level-master\avr\libraries\SmartResponseXE\SmartResponseXE.cpp ****   b = (byte)iScrollOffset;
 1482               		.loc 1 628 0
 1483 0034 1983      		std Y+1,r17
 629:C:\Users\Hexma\Documents\Arduino\hardware\SMART-Response-XE-Low_level-master\avr\libraries\SmartResponseXE\SmartResponseXE.cpp ****   SRXEWriteDataBlock(&b, 1);
 1484               		.loc 1 629 0
 1485 0036 61E0      		ldi r22,lo8(1)
 1486 0038 70E0      		ldi r23,0
 1487 003a CE01      		movw r24,r28
 1488 003c 0196      		adiw r24,1
 1489 003e 0E94 0000 		call _Z18SRXEWriteDataBlockPhi
 1490               	.LVL137:
 1491               	/* epilogue start */
 630:C:\Users\Hexma\Documents\Arduino\hardware\SMART-Response-XE-Low_level-master\avr\libraries\SmartResponseXE\SmartResponseXE.cpp **** } /* SRXEScroll() */
 1492               		.loc 1 630 0
 1493 0042 0F90      		pop __tmp_reg__
 1494 0044 DF91      		pop r29
 1495 0046 CF91      		pop r28
 1496 0048 1F91      		pop r17
 1497 004a 0895      		ret
 1498               		.cfi_endproc
 1499               	.LFE131:
 1501               		.section	.text._Z15SRXEScrollResetv,"ax",@progbits
 1502               	.global	_Z15SRXEScrollResetv
 1504               	_Z15SRXEScrollResetv:
 1505               	.LFB132:
 631:C:\Users\Hexma\Documents\Arduino\hardware\SMART-Response-XE-Low_level-master\avr\libraries\SmartResponseXE\SmartResponseXE.cpp **** 
 632:C:\Users\Hexma\Documents\Arduino\hardware\SMART-Response-XE-Low_level-master\avr\libraries\SmartResponseXE\SmartResponseXE.cpp **** 
 633:C:\Users\Hexma\Documents\Arduino\hardware\SMART-Response-XE-Low_level-master\avr\libraries\SmartResponseXE\SmartResponseXE.cpp **** //
 634:C:\Users\Hexma\Documents\Arduino\hardware\SMART-Response-XE-Low_level-master\avr\libraries\SmartResponseXE\SmartResponseXE.cpp **** // Reset the scroll position to 0
 635:C:\Users\Hexma\Documents\Arduino\hardware\SMART-Response-XE-Low_level-master\avr\libraries\SmartResponseXE\SmartResponseXE.cpp **** //
 636:C:\Users\Hexma\Documents\Arduino\hardware\SMART-Response-XE-Low_level-master\avr\libraries\SmartResponseXE\SmartResponseXE.cpp **** void SRXEScrollReset(void)
 637:C:\Users\Hexma\Documents\Arduino\hardware\SMART-Response-XE-Low_level-master\avr\libraries\SmartResponseXE\SmartResponseXE.cpp **** {
GAS LISTING C:\Users\Hexma\AppData\Local\Temp\cc7G6F1c.s 			page 39


 1506               		.loc 1 637 0
 1507               		.cfi_startproc
 1508 0000 CF93      		push r28
 1509               	.LCFI70:
 1510               		.cfi_def_cfa_offset 3
 1511               		.cfi_offset 28, -2
 1512 0002 DF93      		push r29
 1513               	.LCFI71:
 1514               		.cfi_def_cfa_offset 4
 1515               		.cfi_offset 29, -3
 1516 0004 1F92      		push __zero_reg__
 1517               	.LCFI72:
 1518               		.cfi_def_cfa_offset 5
 1519 0006 CDB7      		in r28,__SP_L__
 1520 0008 DEB7      		in r29,__SP_H__
 1521               	.LCFI73:
 1522               		.cfi_def_cfa_register 28
 1523               	/* prologue: function */
 1524               	/* frame size = 1 */
 1525               	/* stack size = 3 */
 1526               	.L__stack_usage = 3
 638:C:\Users\Hexma\Documents\Arduino\hardware\SMART-Response-XE-Low_level-master\avr\libraries\SmartResponseXE\SmartResponseXE.cpp ****   byte b;
 639:C:\Users\Hexma\Documents\Arduino\hardware\SMART-Response-XE-Low_level-master\avr\libraries\SmartResponseXE\SmartResponseXE.cpp ****   iScrollOffset = 0;
 1527               		.loc 1 639 0
 1528 000a 1092 0000 		sts _ZL13iScrollOffset+1,__zero_reg__
 1529 000e 1092 0000 		sts _ZL13iScrollOffset,__zero_reg__
 640:C:\Users\Hexma\Documents\Arduino\hardware\SMART-Response-XE-Low_level-master\avr\libraries\SmartResponseXE\SmartResponseXE.cpp ****   SRXEWriteCommand(0x37); // scroll start address
 1530               		.loc 1 640 0
 1531 0012 87E3      		ldi r24,lo8(55)
 1532 0014 0E94 0000 		call _ZL16SRXEWriteCommandh
 1533               	.LVL138:
 641:C:\Users\Hexma\Documents\Arduino\hardware\SMART-Response-XE-Low_level-master\avr\libraries\SmartResponseXE\SmartResponseXE.cpp ****   b = 0;
 1534               		.loc 1 641 0
 1535 0018 1982      		std Y+1,__zero_reg__
 642:C:\Users\Hexma\Documents\Arduino\hardware\SMART-Response-XE-Low_level-master\avr\libraries\SmartResponseXE\SmartResponseXE.cpp ****   SRXEWriteDataBlock(&b, 1);
 1536               		.loc 1 642 0
 1537 001a 61E0      		ldi r22,lo8(1)
 1538 001c 70E0      		ldi r23,0
 1539 001e CE01      		movw r24,r28
 1540 0020 0196      		adiw r24,1
 1541 0022 0E94 0000 		call _Z18SRXEWriteDataBlockPhi
 1542               	.LVL139:
 1543               	/* epilogue start */
 643:C:\Users\Hexma\Documents\Arduino\hardware\SMART-Response-XE-Low_level-master\avr\libraries\SmartResponseXE\SmartResponseXE.cpp **** } /* SRXEcdScrollReset() */
 1544               		.loc 1 643 0
 1545 0026 0F90      		pop __tmp_reg__
 1546 0028 DF91      		pop r29
 1547 002a CF91      		pop r28
 1548 002c 0895      		ret
 1549               		.cfi_endproc
 1550               	.LFE132:
 1552               		.section	.text._Z18SRXEHorizontalLineiiihi,"ax",@progbits
 1553               	.global	_Z18SRXEHorizontalLineiiihi
 1555               	_Z18SRXEHorizontalLineiiihi:
 1556               	.LFB133:
 644:C:\Users\Hexma\Documents\Arduino\hardware\SMART-Response-XE-Low_level-master\avr\libraries\SmartResponseXE\SmartResponseXE.cpp **** 
 645:C:\Users\Hexma\Documents\Arduino\hardware\SMART-Response-XE-Low_level-master\avr\libraries\SmartResponseXE\SmartResponseXE.cpp **** 
GAS LISTING C:\Users\Hexma\AppData\Local\Temp\cc7G6F1c.s 			page 40


 646:C:\Users\Hexma\Documents\Arduino\hardware\SMART-Response-XE-Low_level-master\avr\libraries\SmartResponseXE\SmartResponseXE.cpp **** void SRXEHorizontalLine(int x, int y, int length, byte color, int thickness) {
 1557               		.loc 1 646 0
 1558               		.cfi_startproc
 1559               	.LVL140:
 1560 0000 CF92      		push r12
 1561               	.LCFI74:
 1562               		.cfi_def_cfa_offset 3
 1563               		.cfi_offset 12, -2
 1564 0002 DF92      		push r13
 1565               	.LCFI75:
 1566               		.cfi_def_cfa_offset 4
 1567               		.cfi_offset 13, -3
 1568 0004 EF92      		push r14
 1569               	.LCFI76:
 1570               		.cfi_def_cfa_offset 5
 1571               		.cfi_offset 14, -4
 1572 0006 FF92      		push r15
 1573               	.LCFI77:
 1574               		.cfi_def_cfa_offset 6
 1575               		.cfi_offset 15, -5
 1576 0008 0F93      		push r16
 1577               	.LCFI78:
 1578               		.cfi_def_cfa_offset 7
 1579               		.cfi_offset 16, -6
 1580 000a 1F93      		push r17
 1581               	.LCFI79:
 1582               		.cfi_def_cfa_offset 8
 1583               		.cfi_offset 17, -7
 1584 000c CF93      		push r28
 1585               	.LCFI80:
 1586               		.cfi_def_cfa_offset 9
 1587               		.cfi_offset 28, -8
 1588 000e DF93      		push r29
 1589               	.LCFI81:
 1590               		.cfi_def_cfa_offset 10
 1591               		.cfi_offset 29, -9
 1592 0010 CDB7      		in r28,__SP_L__
 1593 0012 DEB7      		in r29,__SP_H__
 1594               	.LCFI82:
 1595               		.cfi_def_cfa_register 28
 1596 0014 C058      		subi r28,-128
 1597 0016 D109      		sbc r29,__zero_reg__
 1598               	.LCFI83:
 1599               		.cfi_def_cfa_offset 138
 1600 0018 0FB6      		in __tmp_reg__,__SREG__
 1601 001a F894      		cli
 1602 001c DEBF      		out __SP_H__,r29
 1603 001e 0FBE      		out __SREG__,__tmp_reg__
 1604 0020 CDBF      		out __SP_L__,r28
 1605               	/* prologue: function */
 1606               	/* frame size = 128 */
 1607               	/* stack size = 136 */
 1608               	.L__stack_usage = 136
 1609 0022 6A01      		movw r12,r20
 1610 0024 F22E      		mov r15,r18
 647:C:\Users\Hexma\Documents\Arduino\hardware\SMART-Response-XE-Low_level-master\avr\libraries\SmartResponseXE\SmartResponseXE.cpp ****   byte bTemp[128];
 648:C:\Users\Hexma\Documents\Arduino\hardware\SMART-Response-XE-Low_level-master\avr\libraries\SmartResponseXE\SmartResponseXE.cpp **** 
GAS LISTING C:\Users\Hexma\AppData\Local\Temp\cc7G6F1c.s 			page 41


 649:C:\Users\Hexma\Documents\Arduino\hardware\SMART-Response-XE-Low_level-master\avr\libraries\SmartResponseXE\SmartResponseXE.cpp ****   SRXESetPosition(x * 3, y, length * 3, thickness);
 1611               		.loc 1 649 0
 1612 0026 440F      		lsl r20
 1613 0028 551F      		rol r21
 1614               	.LVL141:
 1615 002a 4C0D      		add r20,r12
 1616 002c 5D1D      		adc r21,r13
 1617 002e FC01      		movw r30,r24
 1618 0030 EE0F      		lsl r30
 1619 0032 FF1F      		rol r31
 1620 0034 9801      		movw r18,r16
 1621 0036 8E0F      		add r24,r30
 1622 0038 9F1F      		adc r25,r31
 1623               	.LVL142:
 1624 003a 0E94 0000 		call _Z15SRXESetPositioniiii
 1625               	.LVL143:
 650:C:\Users\Hexma\Documents\Arduino\hardware\SMART-Response-XE-Low_level-master\avr\libraries\SmartResponseXE\SmartResponseXE.cpp ****   memset(bTemp, bColorToByte[color], length);
 1626               		.loc 1 650 0
 1627 003e EF2D      		mov r30,r15
 1628 0040 F0E0      		ldi r31,0
 1629 0042 E050      		subi r30,lo8(-(_ZL12bColorToByte))
 1630 0044 F040      		sbci r31,hi8(-(_ZL12bColorToByte))
 1631 0046 6081      		ld r22,Z
 1632 0048 70E0      		ldi r23,0
 1633 004a A601      		movw r20,r12
 1634 004c CE01      		movw r24,r28
 1635 004e 0196      		adiw r24,1
 1636 0050 0E94 0000 		call memset
 1637               	.LVL144:
 1638               	.LBB26:
 651:C:\Users\Hexma\Documents\Arduino\hardware\SMART-Response-XE-Low_level-master\avr\libraries\SmartResponseXE\SmartResponseXE.cpp ****   for (int i = 0; i < thickness ; i++) {
 1639               		.loc 1 651 0
 1640 0054 F12C      		mov r15,__zero_reg__
 1641               	.LVL145:
 1642 0056 E12C      		mov r14,__zero_reg__
 1643               	.LVL146:
 1644               	.L65:
 1645               		.loc 1 651 0 is_stmt 0 discriminator 3
 1646 0058 E016      		cp r14,r16
 1647 005a F106      		cpc r15,r17
 1648 005c 04F4      		brge .L63
 652:C:\Users\Hexma\Documents\Arduino\hardware\SMART-Response-XE-Low_level-master\avr\libraries\SmartResponseXE\SmartResponseXE.cpp ****     SRXEWriteDataBlock(bTemp, length);
 1649               		.loc 1 652 0 is_stmt 1 discriminator 2
 1650 005e B601      		movw r22,r12
 1651 0060 CE01      		movw r24,r28
 1652 0062 0196      		adiw r24,1
 1653 0064 0E94 0000 		call _Z18SRXEWriteDataBlockPhi
 1654               	.LVL147:
 651:C:\Users\Hexma\Documents\Arduino\hardware\SMART-Response-XE-Low_level-master\avr\libraries\SmartResponseXE\SmartResponseXE.cpp ****   for (int i = 0; i < thickness ; i++) {
 1655               		.loc 1 651 0 discriminator 2
 1656 0068 8FEF      		ldi r24,-1
 1657 006a E81A      		sub r14,r24
 1658 006c F80A      		sbc r15,r24
 1659               	.LVL148:
 1660 006e 00C0      		rjmp .L65
 1661               	.L63:
 1662               	/* epilogue start */
GAS LISTING C:\Users\Hexma\AppData\Local\Temp\cc7G6F1c.s 			page 42


 1663               	.LBE26:
 653:C:\Users\Hexma\Documents\Arduino\hardware\SMART-Response-XE-Low_level-master\avr\libraries\SmartResponseXE\SmartResponseXE.cpp ****   }
 654:C:\Users\Hexma\Documents\Arduino\hardware\SMART-Response-XE-Low_level-master\avr\libraries\SmartResponseXE\SmartResponseXE.cpp **** 
 655:C:\Users\Hexma\Documents\Arduino\hardware\SMART-Response-XE-Low_level-master\avr\libraries\SmartResponseXE\SmartResponseXE.cpp **** 
 656:C:\Users\Hexma\Documents\Arduino\hardware\SMART-Response-XE-Low_level-master\avr\libraries\SmartResponseXE\SmartResponseXE.cpp **** }
 1664               		.loc 1 656 0
 1665 0070 C058      		subi r28,-128
 1666 0072 DF4F      		sbci r29,-1
 1667 0074 0FB6      		in __tmp_reg__,__SREG__
 1668 0076 F894      		cli
 1669 0078 DEBF      		out __SP_H__,r29
 1670 007a 0FBE      		out __SREG__,__tmp_reg__
 1671 007c CDBF      		out __SP_L__,r28
 1672 007e DF91      		pop r29
 1673 0080 CF91      		pop r28
 1674 0082 1F91      		pop r17
 1675 0084 0F91      		pop r16
 1676               	.LVL149:
 1677 0086 FF90      		pop r15
 1678 0088 EF90      		pop r14
 1679               	.LVL150:
 1680 008a DF90      		pop r13
 1681 008c CF90      		pop r12
 1682               	.LVL151:
 1683 008e 0895      		ret
 1684               		.cfi_endproc
 1685               	.LFE133:
 1687               		.section	.text._Z16SRXEVerticalLineiiih,"ax",@progbits
 1688               	.global	_Z16SRXEVerticalLineiiih
 1690               	_Z16SRXEVerticalLineiiih:
 1691               	.LFB134:
 657:C:\Users\Hexma\Documents\Arduino\hardware\SMART-Response-XE-Low_level-master\avr\libraries\SmartResponseXE\SmartResponseXE.cpp **** 
 658:C:\Users\Hexma\Documents\Arduino\hardware\SMART-Response-XE-Low_level-master\avr\libraries\SmartResponseXE\SmartResponseXE.cpp **** 
 659:C:\Users\Hexma\Documents\Arduino\hardware\SMART-Response-XE-Low_level-master\avr\libraries\SmartResponseXE\SmartResponseXE.cpp **** void SRXEVerticalLine(int x, int y, int height, byte color) {
 1692               		.loc 1 659 0
 1693               		.cfi_startproc
 1694               	.LVL152:
 1695 0000 EF92      		push r14
 1696               	.LCFI84:
 1697               		.cfi_def_cfa_offset 3
 1698               		.cfi_offset 14, -2
 1699 0002 FF92      		push r15
 1700               	.LCFI85:
 1701               		.cfi_def_cfa_offset 4
 1702               		.cfi_offset 15, -3
 1703 0004 1F93      		push r17
 1704               	.LCFI86:
 1705               		.cfi_def_cfa_offset 5
 1706               		.cfi_offset 17, -4
 1707 0006 CF93      		push r28
 1708               	.LCFI87:
 1709               		.cfi_def_cfa_offset 6
 1710               		.cfi_offset 28, -5
 1711 0008 DF93      		push r29
 1712               	.LCFI88:
 1713               		.cfi_def_cfa_offset 7
 1714               		.cfi_offset 29, -6
GAS LISTING C:\Users\Hexma\AppData\Local\Temp\cc7G6F1c.s 			page 43


 1715 000a CDB7      		in r28,__SP_L__
 1716 000c DEB7      		in r29,__SP_H__
 1717               	.LCFI89:
 1718               		.cfi_def_cfa_register 28
 1719 000e C858      		subi r28,-120
 1720 0010 D109      		sbc r29,__zero_reg__
 1721               	.LCFI90:
 1722               		.cfi_def_cfa_offset 143
 1723 0012 0FB6      		in __tmp_reg__,__SREG__
 1724 0014 F894      		cli
 1725 0016 DEBF      		out __SP_H__,r29
 1726 0018 0FBE      		out __SREG__,__tmp_reg__
 1727 001a CDBF      		out __SP_L__,r28
 1728               	/* prologue: function */
 1729               	/* frame size = 136 */
 1730               	/* stack size = 141 */
 1731               	.L__stack_usage = 141
 1732 001c 7A01      		movw r14,r20
 1733 001e 122F      		mov r17,r18
 660:C:\Users\Hexma\Documents\Arduino\hardware\SMART-Response-XE-Low_level-master\avr\libraries\SmartResponseXE\SmartResponseXE.cpp ****   byte bTemp[136];
 661:C:\Users\Hexma\Documents\Arduino\hardware\SMART-Response-XE-Low_level-master\avr\libraries\SmartResponseXE\SmartResponseXE.cpp **** 
 662:C:\Users\Hexma\Documents\Arduino\hardware\SMART-Response-XE-Low_level-master\avr\libraries\SmartResponseXE\SmartResponseXE.cpp ****   SRXESetPosition(x * 3, y, 1, height );
 1734               		.loc 1 662 0
 1735 0020 FC01      		movw r30,r24
 1736 0022 EE0F      		lsl r30
 1737 0024 FF1F      		rol r31
 1738               	.LVL153:
 1739 0026 9A01      		movw r18,r20
 1740 0028 41E0      		ldi r20,lo8(1)
 1741 002a 50E0      		ldi r21,0
 1742               	.LVL154:
 1743 002c 8E0F      		add r24,r30
 1744 002e 9F1F      		adc r25,r31
 1745               	.LVL155:
 1746 0030 0E94 0000 		call _Z15SRXESetPositioniiii
 1747               	.LVL156:
 663:C:\Users\Hexma\Documents\Arduino\hardware\SMART-Response-XE-Low_level-master\avr\libraries\SmartResponseXE\SmartResponseXE.cpp ****   memset(bTemp, bColorToByte[color], height);
 1748               		.loc 1 663 0
 1749 0034 E12F      		mov r30,r17
 1750 0036 F0E0      		ldi r31,0
 1751 0038 E050      		subi r30,lo8(-(_ZL12bColorToByte))
 1752 003a F040      		sbci r31,hi8(-(_ZL12bColorToByte))
 1753 003c 6081      		ld r22,Z
 1754 003e 70E0      		ldi r23,0
 1755 0040 A701      		movw r20,r14
 1756 0042 CE01      		movw r24,r28
 1757 0044 0196      		adiw r24,1
 1758 0046 0E94 0000 		call memset
 1759               	.LVL157:
 664:C:\Users\Hexma\Documents\Arduino\hardware\SMART-Response-XE-Low_level-master\avr\libraries\SmartResponseXE\SmartResponseXE.cpp ****   SRXEWriteDataBlock(bTemp, height);
 1760               		.loc 1 664 0
 1761 004a B701      		movw r22,r14
 1762 004c CE01      		movw r24,r28
 1763 004e 0196      		adiw r24,1
 1764 0050 0E94 0000 		call _Z18SRXEWriteDataBlockPhi
 1765               	.LVL158:
 1766               	/* epilogue start */
GAS LISTING C:\Users\Hexma\AppData\Local\Temp\cc7G6F1c.s 			page 44


 665:C:\Users\Hexma\Documents\Arduino\hardware\SMART-Response-XE-Low_level-master\avr\libraries\SmartResponseXE\SmartResponseXE.cpp **** }
 1767               		.loc 1 665 0
 1768 0054 C857      		subi r28,120
 1769 0056 DF4F      		sbci r29,-1
 1770 0058 0FB6      		in __tmp_reg__,__SREG__
 1771 005a F894      		cli
 1772 005c DEBF      		out __SP_H__,r29
 1773 005e 0FBE      		out __SREG__,__tmp_reg__
 1774 0060 CDBF      		out __SP_L__,r28
 1775 0062 DF91      		pop r29
 1776 0064 CF91      		pop r28
 1777 0066 1F91      		pop r17
 1778               	.LVL159:
 1779 0068 FF90      		pop r15
 1780 006a EF90      		pop r14
 1781               	.LVL160:
 1782 006c 0895      		ret
 1783               		.cfi_endproc
 1784               	.LFE134:
 1786               		.section	.text._Z13SRXERectangleiiiihh,"ax",@progbits
 1787               	.global	_Z13SRXERectangleiiiihh
 1789               	_Z13SRXERectangleiiiihh:
 1790               	.LFB135:
 666:C:\Users\Hexma\Documents\Arduino\hardware\SMART-Response-XE-Low_level-master\avr\libraries\SmartResponseXE\SmartResponseXE.cpp **** 
 667:C:\Users\Hexma\Documents\Arduino\hardware\SMART-Response-XE-Low_level-master\avr\libraries\SmartResponseXE\SmartResponseXE.cpp **** 
 668:C:\Users\Hexma\Documents\Arduino\hardware\SMART-Response-XE-Low_level-master\avr\libraries\SmartResponseXE\SmartResponseXE.cpp **** //
 669:C:\Users\Hexma\Documents\Arduino\hardware\SMART-Response-XE-Low_level-master\avr\libraries\SmartResponseXE\SmartResponseXE.cpp **** // Draw an outline or filled rectangle
 670:C:\Users\Hexma\Documents\Arduino\hardware\SMART-Response-XE-Low_level-master\avr\libraries\SmartResponseXE\SmartResponseXE.cpp **** // Only draws on byte boundaries (3 pixels wide)
 671:C:\Users\Hexma\Documents\Arduino\hardware\SMART-Response-XE-Low_level-master\avr\libraries\SmartResponseXE\SmartResponseXE.cpp **** // (display is treated as 128x136)
 672:C:\Users\Hexma\Documents\Arduino\hardware\SMART-Response-XE-Low_level-master\avr\libraries\SmartResponseXE\SmartResponseXE.cpp **** //
 673:C:\Users\Hexma\Documents\Arduino\hardware\SMART-Response-XE-Low_level-master\avr\libraries\SmartResponseXE\SmartResponseXE.cpp **** void SRXERectangle(int x, int y, int cx, int cy, byte color, byte bFilled)
 674:C:\Users\Hexma\Documents\Arduino\hardware\SMART-Response-XE-Low_level-master\avr\libraries\SmartResponseXE\SmartResponseXE.cpp **** {
 1791               		.loc 1 674 0
 1792               		.cfi_startproc
 1793               	.LVL161:
 1794 0000 2F92      		push r2
 1795               	.LCFI91:
 1796               		.cfi_def_cfa_offset 3
 1797               		.cfi_offset 2, -2
 1798 0002 3F92      		push r3
 1799               	.LCFI92:
 1800               		.cfi_def_cfa_offset 4
 1801               		.cfi_offset 3, -3
 1802 0004 4F92      		push r4
 1803               	.LCFI93:
 1804               		.cfi_def_cfa_offset 5
 1805               		.cfi_offset 4, -4
 1806 0006 5F92      		push r5
 1807               	.LCFI94:
 1808               		.cfi_def_cfa_offset 6
 1809               		.cfi_offset 5, -5
 1810 0008 6F92      		push r6
 1811               	.LCFI95:
 1812               		.cfi_def_cfa_offset 7
 1813               		.cfi_offset 6, -6
 1814 000a 7F92      		push r7
 1815               	.LCFI96:
GAS LISTING C:\Users\Hexma\AppData\Local\Temp\cc7G6F1c.s 			page 45


 1816               		.cfi_def_cfa_offset 8
 1817               		.cfi_offset 7, -7
 1818 000c 8F92      		push r8
 1819               	.LCFI97:
 1820               		.cfi_def_cfa_offset 9
 1821               		.cfi_offset 8, -8
 1822 000e 9F92      		push r9
 1823               	.LCFI98:
 1824               		.cfi_def_cfa_offset 10
 1825               		.cfi_offset 9, -9
 1826 0010 AF92      		push r10
 1827               	.LCFI99:
 1828               		.cfi_def_cfa_offset 11
 1829               		.cfi_offset 10, -10
 1830 0012 BF92      		push r11
 1831               	.LCFI100:
 1832               		.cfi_def_cfa_offset 12
 1833               		.cfi_offset 11, -11
 1834 0014 CF92      		push r12
 1835               	.LCFI101:
 1836               		.cfi_def_cfa_offset 13
 1837               		.cfi_offset 12, -12
 1838 0016 DF92      		push r13
 1839               	.LCFI102:
 1840               		.cfi_def_cfa_offset 14
 1841               		.cfi_offset 13, -13
 1842 0018 EF92      		push r14
 1843               	.LCFI103:
 1844               		.cfi_def_cfa_offset 15
 1845               		.cfi_offset 14, -14
 1846 001a FF92      		push r15
 1847               	.LCFI104:
 1848               		.cfi_def_cfa_offset 16
 1849               		.cfi_offset 15, -15
 1850 001c 0F93      		push r16
 1851               	.LCFI105:
 1852               		.cfi_def_cfa_offset 17
 1853               		.cfi_offset 16, -16
 1854 001e 1F93      		push r17
 1855               	.LCFI106:
 1856               		.cfi_def_cfa_offset 18
 1857               		.cfi_offset 17, -17
 1858 0020 CF93      		push r28
 1859               	.LCFI107:
 1860               		.cfi_def_cfa_offset 19
 1861               		.cfi_offset 28, -18
 1862 0022 DF93      		push r29
 1863               	.LCFI108:
 1864               		.cfi_def_cfa_offset 20
 1865               		.cfi_offset 29, -19
 1866 0024 CDB7      		in r28,__SP_L__
 1867 0026 DEB7      		in r29,__SP_H__
 1868               	.LCFI109:
 1869               		.cfi_def_cfa_register 28
 1870 0028 C058      		subi r28,-128
 1871 002a D109      		sbc r29,__zero_reg__
 1872               	.LCFI110:
GAS LISTING C:\Users\Hexma\AppData\Local\Temp\cc7G6F1c.s 			page 46


 1873               		.cfi_def_cfa_offset 148
 1874 002c 0FB6      		in __tmp_reg__,__SREG__
 1875 002e F894      		cli
 1876 0030 DEBF      		out __SP_H__,r29
 1877 0032 0FBE      		out __SREG__,__tmp_reg__
 1878 0034 CDBF      		out __SP_L__,r28
 1879               	/* prologue: function */
 1880               	/* frame size = 128 */
 1881               	/* stack size = 146 */
 1882               	.L__stack_usage = 146
 1883 0036 6901      		movw r12,r18
 1884 0038 3E2D      		mov r19,r14
 675:C:\Users\Hexma\Documents\Arduino\hardware\SMART-Response-XE-Low_level-master\avr\libraries\SmartResponseXE\SmartResponseXE.cpp ****   byte bTemp[128];
 676:C:\Users\Hexma\Documents\Arduino\hardware\SMART-Response-XE-Low_level-master\avr\libraries\SmartResponseXE\SmartResponseXE.cpp **** 
 677:C:\Users\Hexma\Documents\Arduino\hardware\SMART-Response-XE-Low_level-master\avr\libraries\SmartResponseXE\SmartResponseXE.cpp ****   if (x < 0 || x > 127 || y < 0 || y > 135) return;
 1885               		.loc 1 677 0
 1886 003a 8038      		cpi r24,-128
 1887 003c 9105      		cpc r25,__zero_reg__
 1888 003e 00F0      		brlo .+2
 1889 0040 00C0      		rjmp .L67
 1890               		.loc 1 677 0 is_stmt 0 discriminator 2
 1891 0042 6838      		cpi r22,-120
 1892 0044 7105      		cpc r23,__zero_reg__
 1893 0046 00F0      		brlo .+2
 1894 0048 00C0      		rjmp .L67
 678:C:\Users\Hexma\Documents\Arduino\hardware\SMART-Response-XE-Low_level-master\avr\libraries\SmartResponseXE\SmartResponseXE.cpp ****   if (x + cx > 127 || y + cy > 135) return;
 1895               		.loc 1 678 0 is_stmt 1
 1896 004a 7C01      		movw r14,r24
 1897               	.LVL162:
 1898 004c E40E      		add r14,r20
 1899 004e F51E      		adc r15,r21
 1900 0050 20E8      		ldi r18,-128
 1901 0052 E216      		cp r14,r18
 1902 0054 F104      		cpc r15,__zero_reg__
 1903               	.LVL163:
 1904 0056 04F0      		brlt .+2
 1905 0058 00C0      		rjmp .L67
 1906               		.loc 1 678 0 is_stmt 0 discriminator 1
 1907 005a 1B01      		movw r2,r22
 1908 005c 2C0C      		add r2,r12
 1909 005e 3D1C      		adc r3,r13
 1910 0060 E8E8      		ldi r30,-120
 1911 0062 2E16      		cp r2,r30
 1912 0064 3104      		cpc r3,__zero_reg__
 1913 0066 04F0      		brlt .+2
 1914 0068 00C0      		rjmp .L67
 1915 006a 5A01      		movw r10,r20
 1916 006c 4B01      		movw r8,r22
 1917 006e 2A01      		movw r4,r20
 1918 0070 440C      		lsl r4
 1919 0072 551C      		rol r5
 1920               	.LVL164:
 1921 0074 4A0C      		add r4,r10
 1922 0076 5B1C      		adc r5,r11
 1923 0078 3C01      		movw r6,r24
 1924 007a 660C      		lsl r6
 1925 007c 771C      		rol r7
GAS LISTING C:\Users\Hexma\AppData\Local\Temp\cc7G6F1c.s 			page 47


 1926 007e 680E      		add r6,r24
 1927 0080 791E      		adc r7,r25
 679:C:\Users\Hexma\Documents\Arduino\hardware\SMART-Response-XE-Low_level-master\avr\libraries\SmartResponseXE\SmartResponseXE.cpp ****   if (bFilled)
 1928               		.loc 1 679 0 is_stmt 1
 1929 0082 3323      		tst r19
 1930 0084 01F0      		breq .L69
 680:C:\Users\Hexma\Documents\Arduino\hardware\SMART-Response-XE-Low_level-master\avr\libraries\SmartResponseXE\SmartResponseXE.cpp ****   {
 681:C:\Users\Hexma\Documents\Arduino\hardware\SMART-Response-XE-Low_level-master\avr\libraries\SmartResponseXE\SmartResponseXE.cpp ****     SRXESetPosition(x * 3, y, cx * 3, cy);
 1931               		.loc 1 681 0
 1932 0086 9601      		movw r18,r12
 1933 0088 A201      		movw r20,r4
 1934 008a C301      		movw r24,r6
 1935               	.LVL165:
 1936 008c 0E94 0000 		call _Z15SRXESetPositioniiii
 1937               	.LVL166:
 682:C:\Users\Hexma\Documents\Arduino\hardware\SMART-Response-XE-Low_level-master\avr\libraries\SmartResponseXE\SmartResponseXE.cpp ****     for (y = 0; y < cy; y++)
 1938               		.loc 1 682 0
 1939 0090 F12C      		mov r15,__zero_reg__
 1940 0092 E12C      		mov r14,__zero_reg__
 683:C:\Users\Hexma\Documents\Arduino\hardware\SMART-Response-XE-Low_level-master\avr\libraries\SmartResponseXE\SmartResponseXE.cpp ****     {
 684:C:\Users\Hexma\Documents\Arduino\hardware\SMART-Response-XE-Low_level-master\avr\libraries\SmartResponseXE\SmartResponseXE.cpp ****       memset(bTemp, bColorToByte[color], cx);
 1941               		.loc 1 684 0
 1942 0094 10E0      		ldi r17,0
 1943 0096 0050      		subi r16,lo8(-(_ZL12bColorToByte))
 1944 0098 1040      		sbci r17,hi8(-(_ZL12bColorToByte))
 1945               	.LVL167:
 1946               	.L70:
 682:C:\Users\Hexma\Documents\Arduino\hardware\SMART-Response-XE-Low_level-master\avr\libraries\SmartResponseXE\SmartResponseXE.cpp ****     for (y = 0; y < cy; y++)
 1947               		.loc 1 682 0 discriminator 3
 1948 009a EC14      		cp r14,r12
 1949 009c FD04      		cpc r15,r13
 1950 009e 04F0      		brlt .+2
 1951 00a0 00C0      		rjmp .L67
 1952               		.loc 1 684 0 discriminator 2
 1953 00a2 F801      		movw r30,r16
 1954 00a4 6081      		ld r22,Z
 1955 00a6 70E0      		ldi r23,0
 1956 00a8 A501      		movw r20,r10
 1957 00aa CE01      		movw r24,r28
 1958 00ac 0196      		adiw r24,1
 1959 00ae 0E94 0000 		call memset
 1960               	.LVL168:
 685:C:\Users\Hexma\Documents\Arduino\hardware\SMART-Response-XE-Low_level-master\avr\libraries\SmartResponseXE\SmartResponseXE.cpp ****       SRXEWriteDataBlock(bTemp, cx);
 1961               		.loc 1 685 0 discriminator 2
 1962 00b2 B501      		movw r22,r10
 1963 00b4 CE01      		movw r24,r28
 1964 00b6 0196      		adiw r24,1
 1965 00b8 0E94 0000 		call _Z18SRXEWriteDataBlockPhi
 1966               	.LVL169:
 682:C:\Users\Hexma\Documents\Arduino\hardware\SMART-Response-XE-Low_level-master\avr\libraries\SmartResponseXE\SmartResponseXE.cpp ****     for (y = 0; y < cy; y++)
 1967               		.loc 1 682 0 discriminator 2
 1968 00bc FFEF      		ldi r31,-1
 1969 00be EF1A      		sub r14,r31
 1970 00c0 FF0A      		sbc r15,r31
 1971               	.LVL170:
 1972 00c2 00C0      		rjmp .L70
 1973               	.LVL171:
GAS LISTING C:\Users\Hexma\AppData\Local\Temp\cc7G6F1c.s 			page 48


 1974               	.L69:
 686:C:\Users\Hexma\Documents\Arduino\hardware\SMART-Response-XE-Low_level-master\avr\libraries\SmartResponseXE\SmartResponseXE.cpp ****     }
 687:C:\Users\Hexma\Documents\Arduino\hardware\SMART-Response-XE-Low_level-master\avr\libraries\SmartResponseXE\SmartResponseXE.cpp ****   } // filled
 688:C:\Users\Hexma\Documents\Arduino\hardware\SMART-Response-XE-Low_level-master\avr\libraries\SmartResponseXE\SmartResponseXE.cpp ****   else // outline
 689:C:\Users\Hexma\Documents\Arduino\hardware\SMART-Response-XE-Low_level-master\avr\libraries\SmartResponseXE\SmartResponseXE.cpp ****   {
 690:C:\Users\Hexma\Documents\Arduino\hardware\SMART-Response-XE-Low_level-master\avr\libraries\SmartResponseXE\SmartResponseXE.cpp ****     // Draw top part
 691:C:\Users\Hexma\Documents\Arduino\hardware\SMART-Response-XE-Low_level-master\avr\libraries\SmartResponseXE\SmartResponseXE.cpp ****     SRXESetPosition(x * 3, y, cx * 3, 1);
 1975               		.loc 1 691 0
 1976 00c4 21E0      		ldi r18,lo8(1)
 1977 00c6 30E0      		ldi r19,0
 1978 00c8 A201      		movw r20,r4
 1979 00ca C301      		movw r24,r6
 1980               	.LVL172:
 1981 00cc 0E94 0000 		call _Z15SRXESetPositioniiii
 1982               	.LVL173:
 692:C:\Users\Hexma\Documents\Arduino\hardware\SMART-Response-XE-Low_level-master\avr\libraries\SmartResponseXE\SmartResponseXE.cpp ****     memset(bTemp, bColorToByte[color], cx);
 1983               		.loc 1 692 0
 1984 00d0 E02F      		mov r30,r16
 1985 00d2 F0E0      		ldi r31,0
 1986 00d4 E050      		subi r30,lo8(-(_ZL12bColorToByte))
 1987 00d6 F040      		sbci r31,hi8(-(_ZL12bColorToByte))
 1988 00d8 0081      		ld r16,Z
 1989               	.LVL174:
 1990 00da 10E0      		ldi r17,0
 1991 00dc A501      		movw r20,r10
 1992 00de B801      		movw r22,r16
 1993 00e0 CE01      		movw r24,r28
 1994 00e2 0196      		adiw r24,1
 1995 00e4 0E94 0000 		call memset
 1996               	.LVL175:
 693:C:\Users\Hexma\Documents\Arduino\hardware\SMART-Response-XE-Low_level-master\avr\libraries\SmartResponseXE\SmartResponseXE.cpp ****     SRXEWriteDataBlock(bTemp, cx);
 1997               		.loc 1 693 0
 1998 00e8 B501      		movw r22,r10
 1999 00ea CE01      		movw r24,r28
 2000 00ec 0196      		adiw r24,1
 2001 00ee 0E94 0000 		call _Z18SRXEWriteDataBlockPhi
 2002               	.LVL176:
 694:C:\Users\Hexma\Documents\Arduino\hardware\SMART-Response-XE-Low_level-master\avr\libraries\SmartResponseXE\SmartResponseXE.cpp ****     // Bottom
 695:C:\Users\Hexma\Documents\Arduino\hardware\SMART-Response-XE-Low_level-master\avr\libraries\SmartResponseXE\SmartResponseXE.cpp ****     SRXESetPosition(x * 3, y + cy - 1, cx * 3, 1);
 2003               		.loc 1 695 0
 2004 00f2 B101      		movw r22,r2
 2005 00f4 6150      		subi r22,1
 2006 00f6 7109      		sbc r23,__zero_reg__
 2007 00f8 21E0      		ldi r18,lo8(1)
 2008 00fa 30E0      		ldi r19,0
 2009 00fc A201      		movw r20,r4
 2010 00fe C301      		movw r24,r6
 2011 0100 0E94 0000 		call _Z15SRXESetPositioniiii
 2012               	.LVL177:
 696:C:\Users\Hexma\Documents\Arduino\hardware\SMART-Response-XE-Low_level-master\avr\libraries\SmartResponseXE\SmartResponseXE.cpp ****     memset(bTemp, bColorToByte[color], cx);
 2013               		.loc 1 696 0
 2014 0104 A501      		movw r20,r10
 2015 0106 B801      		movw r22,r16
 2016 0108 CE01      		movw r24,r28
 2017 010a 0196      		adiw r24,1
 2018 010c 0E94 0000 		call memset
 2019               	.LVL178:
GAS LISTING C:\Users\Hexma\AppData\Local\Temp\cc7G6F1c.s 			page 49


 697:C:\Users\Hexma\Documents\Arduino\hardware\SMART-Response-XE-Low_level-master\avr\libraries\SmartResponseXE\SmartResponseXE.cpp ****     SRXEWriteDataBlock(bTemp, cx);
 2020               		.loc 1 697 0
 2021 0110 B501      		movw r22,r10
 2022 0112 CE01      		movw r24,r28
 2023 0114 0196      		adiw r24,1
 2024 0116 0E94 0000 		call _Z18SRXEWriteDataBlockPhi
 2025               	.LVL179:
 698:C:\Users\Hexma\Documents\Arduino\hardware\SMART-Response-XE-Low_level-master\avr\libraries\SmartResponseXE\SmartResponseXE.cpp ****     // Left
 699:C:\Users\Hexma\Documents\Arduino\hardware\SMART-Response-XE-Low_level-master\avr\libraries\SmartResponseXE\SmartResponseXE.cpp ****     SRXESetPosition(x * 3, y, 3, cy);
 2026               		.loc 1 699 0
 2027 011a 9601      		movw r18,r12
 2028 011c 43E0      		ldi r20,lo8(3)
 2029 011e 50E0      		ldi r21,0
 2030 0120 B401      		movw r22,r8
 2031 0122 C301      		movw r24,r6
 2032 0124 0E94 0000 		call _Z15SRXESetPositioniiii
 2033               	.LVL180:
 700:C:\Users\Hexma\Documents\Arduino\hardware\SMART-Response-XE-Low_level-master\avr\libraries\SmartResponseXE\SmartResponseXE.cpp ****     memset(bTemp, bColorToByte[color], cy);
 2034               		.loc 1 700 0
 2035 0128 A601      		movw r20,r12
 2036 012a B801      		movw r22,r16
 2037 012c CE01      		movw r24,r28
 2038 012e 0196      		adiw r24,1
 2039 0130 0E94 0000 		call memset
 2040               	.LVL181:
 701:C:\Users\Hexma\Documents\Arduino\hardware\SMART-Response-XE-Low_level-master\avr\libraries\SmartResponseXE\SmartResponseXE.cpp ****     SRXEWriteDataBlock(bTemp, cy);
 2041               		.loc 1 701 0
 2042 0134 B601      		movw r22,r12
 2043 0136 CE01      		movw r24,r28
 2044 0138 0196      		adiw r24,1
 2045 013a 0E94 0000 		call _Z18SRXEWriteDataBlockPhi
 2046               	.LVL182:
 702:C:\Users\Hexma\Documents\Arduino\hardware\SMART-Response-XE-Low_level-master\avr\libraries\SmartResponseXE\SmartResponseXE.cpp ****     // Right
 703:C:\Users\Hexma\Documents\Arduino\hardware\SMART-Response-XE-Low_level-master\avr\libraries\SmartResponseXE\SmartResponseXE.cpp ****     SRXESetPosition((x + cx - 1) * 3, y, 3, cy);
 2047               		.loc 1 703 0
 2048 013e 21E0      		ldi r18,1
 2049 0140 E21A      		sub r14,r18
 2050 0142 F108      		sbc r15,__zero_reg__
 2051 0144 C701      		movw r24,r14
 2052 0146 880F      		lsl r24
 2053 0148 991F      		rol r25
 2054 014a 9601      		movw r18,r12
 2055 014c 43E0      		ldi r20,lo8(3)
 2056 014e 50E0      		ldi r21,0
 2057 0150 B401      		movw r22,r8
 2058 0152 8E0D      		add r24,r14
 2059 0154 9F1D      		adc r25,r15
 2060 0156 0E94 0000 		call _Z15SRXESetPositioniiii
 2061               	.LVL183:
 704:C:\Users\Hexma\Documents\Arduino\hardware\SMART-Response-XE-Low_level-master\avr\libraries\SmartResponseXE\SmartResponseXE.cpp ****     memset(bTemp, bColorToByte[color], cy);
 2062               		.loc 1 704 0
 2063 015a A601      		movw r20,r12
 2064 015c B801      		movw r22,r16
 2065 015e CE01      		movw r24,r28
 2066 0160 0196      		adiw r24,1
 2067 0162 0E94 0000 		call memset
 2068               	.LVL184:
GAS LISTING C:\Users\Hexma\AppData\Local\Temp\cc7G6F1c.s 			page 50


 705:C:\Users\Hexma\Documents\Arduino\hardware\SMART-Response-XE-Low_level-master\avr\libraries\SmartResponseXE\SmartResponseXE.cpp ****     SRXEWriteDataBlock(bTemp, cy);
 2069               		.loc 1 705 0
 2070 0166 B601      		movw r22,r12
 2071 0168 CE01      		movw r24,r28
 2072 016a 0196      		adiw r24,1
 2073 016c 0E94 0000 		call _Z18SRXEWriteDataBlockPhi
 2074               	.LVL185:
 2075               	.L67:
 2076               	/* epilogue start */
 706:C:\Users\Hexma\Documents\Arduino\hardware\SMART-Response-XE-Low_level-master\avr\libraries\SmartResponseXE\SmartResponseXE.cpp ****   }
 707:C:\Users\Hexma\Documents\Arduino\hardware\SMART-Response-XE-Low_level-master\avr\libraries\SmartResponseXE\SmartResponseXE.cpp **** } /* SRXERectangle() */
 2077               		.loc 1 707 0
 2078 0170 C058      		subi r28,-128
 2079 0172 DF4F      		sbci r29,-1
 2080 0174 0FB6      		in __tmp_reg__,__SREG__
 2081 0176 F894      		cli
 2082 0178 DEBF      		out __SP_H__,r29
 2083 017a 0FBE      		out __SREG__,__tmp_reg__
 2084 017c CDBF      		out __SP_L__,r28
 2085 017e DF91      		pop r29
 2086 0180 CF91      		pop r28
 2087 0182 1F91      		pop r17
 2088 0184 0F91      		pop r16
 2089 0186 FF90      		pop r15
 2090 0188 EF90      		pop r14
 2091 018a DF90      		pop r13
 2092 018c CF90      		pop r12
 2093               	.LVL186:
 2094 018e BF90      		pop r11
 2095 0190 AF90      		pop r10
 2096 0192 9F90      		pop r9
 2097 0194 8F90      		pop r8
 2098 0196 7F90      		pop r7
 2099 0198 6F90      		pop r6
 2100 019a 5F90      		pop r5
 2101 019c 4F90      		pop r4
 2102 019e 3F90      		pop r3
 2103 01a0 2F90      		pop r2
 2104 01a2 0895      		ret
 2105               		.cfi_endproc
 2106               	.LFE135:
 2108               		.section	.text._Z15SRXEWriteStringiiPciii,"ax",@progbits
 2109               	.global	_Z15SRXEWriteStringiiPciii
 2111               	_Z15SRXEWriteStringiiPciii:
 2112               	.LFB136:
 708:C:\Users\Hexma\Documents\Arduino\hardware\SMART-Response-XE-Low_level-master\avr\libraries\SmartResponseXE\SmartResponseXE.cpp **** 
 709:C:\Users\Hexma\Documents\Arduino\hardware\SMART-Response-XE-Low_level-master\avr\libraries\SmartResponseXE\SmartResponseXE.cpp **** 
 710:C:\Users\Hexma\Documents\Arduino\hardware\SMART-Response-XE-Low_level-master\avr\libraries\SmartResponseXE\SmartResponseXE.cpp **** //
 711:C:\Users\Hexma\Documents\Arduino\hardware\SMART-Response-XE-Low_level-master\avr\libraries\SmartResponseXE\SmartResponseXE.cpp **** // Draw a string of normal (8x8), small (6x8) or large (16x24) characters
 712:C:\Users\Hexma\Documents\Arduino\hardware\SMART-Response-XE-Low_level-master\avr\libraries\SmartResponseXE\SmartResponseXE.cpp **** // At the given col+row
 713:C:\Users\Hexma\Documents\Arduino\hardware\SMART-Response-XE-Low_level-master\avr\libraries\SmartResponseXE\SmartResponseXE.cpp **** //
 714:C:\Users\Hexma\Documents\Arduino\hardware\SMART-Response-XE-Low_level-master\avr\libraries\SmartResponseXE\SmartResponseXE.cpp **** int SRXEWriteString(int x, int y, char *szMsg, int iSize, int iFGColor, int iBGColor)
 715:C:\Users\Hexma\Documents\Arduino\hardware\SMART-Response-XE-Low_level-master\avr\libraries\SmartResponseXE\SmartResponseXE.cpp **** {
 2113               		.loc 1 715 0
 2114               		.cfi_startproc
 2115               	.LVL187:
 2116 0000 2F92      		push r2
GAS LISTING C:\Users\Hexma\AppData\Local\Temp\cc7G6F1c.s 			page 51


 2117               	.LCFI111:
 2118               		.cfi_def_cfa_offset 3
 2119               		.cfi_offset 2, -2
 2120 0002 3F92      		push r3
 2121               	.LCFI112:
 2122               		.cfi_def_cfa_offset 4
 2123               		.cfi_offset 3, -3
 2124 0004 4F92      		push r4
 2125               	.LCFI113:
 2126               		.cfi_def_cfa_offset 5
 2127               		.cfi_offset 4, -4
 2128 0006 5F92      		push r5
 2129               	.LCFI114:
 2130               		.cfi_def_cfa_offset 6
 2131               		.cfi_offset 5, -5
 2132 0008 6F92      		push r6
 2133               	.LCFI115:
 2134               		.cfi_def_cfa_offset 7
 2135               		.cfi_offset 6, -6
 2136 000a 7F92      		push r7
 2137               	.LCFI116:
 2138               		.cfi_def_cfa_offset 8
 2139               		.cfi_offset 7, -7
 2140 000c 8F92      		push r8
 2141               	.LCFI117:
 2142               		.cfi_def_cfa_offset 9
 2143               		.cfi_offset 8, -8
 2144 000e 9F92      		push r9
 2145               	.LCFI118:
 2146               		.cfi_def_cfa_offset 10
 2147               		.cfi_offset 9, -9
 2148 0010 AF92      		push r10
 2149               	.LCFI119:
 2150               		.cfi_def_cfa_offset 11
 2151               		.cfi_offset 10, -10
 2152 0012 BF92      		push r11
 2153               	.LCFI120:
 2154               		.cfi_def_cfa_offset 12
 2155               		.cfi_offset 11, -11
 2156 0014 CF92      		push r12
 2157               	.LCFI121:
 2158               		.cfi_def_cfa_offset 13
 2159               		.cfi_offset 12, -12
 2160 0016 DF92      		push r13
 2161               	.LCFI122:
 2162               		.cfi_def_cfa_offset 14
 2163               		.cfi_offset 13, -13
 2164 0018 EF92      		push r14
 2165               	.LCFI123:
 2166               		.cfi_def_cfa_offset 15
 2167               		.cfi_offset 14, -14
 2168 001a FF92      		push r15
 2169               	.LCFI124:
 2170               		.cfi_def_cfa_offset 16
 2171               		.cfi_offset 15, -15
 2172 001c 0F93      		push r16
 2173               	.LCFI125:
GAS LISTING C:\Users\Hexma\AppData\Local\Temp\cc7G6F1c.s 			page 52


 2174               		.cfi_def_cfa_offset 17
 2175               		.cfi_offset 16, -16
 2176 001e 1F93      		push r17
 2177               	.LCFI126:
 2178               		.cfi_def_cfa_offset 18
 2179               		.cfi_offset 17, -17
 2180 0020 CF93      		push r28
 2181               	.LCFI127:
 2182               		.cfi_def_cfa_offset 19
 2183               		.cfi_offset 28, -18
 2184 0022 DF93      		push r29
 2185               	.LCFI128:
 2186               		.cfi_def_cfa_offset 20
 2187               		.cfi_offset 29, -19
 2188 0024 CDB7      		in r28,__SP_L__
 2189 0026 DEB7      		in r29,__SP_H__
 2190               	.LCFI129:
 2191               		.cfi_def_cfa_register 28
 2192 0028 CD56      		subi r28,109
 2193 002a D109      		sbc r29,__zero_reg__
 2194               	.LCFI130:
 2195               		.cfi_def_cfa_offset 129
 2196 002c 0FB6      		in __tmp_reg__,__SREG__
 2197 002e F894      		cli
 2198 0030 DEBF      		out __SP_H__,r29
 2199 0032 0FBE      		out __SREG__,__tmp_reg__
 2200 0034 CDBF      		out __SP_L__,r28
 2201               	/* prologue: function */
 2202               	/* frame size = 109 */
 2203               	/* stack size = 127 */
 2204               	.L__stack_usage = 127
 2205 0036 4C01      		movw r8,r24
 2206 0038 A396      		adiw r28,97-62
 2207 003a 7FAF      		std Y+63,r23
 2208 003c 6EAF      		std Y+62,r22
 2209 003e A397      		sbiw r28,97-62
 2210 0040 1A01      		movw r2,r20
 2211 0042 6901      		movw r12,r18
 2212 0044 F701      		movw r30,r14
 2213               	.LVL188:
 2214 0046 E430      		cpi r30,4
 2215 0048 F105      		cpc r31,__zero_reg__
 2216 004a 04F0      		brlt .L73
 2217 004c E3E0      		ldi r30,lo8(3)
 2218 004e F0E0      		ldi r31,0
 2219               	.L73:
 2220               	.LVL189:
 716:C:\Users\Hexma\Documents\Arduino\hardware\SMART-Response-XE-Low_level-master\avr\libraries\SmartResponseXE\SmartResponseXE.cpp ****   int i, j, iLen;
 717:C:\Users\Hexma\Documents\Arduino\hardware\SMART-Response-XE-Low_level-master\avr\libraries\SmartResponseXE\SmartResponseXE.cpp ****   unsigned char ucTemp[8], *s;
 718:C:\Users\Hexma\Documents\Arduino\hardware\SMART-Response-XE-Low_level-master\avr\libraries\SmartResponseXE\SmartResponseXE.cpp ****   byte fgColor0, fgColor1, fgColor2, bgColor;
 719:C:\Users\Hexma\Documents\Arduino\hardware\SMART-Response-XE-Low_level-master\avr\libraries\SmartResponseXE\SmartResponseXE.cpp **** 
 720:C:\Users\Hexma\Documents\Arduino\hardware\SMART-Response-XE-Low_level-master\avr\libraries\SmartResponseXE\SmartResponseXE.cpp ****   if (iFGColor > 3) iFGColor = 3;
 721:C:\Users\Hexma\Documents\Arduino\hardware\SMART-Response-XE-Low_level-master\avr\libraries\SmartResponseXE\SmartResponseXE.cpp ****   if (iBGColor > 3) iBGColor = 3;
 722:C:\Users\Hexma\Documents\Arduino\hardware\SMART-Response-XE-Low_level-master\avr\libraries\SmartResponseXE\SmartResponseXE.cpp ****   if (iFGColor == 3)
 2221               		.loc 1 722 0
 2222 0050 0330      		cpi r16,3
 2223 0052 1105      		cpc r17,__zero_reg__
GAS LISTING C:\Users\Hexma\AppData\Local\Temp\cc7G6F1c.s 			page 53


 2224 0054 04F0      		brlt .+2
 2225 0056 00C0      		rjmp .L108
 723:C:\Users\Hexma\Documents\Arduino\hardware\SMART-Response-XE-Low_level-master\avr\libraries\SmartResponseXE\SmartResponseXE.cpp ****   {
 724:C:\Users\Hexma\Documents\Arduino\hardware\SMART-Response-XE-Low_level-master\avr\libraries\SmartResponseXE\SmartResponseXE.cpp ****     fgColor0 = 0xe0; fgColor1 = 0x1c; fgColor2 = 0x3;
 725:C:\Users\Hexma\Documents\Arduino\hardware\SMART-Response-XE-Low_level-master\avr\libraries\SmartResponseXE\SmartResponseXE.cpp ****   }
 726:C:\Users\Hexma\Documents\Arduino\hardware\SMART-Response-XE-Low_level-master\avr\libraries\SmartResponseXE\SmartResponseXE.cpp ****   else
 727:C:\Users\Hexma\Documents\Arduino\hardware\SMART-Response-XE-Low_level-master\avr\libraries\SmartResponseXE\SmartResponseXE.cpp ****   {
 728:C:\Users\Hexma\Documents\Arduino\hardware\SMART-Response-XE-Low_level-master\avr\libraries\SmartResponseXE\SmartResponseXE.cpp ****     fgColor0 = (byte)iFGColor << 6; // first pixel 3-bit version of the color
 2226               		.loc 1 728 0
 2227 0058 702E      		mov r7,r16
 2228 005a 102F      		mov r17,r16
 2229 005c 1295      		swap r17
 2230 005e 110F      		lsl r17
 2231 0060 110F      		lsl r17
 2232 0062 107C      		andi r17,lo8(-64)
 2233               	.LVL190:
 729:C:\Users\Hexma\Documents\Arduino\hardware\SMART-Response-XE-Low_level-master\avr\libraries\SmartResponseXE\SmartResponseXE.cpp ****     fgColor1 = (byte)iFGColor << 3; // second pixel
 2234               		.loc 1 729 0
 2235 0064 000F      		lsl r16
 2236 0066 000F      		lsl r16
 2237 0068 000F      		lsl r16
 2238               	.LVL191:
 2239               	.L74:
 730:C:\Users\Hexma\Documents\Arduino\hardware\SMART-Response-XE-Low_level-master\avr\libraries\SmartResponseXE\SmartResponseXE.cpp ****     fgColor2 = (byte)iFGColor;      // 3rd pixel
 731:C:\Users\Hexma\Documents\Arduino\hardware\SMART-Response-XE-Low_level-master\avr\libraries\SmartResponseXE\SmartResponseXE.cpp ****   }
 732:C:\Users\Hexma\Documents\Arduino\hardware\SMART-Response-XE-Low_level-master\avr\libraries\SmartResponseXE\SmartResponseXE.cpp ****   bgColor = bColorToByte[iBGColor];
 2240               		.loc 1 732 0
 2241 006a E050      		subi r30,lo8(-(_ZL12bColorToByte))
 2242 006c F040      		sbci r31,hi8(-(_ZL12bColorToByte))
 2243               	.LVL192:
 2244 006e A080      		ld r10,Z
 2245               	.LVL193:
 733:C:\Users\Hexma\Documents\Arduino\hardware\SMART-Response-XE-Low_level-master\avr\libraries\SmartResponseXE\SmartResponseXE.cpp **** 
 734:C:\Users\Hexma\Documents\Arduino\hardware\SMART-Response-XE-Low_level-master\avr\libraries\SmartResponseXE\SmartResponseXE.cpp ****   iLen = strlen(szMsg);
 2246               		.loc 1 734 0
 2247 0070 D101      		movw r26,r2
 2248               		0:
 2249 0072 0D90      		ld __tmp_reg__,X+
 2250 0074 0020      		tst __tmp_reg__
 2251 0076 01F4      		brne 0b
 2252 0078 CD01      		movw r24,r26
 2253               	.LVL194:
 2254 007a 0197      		sbiw r24,1
 2255 007c 8219      		sub r24,r2
 2256 007e 9309      		sbc r25,r3
 2257 0080 2C01      		movw r4,r24
 2258               	.LVL195:
 2259               	.LBB27:
 735:C:\Users\Hexma\Documents\Arduino\hardware\SMART-Response-XE-Low_level-master\avr\libraries\SmartResponseXE\SmartResponseXE.cpp ****   if (iSize == FONT_LARGE || iSize == FONT_MEDIUM) // draw 12x16 or 15x16 font
 2260               		.loc 1 735 0
 2261 0082 9601      		movw r18,r12
 2262               	.LVL196:
 2263 0084 2250      		subi r18,2
 2264 0086 3109      		sbc r19,__zero_reg__
 2265 0088 2230      		cpi r18,2
 2266 008a 3105      		cpc r19,__zero_reg__
 2267 008c 00F0      		brlo .+2
GAS LISTING C:\Users\Hexma\AppData\Local\Temp\cc7G6F1c.s 			page 54


 2268 008e 00C0      		rjmp .L75
 2269               	.LBB28:
 736:C:\Users\Hexma\Documents\Arduino\hardware\SMART-Response-XE-Low_level-master\avr\libraries\SmartResponseXE\SmartResponseXE.cpp ****   {
 737:C:\Users\Hexma\Documents\Arduino\hardware\SMART-Response-XE-Low_level-master\avr\libraries\SmartResponseXE\SmartResponseXE.cpp ****     int iWidth, iDelta;
 738:C:\Users\Hexma\Documents\Arduino\hardware\SMART-Response-XE-Low_level-master\avr\libraries\SmartResponseXE\SmartResponseXE.cpp ****     iWidth = (iSize == FONT_LARGE) ? 15 : 12;
 2270               		.loc 1 738 0
 2271 0090 B3E0      		ldi r27,3
 2272 0092 CB16      		cp r12,r27
 2273 0094 D104      		cpc r13,__zero_reg__
 2274 0096 01F4      		brne .+2
 2275 0098 00C0      		rjmp .L109
 2276 009a 5CE0      		ldi r21,lo8(12)
 2277 009c E52E      		mov r14,r21
 2278 009e F12C      		mov r15,__zero_reg__
 739:C:\Users\Hexma\Documents\Arduino\hardware\SMART-Response-XE-Low_level-master\avr\libraries\SmartResponseXE\SmartResponseXE.cpp ****     iDelta = (iSize == FONT_LARGE) ? 5 : 4;
 2279               		.loc 1 739 0
 2280 00a0 E4E0      		ldi r30,lo8(4)
 2281 00a2 F0E0      		ldi r31,0
 2282               	.LVL197:
 2283 00a4 A196      		adiw r28,95-62
 2284 00a6 FFAF      		std Y+63,r31
 2285 00a8 EEAF      		std Y+62,r30
 2286 00aa A197      		sbiw r28,95-62
 2287               	.LVL198:
 2288               	.L76:
 740:C:\Users\Hexma\Documents\Arduino\hardware\SMART-Response-XE-Low_level-master\avr\libraries\SmartResponseXE\SmartResponseXE.cpp ****     if ((iWidth * iLen) + x > 384) iLen = (384 - x) / iWidth; // can't display it all
 2289               		.loc 1 740 0 discriminator 4
 2290 00ac 8E9D      		mul r24,r14
 2291 00ae 9001      		movw r18,r0
 2292 00b0 8F9D      		mul r24,r15
 2293 00b2 300D      		add r19,r0
 2294 00b4 9E9D      		mul r25,r14
 2295 00b6 300D      		add r19,r0
 2296 00b8 1124      		clr r1
 2297 00ba 280D      		add r18,r8
 2298 00bc 391D      		adc r19,r9
 2299 00be 2138      		cpi r18,-127
 2300 00c0 3140      		sbci r19,1
 2301 00c2 04F0      		brlt .L77
 2302               		.loc 1 740 0 is_stmt 0 discriminator 1
 2303 00c4 80E8      		ldi r24,lo8(-128)
 2304 00c6 91E0      		ldi r25,lo8(1)
 2305 00c8 8819      		sub r24,r8
 2306 00ca 9909      		sbc r25,r9
 2307 00cc B701      		movw r22,r14
 2308 00ce 0E94 0000 		call __divmodhi4
 2309 00d2 2B01      		movw r4,r22
 2310               	.LVL199:
 741:C:\Users\Hexma\Documents\Arduino\hardware\SMART-Response-XE-Low_level-master\avr\libraries\SmartResponseXE\SmartResponseXE.cpp ****     if (iLen < 0)return -1;
 2311               		.loc 1 741 0 is_stmt 1 discriminator 1
 2312 00d4 77FD      		sbrc r23,7
 2313 00d6 00C0      		rjmp .L115
 2314               	.LVL200:
 2315               	.L77:
 2316               	.LBB29:
 2317               	.LBB30:
 742:C:\Users\Hexma\Documents\Arduino\hardware\SMART-Response-XE-Low_level-master\avr\libraries\SmartResponseXE\SmartResponseXE.cpp ****     for (i = 0; i < iLen; i++)
GAS LISTING C:\Users\Hexma\AppData\Local\Temp\cc7G6F1c.s 			page 55


 743:C:\Users\Hexma\Documents\Arduino\hardware\SMART-Response-XE-Low_level-master\avr\libraries\SmartResponseXE\SmartResponseXE.cpp ****     {
 744:C:\Users\Hexma\Documents\Arduino\hardware\SMART-Response-XE-Low_level-master\avr\libraries\SmartResponseXE\SmartResponseXE.cpp ****       int tx, ty;
 745:C:\Users\Hexma\Documents\Arduino\hardware\SMART-Response-XE-Low_level-master\avr\libraries\SmartResponseXE\SmartResponseXE.cpp ****       byte bTemp[84], bMask, bOut, bOut2, *d;
 746:C:\Users\Hexma\Documents\Arduino\hardware\SMART-Response-XE-Low_level-master\avr\libraries\SmartResponseXE\SmartResponseXE.cpp ****       if (iSize == FONT_LARGE)
 747:C:\Users\Hexma\Documents\Arduino\hardware\SMART-Response-XE-Low_level-master\avr\libraries\SmartResponseXE\SmartResponseXE.cpp ****       {
 748:C:\Users\Hexma\Documents\Arduino\hardware\SMART-Response-XE-Low_level-master\avr\libraries\SmartResponseXE\SmartResponseXE.cpp ****         s = (unsigned char *)&ucFont[((unsigned char)szMsg[i] - 32) * 8];
 749:C:\Users\Hexma\Documents\Arduino\hardware\SMART-Response-XE-Low_level-master\avr\libraries\SmartResponseXE\SmartResponseXE.cpp ****         memcpy_P(ucTemp, s, 8); // copy from FLASH memory
 750:C:\Users\Hexma\Documents\Arduino\hardware\SMART-Response-XE-Low_level-master\avr\libraries\SmartResponseXE\SmartResponseXE.cpp ****       }
 751:C:\Users\Hexma\Documents\Arduino\hardware\SMART-Response-XE-Low_level-master\avr\libraries\SmartResponseXE\SmartResponseXE.cpp ****       else
 752:C:\Users\Hexma\Documents\Arduino\hardware\SMART-Response-XE-Low_level-master\avr\libraries\SmartResponseXE\SmartResponseXE.cpp ****       {
 753:C:\Users\Hexma\Documents\Arduino\hardware\SMART-Response-XE-Low_level-master\avr\libraries\SmartResponseXE\SmartResponseXE.cpp ****         s = (unsigned char *)&ucSmallFont[((unsigned char)szMsg[i] - 32) * 6];
 754:C:\Users\Hexma\Documents\Arduino\hardware\SMART-Response-XE-Low_level-master\avr\libraries\SmartResponseXE\SmartResponseXE.cpp ****         memcpy_P(ucTemp, s, 6);
 755:C:\Users\Hexma\Documents\Arduino\hardware\SMART-Response-XE-Low_level-master\avr\libraries\SmartResponseXE\SmartResponseXE.cpp ****       }
 756:C:\Users\Hexma\Documents\Arduino\hardware\SMART-Response-XE-Low_level-master\avr\libraries\SmartResponseXE\SmartResponseXE.cpp ****       // convert from 1-bpp to 2/3-bpp
 757:C:\Users\Hexma\Documents\Arduino\hardware\SMART-Response-XE-Low_level-master\avr\libraries\SmartResponseXE\SmartResponseXE.cpp ****       d = bTemp;
 758:C:\Users\Hexma\Documents\Arduino\hardware\SMART-Response-XE-Low_level-master\avr\libraries\SmartResponseXE\SmartResponseXE.cpp ****       s = ucTemp;
 759:C:\Users\Hexma\Documents\Arduino\hardware\SMART-Response-XE-Low_level-master\avr\libraries\SmartResponseXE\SmartResponseXE.cpp ****       bMask = 1;
 760:C:\Users\Hexma\Documents\Arduino\hardware\SMART-Response-XE-Low_level-master\avr\libraries\SmartResponseXE\SmartResponseXE.cpp ****       for (ty = 0; ty < 8; ty++)
 761:C:\Users\Hexma\Documents\Arduino\hardware\SMART-Response-XE-Low_level-master\avr\libraries\SmartResponseXE\SmartResponseXE.cpp ****       {
 762:C:\Users\Hexma\Documents\Arduino\hardware\SMART-Response-XE-Low_level-master\avr\libraries\SmartResponseXE\SmartResponseXE.cpp ****         for (tx = 0; tx < iWidth - 6; tx += 3) // 3 sets of 3 pixels
 763:C:\Users\Hexma\Documents\Arduino\hardware\SMART-Response-XE-Low_level-master\avr\libraries\SmartResponseXE\SmartResponseXE.cpp ****         {
 764:C:\Users\Hexma\Documents\Arduino\hardware\SMART-Response-XE-Low_level-master\avr\libraries\SmartResponseXE\SmartResponseXE.cpp ****           bOut = bOut2 = bgColor;
 765:C:\Users\Hexma\Documents\Arduino\hardware\SMART-Response-XE-Low_level-master\avr\libraries\SmartResponseXE\SmartResponseXE.cpp ****           if (s[tx] & bMask)
 766:C:\Users\Hexma\Documents\Arduino\hardware\SMART-Response-XE-Low_level-master\avr\libraries\SmartResponseXE\SmartResponseXE.cpp ****           {
 767:C:\Users\Hexma\Documents\Arduino\hardware\SMART-Response-XE-Low_level-master\avr\libraries\SmartResponseXE\SmartResponseXE.cpp ****             bOut &= 0x3; // clear top 6 bits
 768:C:\Users\Hexma\Documents\Arduino\hardware\SMART-Response-XE-Low_level-master\avr\libraries\SmartResponseXE\SmartResponseXE.cpp ****             bOut |= fgColor0 | fgColor1; // first 2 pixels (6 bits)
 769:C:\Users\Hexma\Documents\Arduino\hardware\SMART-Response-XE-Low_level-master\avr\libraries\SmartResponseXE\SmartResponseXE.cpp ****           }
 770:C:\Users\Hexma\Documents\Arduino\hardware\SMART-Response-XE-Low_level-master\avr\libraries\SmartResponseXE\SmartResponseXE.cpp ****           if (s[tx + 1] & bMask)
 771:C:\Users\Hexma\Documents\Arduino\hardware\SMART-Response-XE-Low_level-master\avr\libraries\SmartResponseXE\SmartResponseXE.cpp ****           {
 772:C:\Users\Hexma\Documents\Arduino\hardware\SMART-Response-XE-Low_level-master\avr\libraries\SmartResponseXE\SmartResponseXE.cpp ****             bOut &= 0xfc; // clear bottom 2 bits
 773:C:\Users\Hexma\Documents\Arduino\hardware\SMART-Response-XE-Low_level-master\avr\libraries\SmartResponseXE\SmartResponseXE.cpp ****             bOut2 &= 0x1f; // clear top 3 bits
 774:C:\Users\Hexma\Documents\Arduino\hardware\SMART-Response-XE-Low_level-master\avr\libraries\SmartResponseXE\SmartResponseXE.cpp ****             bOut |= fgColor2; // third pixel (2 bits)
 775:C:\Users\Hexma\Documents\Arduino\hardware\SMART-Response-XE-Low_level-master\avr\libraries\SmartResponseXE\SmartResponseXE.cpp ****             bOut2 |= fgColor0;
 776:C:\Users\Hexma\Documents\Arduino\hardware\SMART-Response-XE-Low_level-master\avr\libraries\SmartResponseXE\SmartResponseXE.cpp ****           }
 777:C:\Users\Hexma\Documents\Arduino\hardware\SMART-Response-XE-Low_level-master\avr\libraries\SmartResponseXE\SmartResponseXE.cpp ****           if (s[tx + 2] & bMask)
 778:C:\Users\Hexma\Documents\Arduino\hardware\SMART-Response-XE-Low_level-master\avr\libraries\SmartResponseXE\SmartResponseXE.cpp ****           {
 779:C:\Users\Hexma\Documents\Arduino\hardware\SMART-Response-XE-Low_level-master\avr\libraries\SmartResponseXE\SmartResponseXE.cpp ****             bOut2 &= 0xe0; // clear lower 5 bits
 780:C:\Users\Hexma\Documents\Arduino\hardware\SMART-Response-XE-Low_level-master\avr\libraries\SmartResponseXE\SmartResponseXE.cpp ****             bOut2 |= fgColor1 | fgColor2; // 2nd & 3rd pixel2 of second byte
 781:C:\Users\Hexma\Documents\Arduino\hardware\SMART-Response-XE-Low_level-master\avr\libraries\SmartResponseXE\SmartResponseXE.cpp ****           }
 782:C:\Users\Hexma\Documents\Arduino\hardware\SMART-Response-XE-Low_level-master\avr\libraries\SmartResponseXE\SmartResponseXE.cpp ****           d[0] = d[iDelta] = bOut;
 783:C:\Users\Hexma\Documents\Arduino\hardware\SMART-Response-XE-Low_level-master\avr\libraries\SmartResponseXE\SmartResponseXE.cpp ****           if (tx != 6)
 784:C:\Users\Hexma\Documents\Arduino\hardware\SMART-Response-XE-Low_level-master\avr\libraries\SmartResponseXE\SmartResponseXE.cpp ****             d[1] = d[iDelta + 1] = bOut2;
 785:C:\Users\Hexma\Documents\Arduino\hardware\SMART-Response-XE-Low_level-master\avr\libraries\SmartResponseXE\SmartResponseXE.cpp ****           d += 2;
 786:C:\Users\Hexma\Documents\Arduino\hardware\SMART-Response-XE-Low_level-master\avr\libraries\SmartResponseXE\SmartResponseXE.cpp ****         } // for tx
 787:C:\Users\Hexma\Documents\Arduino\hardware\SMART-Response-XE-Low_level-master\avr\libraries\SmartResponseXE\SmartResponseXE.cpp ****         d += 4; // skip extra line (add 4 since we incremented by 6 already)
 788:C:\Users\Hexma\Documents\Arduino\hardware\SMART-Response-XE-Low_level-master\avr\libraries\SmartResponseXE\SmartResponseXE.cpp ****         bMask <<= 1;
 789:C:\Users\Hexma\Documents\Arduino\hardware\SMART-Response-XE-Low_level-master\avr\libraries\SmartResponseXE\SmartResponseXE.cpp ****       } // for ty
 790:C:\Users\Hexma\Documents\Arduino\hardware\SMART-Response-XE-Low_level-master\avr\libraries\SmartResponseXE\SmartResponseXE.cpp ****       SRXESetPosition(x, y, iWidth, 16);
 791:C:\Users\Hexma\Documents\Arduino\hardware\SMART-Response-XE-Low_level-master\avr\libraries\SmartResponseXE\SmartResponseXE.cpp ****       SRXEWriteDataBlock(bTemp, 16 * iDelta); // write character pattern
 2318               		.loc 1 791 0 discriminator 1
 2319 00d8 A196      		adiw r28,95-62
 2320 00da AEAD      		ldd r26,Y+62
 2321 00dc BFAD      		ldd r27,Y+63
 2322 00de A197      		sbiw r28,95-62
 2323 00e0 24E0      		ldi r18,4
 2324               		1:
 2325 00e2 AA0F      		lsl r26
GAS LISTING C:\Users\Hexma\AppData\Local\Temp\cc7G6F1c.s 			page 56


 2326 00e4 BB1F      		rol r27
 2327 00e6 2A95      		dec r18
 2328 00e8 01F4      		brne 1b
 2329 00ea A796      		adiw r28,101-62
 2330 00ec BFAF      		std Y+63,r27
 2331 00ee AEAF      		std Y+62,r26
 2332 00f0 A797      		sbiw r28,101-62
 2333 00f2 C701      		movw r24,r14
 2334 00f4 0497      		sbiw r24,4
 2335 00f6 63E0      		ldi r22,lo8(3)
 2336 00f8 70E0      		ldi r23,0
 2337 00fa 0E94 0000 		call __udivmodhi4
 2338 00fe 6E5F      		subi r22,-2
 2339 0100 7F4F      		sbci r23,-1
 2340 0102 FB01      		movw r30,r22
 2341 0104 EE0F      		lsl r30
 2342 0106 FF1F      		rol r31
 2343 0108 A996      		adiw r28,103-62
 2344 010a FFAF      		std Y+63,r31
 2345 010c EEAF      		std Y+62,r30
 2346 010e A997      		sbiw r28,103-62
 2347 0110 6F96      		adiw r28,93-62
 2348 0112 3FAE      		std Y+63,r3
 2349 0114 2EAE      		std Y+62,r2
 2350 0116 6F97      		sbiw r28,93-62
 768:C:\Users\Hexma\Documents\Arduino\hardware\SMART-Response-XE-Low_level-master\avr\libraries\SmartResponseXE\SmartResponseXE.cpp ****           }
 2351               		.loc 1 768 0 discriminator 1
 2352 0118 912F      		mov r25,r17
 2353 011a 902B      		or r25,r16
 2354 011c 8A2D      		mov r24,r10
 2355 011e 8370      		andi r24,lo8(3)
 2356 0120 982B      		or r25,r24
 2357 0122 AA96      		adiw r28,105-63
 2358 0124 9FAF      		std Y+63,r25
 2359 0126 AA97      		sbiw r28,105-63
 773:C:\Users\Hexma\Documents\Arduino\hardware\SMART-Response-XE-Low_level-master\avr\libraries\SmartResponseXE\SmartResponseXE.cpp ****             bOut |= fgColor2; // third pixel (2 bits)
 2360               		.loc 1 773 0 discriminator 1
 2361 0128 8A2D      		mov r24,r10
 2362 012a 8F71      		andi r24,lo8(31)
 775:C:\Users\Hexma\Documents\Arduino\hardware\SMART-Response-XE-Low_level-master\avr\libraries\SmartResponseXE\SmartResponseXE.cpp ****           }
 2363               		.loc 1 775 0 discriminator 1
 2364 012c 182B      		or r17,r24
 2365 012e AB96      		adiw r28,106-63
 2366 0130 1FAF      		std Y+63,r17
 2367 0132 AB97      		sbiw r28,106-63
 780:C:\Users\Hexma\Documents\Arduino\hardware\SMART-Response-XE-Low_level-master\avr\libraries\SmartResponseXE\SmartResponseXE.cpp ****           }
 2368               		.loc 1 780 0 discriminator 1
 2369 0134 0729      		or r16,r7
 2370               	.LVL201:
 2371 0136 AC96      		adiw r28,107-63
 2372 0138 0FAF      		std Y+63,r16
 2373 013a AC97      		sbiw r28,107-63
 2374               	.L89:
 2375               	.LVL202:
 2376               	.LBE30:
 742:C:\Users\Hexma\Documents\Arduino\hardware\SMART-Response-XE-Low_level-master\avr\libraries\SmartResponseXE\SmartResponseXE.cpp ****     {
 2377               		.loc 1 742 0 discriminator 1
GAS LISTING C:\Users\Hexma\AppData\Local\Temp\cc7G6F1c.s 			page 57


 2378 013c 6F96      		adiw r28,93-62
 2379 013e 8EAD      		ldd r24,Y+62
 2380 0140 9FAD      		ldd r25,Y+63
 2381 0142 6F97      		sbiw r28,93-62
 2382 0144 8219      		sub r24,r2
 2383 0146 9309      		sbc r25,r3
 2384 0148 8415      		cp r24,r4
 2385 014a 9505      		cpc r25,r5
 2386 014c 04F0      		brlt .L79
 2387               	.LVL203:
 2388               	.L92:
 2389               	.LBE29:
 2390               	.LBE28:
 2391               	.LBE27:
 792:C:\Users\Hexma\Documents\Arduino\hardware\SMART-Response-XE-Low_level-master\avr\libraries\SmartResponseXE\SmartResponseXE.cpp ****       x += iWidth;
 793:C:\Users\Hexma\Documents\Arduino\hardware\SMART-Response-XE-Low_level-master\avr\libraries\SmartResponseXE\SmartResponseXE.cpp ****     } // for each character
 794:C:\Users\Hexma\Documents\Arduino\hardware\SMART-Response-XE-Low_level-master\avr\libraries\SmartResponseXE\SmartResponseXE.cpp ****   } // large+medium
 795:C:\Users\Hexma\Documents\Arduino\hardware\SMART-Response-XE-Low_level-master\avr\libraries\SmartResponseXE\SmartResponseXE.cpp ****   else if (iSize == FONT_NORMAL)// draw 8x8 font
 796:C:\Users\Hexma\Documents\Arduino\hardware\SMART-Response-XE-Low_level-master\avr\libraries\SmartResponseXE\SmartResponseXE.cpp ****   {
 797:C:\Users\Hexma\Documents\Arduino\hardware\SMART-Response-XE-Low_level-master\avr\libraries\SmartResponseXE\SmartResponseXE.cpp ****     if ((9 * iLen) + x > 384) iLen = (384 - x) / 9; // can't display it all
 798:C:\Users\Hexma\Documents\Arduino\hardware\SMART-Response-XE-Low_level-master\avr\libraries\SmartResponseXE\SmartResponseXE.cpp ****     if (iLen < 0)return -1;
 799:C:\Users\Hexma\Documents\Arduino\hardware\SMART-Response-XE-Low_level-master\avr\libraries\SmartResponseXE\SmartResponseXE.cpp **** 
 800:C:\Users\Hexma\Documents\Arduino\hardware\SMART-Response-XE-Low_level-master\avr\libraries\SmartResponseXE\SmartResponseXE.cpp ****     for (i = 0; i < iLen; i++)
 801:C:\Users\Hexma\Documents\Arduino\hardware\SMART-Response-XE-Low_level-master\avr\libraries\SmartResponseXE\SmartResponseXE.cpp ****     {
 802:C:\Users\Hexma\Documents\Arduino\hardware\SMART-Response-XE-Low_level-master\avr\libraries\SmartResponseXE\SmartResponseXE.cpp ****       int tx, ty;
 803:C:\Users\Hexma\Documents\Arduino\hardware\SMART-Response-XE-Low_level-master\avr\libraries\SmartResponseXE\SmartResponseXE.cpp ****       byte bTemp[24], bMask, bOut, *d;
 804:C:\Users\Hexma\Documents\Arduino\hardware\SMART-Response-XE-Low_level-master\avr\libraries\SmartResponseXE\SmartResponseXE.cpp ****       s = (unsigned char *)&ucFont[((unsigned char)szMsg[i] - 32) * 8];
 805:C:\Users\Hexma\Documents\Arduino\hardware\SMART-Response-XE-Low_level-master\avr\libraries\SmartResponseXE\SmartResponseXE.cpp ****       memcpy_P(ucTemp, s, 8); // copy from FLASH memory
 806:C:\Users\Hexma\Documents\Arduino\hardware\SMART-Response-XE-Low_level-master\avr\libraries\SmartResponseXE\SmartResponseXE.cpp ****       // convert from 1-bpp to 2/3-bpp
 807:C:\Users\Hexma\Documents\Arduino\hardware\SMART-Response-XE-Low_level-master\avr\libraries\SmartResponseXE\SmartResponseXE.cpp ****       d = bTemp;
 808:C:\Users\Hexma\Documents\Arduino\hardware\SMART-Response-XE-Low_level-master\avr\libraries\SmartResponseXE\SmartResponseXE.cpp ****       for (ty = 0; ty < 8; ty++)
 809:C:\Users\Hexma\Documents\Arduino\hardware\SMART-Response-XE-Low_level-master\avr\libraries\SmartResponseXE\SmartResponseXE.cpp ****       {
 810:C:\Users\Hexma\Documents\Arduino\hardware\SMART-Response-XE-Low_level-master\avr\libraries\SmartResponseXE\SmartResponseXE.cpp ****         bMask = 1 << ty;
 811:C:\Users\Hexma\Documents\Arduino\hardware\SMART-Response-XE-Low_level-master\avr\libraries\SmartResponseXE\SmartResponseXE.cpp ****         for (tx = 0; tx < 9; tx += 3) // 3 sets of 3 pixels
 812:C:\Users\Hexma\Documents\Arduino\hardware\SMART-Response-XE-Low_level-master\avr\libraries\SmartResponseXE\SmartResponseXE.cpp ****         {
 813:C:\Users\Hexma\Documents\Arduino\hardware\SMART-Response-XE-Low_level-master\avr\libraries\SmartResponseXE\SmartResponseXE.cpp ****           bOut = bgColor;
 814:C:\Users\Hexma\Documents\Arduino\hardware\SMART-Response-XE-Low_level-master\avr\libraries\SmartResponseXE\SmartResponseXE.cpp ****           if (ucTemp[tx] & bMask)
 815:C:\Users\Hexma\Documents\Arduino\hardware\SMART-Response-XE-Low_level-master\avr\libraries\SmartResponseXE\SmartResponseXE.cpp ****           {
 816:C:\Users\Hexma\Documents\Arduino\hardware\SMART-Response-XE-Low_level-master\avr\libraries\SmartResponseXE\SmartResponseXE.cpp ****             bOut &= 0x1f; // clear top 3 bits
 817:C:\Users\Hexma\Documents\Arduino\hardware\SMART-Response-XE-Low_level-master\avr\libraries\SmartResponseXE\SmartResponseXE.cpp ****             bOut |= fgColor0; // first pixel (3 bits)
 818:C:\Users\Hexma\Documents\Arduino\hardware\SMART-Response-XE-Low_level-master\avr\libraries\SmartResponseXE\SmartResponseXE.cpp ****           }
 819:C:\Users\Hexma\Documents\Arduino\hardware\SMART-Response-XE-Low_level-master\avr\libraries\SmartResponseXE\SmartResponseXE.cpp ****           if (ucTemp[tx + 1] & bMask)
 820:C:\Users\Hexma\Documents\Arduino\hardware\SMART-Response-XE-Low_level-master\avr\libraries\SmartResponseXE\SmartResponseXE.cpp ****           {
 821:C:\Users\Hexma\Documents\Arduino\hardware\SMART-Response-XE-Low_level-master\avr\libraries\SmartResponseXE\SmartResponseXE.cpp ****             bOut &= 0xe3; // clear middle 3 bits
 822:C:\Users\Hexma\Documents\Arduino\hardware\SMART-Response-XE-Low_level-master\avr\libraries\SmartResponseXE\SmartResponseXE.cpp ****             bOut |= fgColor1; // second pixel (3 bits)
 823:C:\Users\Hexma\Documents\Arduino\hardware\SMART-Response-XE-Low_level-master\avr\libraries\SmartResponseXE\SmartResponseXE.cpp ****           }
 824:C:\Users\Hexma\Documents\Arduino\hardware\SMART-Response-XE-Low_level-master\avr\libraries\SmartResponseXE\SmartResponseXE.cpp ****           if (tx != 6 &&
 825:C:\Users\Hexma\Documents\Arduino\hardware\SMART-Response-XE-Low_level-master\avr\libraries\SmartResponseXE\SmartResponseXE.cpp ****               ucTemp[tx + 2] & bMask)
 826:C:\Users\Hexma\Documents\Arduino\hardware\SMART-Response-XE-Low_level-master\avr\libraries\SmartResponseXE\SmartResponseXE.cpp ****           {
 827:C:\Users\Hexma\Documents\Arduino\hardware\SMART-Response-XE-Low_level-master\avr\libraries\SmartResponseXE\SmartResponseXE.cpp ****             bOut &= 0xfc; // clear lower 2 bits
 828:C:\Users\Hexma\Documents\Arduino\hardware\SMART-Response-XE-Low_level-master\avr\libraries\SmartResponseXE\SmartResponseXE.cpp ****             bOut |= fgColor2; // third pixel (2 bits)
 829:C:\Users\Hexma\Documents\Arduino\hardware\SMART-Response-XE-Low_level-master\avr\libraries\SmartResponseXE\SmartResponseXE.cpp ****           }
 830:C:\Users\Hexma\Documents\Arduino\hardware\SMART-Response-XE-Low_level-master\avr\libraries\SmartResponseXE\SmartResponseXE.cpp ****           *d++ = bOut;
 831:C:\Users\Hexma\Documents\Arduino\hardware\SMART-Response-XE-Low_level-master\avr\libraries\SmartResponseXE\SmartResponseXE.cpp ****         } // for tx
 832:C:\Users\Hexma\Documents\Arduino\hardware\SMART-Response-XE-Low_level-master\avr\libraries\SmartResponseXE\SmartResponseXE.cpp ****       } // for ty
 833:C:\Users\Hexma\Documents\Arduino\hardware\SMART-Response-XE-Low_level-master\avr\libraries\SmartResponseXE\SmartResponseXE.cpp ****       SRXESetPosition(x, y, 9, 8);
 834:C:\Users\Hexma\Documents\Arduino\hardware\SMART-Response-XE-Low_level-master\avr\libraries\SmartResponseXE\SmartResponseXE.cpp ****       x += 9;
GAS LISTING C:\Users\Hexma\AppData\Local\Temp\cc7G6F1c.s 			page 58


 835:C:\Users\Hexma\Documents\Arduino\hardware\SMART-Response-XE-Low_level-master\avr\libraries\SmartResponseXE\SmartResponseXE.cpp ****       SRXEWriteDataBlock(bTemp, 24); // write character pattern
 836:C:\Users\Hexma\Documents\Arduino\hardware\SMART-Response-XE-Low_level-master\avr\libraries\SmartResponseXE\SmartResponseXE.cpp ****     }
 837:C:\Users\Hexma\Documents\Arduino\hardware\SMART-Response-XE-Low_level-master\avr\libraries\SmartResponseXE\SmartResponseXE.cpp ****   } // normal
 838:C:\Users\Hexma\Documents\Arduino\hardware\SMART-Response-XE-Low_level-master\avr\libraries\SmartResponseXE\SmartResponseXE.cpp ****   else // 6x8
 839:C:\Users\Hexma\Documents\Arduino\hardware\SMART-Response-XE-Low_level-master\avr\libraries\SmartResponseXE\SmartResponseXE.cpp ****   {
 840:C:\Users\Hexma\Documents\Arduino\hardware\SMART-Response-XE-Low_level-master\avr\libraries\SmartResponseXE\SmartResponseXE.cpp ****     if ((6 * iLen) + x > 384) iLen = (384 - x) / 6; // can't display it all
 841:C:\Users\Hexma\Documents\Arduino\hardware\SMART-Response-XE-Low_level-master\avr\libraries\SmartResponseXE\SmartResponseXE.cpp ****     if (iLen < 0)return -1;
 842:C:\Users\Hexma\Documents\Arduino\hardware\SMART-Response-XE-Low_level-master\avr\libraries\SmartResponseXE\SmartResponseXE.cpp **** 
 843:C:\Users\Hexma\Documents\Arduino\hardware\SMART-Response-XE-Low_level-master\avr\libraries\SmartResponseXE\SmartResponseXE.cpp ****     for (i = 0; i < iLen; i++)
 844:C:\Users\Hexma\Documents\Arduino\hardware\SMART-Response-XE-Low_level-master\avr\libraries\SmartResponseXE\SmartResponseXE.cpp ****     {
 845:C:\Users\Hexma\Documents\Arduino\hardware\SMART-Response-XE-Low_level-master\avr\libraries\SmartResponseXE\SmartResponseXE.cpp ****       int tx, ty;
 846:C:\Users\Hexma\Documents\Arduino\hardware\SMART-Response-XE-Low_level-master\avr\libraries\SmartResponseXE\SmartResponseXE.cpp ****       byte bTemp[16], bMask, bOut, *d;
 847:C:\Users\Hexma\Documents\Arduino\hardware\SMART-Response-XE-Low_level-master\avr\libraries\SmartResponseXE\SmartResponseXE.cpp ****       s = (unsigned char *)&ucSmallFont[((unsigned char)szMsg[i] - 32) * 6];
 848:C:\Users\Hexma\Documents\Arduino\hardware\SMART-Response-XE-Low_level-master\avr\libraries\SmartResponseXE\SmartResponseXE.cpp ****       memcpy_P(ucTemp, s, 6); // copy from FLASH memory
 849:C:\Users\Hexma\Documents\Arduino\hardware\SMART-Response-XE-Low_level-master\avr\libraries\SmartResponseXE\SmartResponseXE.cpp ****       // convert from 1-bpp to 2/3-bpp
 850:C:\Users\Hexma\Documents\Arduino\hardware\SMART-Response-XE-Low_level-master\avr\libraries\SmartResponseXE\SmartResponseXE.cpp ****       d = bTemp;
 851:C:\Users\Hexma\Documents\Arduino\hardware\SMART-Response-XE-Low_level-master\avr\libraries\SmartResponseXE\SmartResponseXE.cpp ****       for (ty = 0; ty < 8; ty++)
 852:C:\Users\Hexma\Documents\Arduino\hardware\SMART-Response-XE-Low_level-master\avr\libraries\SmartResponseXE\SmartResponseXE.cpp ****       {
 853:C:\Users\Hexma\Documents\Arduino\hardware\SMART-Response-XE-Low_level-master\avr\libraries\SmartResponseXE\SmartResponseXE.cpp ****         bMask = 1 << ty;
 854:C:\Users\Hexma\Documents\Arduino\hardware\SMART-Response-XE-Low_level-master\avr\libraries\SmartResponseXE\SmartResponseXE.cpp ****         for (tx = 0; tx < 6; tx += 3) // 2 sets of 3 pixels
 855:C:\Users\Hexma\Documents\Arduino\hardware\SMART-Response-XE-Low_level-master\avr\libraries\SmartResponseXE\SmartResponseXE.cpp ****         {
 856:C:\Users\Hexma\Documents\Arduino\hardware\SMART-Response-XE-Low_level-master\avr\libraries\SmartResponseXE\SmartResponseXE.cpp ****           bOut = bgColor;
 857:C:\Users\Hexma\Documents\Arduino\hardware\SMART-Response-XE-Low_level-master\avr\libraries\SmartResponseXE\SmartResponseXE.cpp ****           if (ucTemp[tx] & bMask)
 858:C:\Users\Hexma\Documents\Arduino\hardware\SMART-Response-XE-Low_level-master\avr\libraries\SmartResponseXE\SmartResponseXE.cpp ****           {
 859:C:\Users\Hexma\Documents\Arduino\hardware\SMART-Response-XE-Low_level-master\avr\libraries\SmartResponseXE\SmartResponseXE.cpp ****             bOut &= 0x1f; // clear top 3 bits
 860:C:\Users\Hexma\Documents\Arduino\hardware\SMART-Response-XE-Low_level-master\avr\libraries\SmartResponseXE\SmartResponseXE.cpp ****             bOut |= fgColor0; // first pixel (3 bits)
 861:C:\Users\Hexma\Documents\Arduino\hardware\SMART-Response-XE-Low_level-master\avr\libraries\SmartResponseXE\SmartResponseXE.cpp ****           }
 862:C:\Users\Hexma\Documents\Arduino\hardware\SMART-Response-XE-Low_level-master\avr\libraries\SmartResponseXE\SmartResponseXE.cpp ****           if (ucTemp[tx + 1] & bMask)
 863:C:\Users\Hexma\Documents\Arduino\hardware\SMART-Response-XE-Low_level-master\avr\libraries\SmartResponseXE\SmartResponseXE.cpp ****           {
 864:C:\Users\Hexma\Documents\Arduino\hardware\SMART-Response-XE-Low_level-master\avr\libraries\SmartResponseXE\SmartResponseXE.cpp ****             bOut &= 0xe3; // clear middle 3 bits
 865:C:\Users\Hexma\Documents\Arduino\hardware\SMART-Response-XE-Low_level-master\avr\libraries\SmartResponseXE\SmartResponseXE.cpp ****             bOut |= fgColor1; // second pixel (3 bits)
 866:C:\Users\Hexma\Documents\Arduino\hardware\SMART-Response-XE-Low_level-master\avr\libraries\SmartResponseXE\SmartResponseXE.cpp ****           }
 867:C:\Users\Hexma\Documents\Arduino\hardware\SMART-Response-XE-Low_level-master\avr\libraries\SmartResponseXE\SmartResponseXE.cpp ****           if (ucTemp[tx + 2] & bMask)
 868:C:\Users\Hexma\Documents\Arduino\hardware\SMART-Response-XE-Low_level-master\avr\libraries\SmartResponseXE\SmartResponseXE.cpp ****           {
 869:C:\Users\Hexma\Documents\Arduino\hardware\SMART-Response-XE-Low_level-master\avr\libraries\SmartResponseXE\SmartResponseXE.cpp ****             bOut &= 0xfc; // clear lower 2 bits
 870:C:\Users\Hexma\Documents\Arduino\hardware\SMART-Response-XE-Low_level-master\avr\libraries\SmartResponseXE\SmartResponseXE.cpp ****             bOut |= fgColor2; // third pixel (2 bits)
 871:C:\Users\Hexma\Documents\Arduino\hardware\SMART-Response-XE-Low_level-master\avr\libraries\SmartResponseXE\SmartResponseXE.cpp ****           }
 872:C:\Users\Hexma\Documents\Arduino\hardware\SMART-Response-XE-Low_level-master\avr\libraries\SmartResponseXE\SmartResponseXE.cpp ****           *d++ = bOut;
 873:C:\Users\Hexma\Documents\Arduino\hardware\SMART-Response-XE-Low_level-master\avr\libraries\SmartResponseXE\SmartResponseXE.cpp ****         } // for tx
 874:C:\Users\Hexma\Documents\Arduino\hardware\SMART-Response-XE-Low_level-master\avr\libraries\SmartResponseXE\SmartResponseXE.cpp ****       } // for ty
 875:C:\Users\Hexma\Documents\Arduino\hardware\SMART-Response-XE-Low_level-master\avr\libraries\SmartResponseXE\SmartResponseXE.cpp ****       SRXESetPosition(x, y, 6, 8);
 876:C:\Users\Hexma\Documents\Arduino\hardware\SMART-Response-XE-Low_level-master\avr\libraries\SmartResponseXE\SmartResponseXE.cpp ****       x += 6;
 877:C:\Users\Hexma\Documents\Arduino\hardware\SMART-Response-XE-Low_level-master\avr\libraries\SmartResponseXE\SmartResponseXE.cpp ****       SRXEWriteDataBlock(bTemp, 16); // write character pattern
 878:C:\Users\Hexma\Documents\Arduino\hardware\SMART-Response-XE-Low_level-master\avr\libraries\SmartResponseXE\SmartResponseXE.cpp ****     }
 879:C:\Users\Hexma\Documents\Arduino\hardware\SMART-Response-XE-Low_level-master\avr\libraries\SmartResponseXE\SmartResponseXE.cpp ****   } // small
 880:C:\Users\Hexma\Documents\Arduino\hardware\SMART-Response-XE-Low_level-master\avr\libraries\SmartResponseXE\SmartResponseXE.cpp ****   return 0;
 2392               		.loc 1 880 0
 2393 014e 90E0      		ldi r25,0
 2394 0150 80E0      		ldi r24,0
 2395               	.L72:
 2396               	/* epilogue start */
 881:C:\Users\Hexma\Documents\Arduino\hardware\SMART-Response-XE-Low_level-master\avr\libraries\SmartResponseXE\SmartResponseXE.cpp **** } /* SRXEWriteString() */
 2397               		.loc 1 881 0
 2398 0152 C359      		subi r28,-109
 2399 0154 DF4F      		sbci r29,-1
 2400 0156 0FB6      		in __tmp_reg__,__SREG__
 2401 0158 F894      		cli
GAS LISTING C:\Users\Hexma\AppData\Local\Temp\cc7G6F1c.s 			page 59


 2402 015a DEBF      		out __SP_H__,r29
 2403 015c 0FBE      		out __SREG__,__tmp_reg__
 2404 015e CDBF      		out __SP_L__,r28
 2405 0160 DF91      		pop r29
 2406 0162 CF91      		pop r28
 2407 0164 1F91      		pop r17
 2408 0166 0F91      		pop r16
 2409 0168 FF90      		pop r15
 2410 016a EF90      		pop r14
 2411 016c DF90      		pop r13
 2412 016e CF90      		pop r12
 2413 0170 BF90      		pop r11
 2414 0172 AF90      		pop r10
 2415               	.LVL204:
 2416 0174 9F90      		pop r9
 2417 0176 8F90      		pop r8
 2418               	.LVL205:
 2419 0178 7F90      		pop r7
 2420               	.LVL206:
 2421 017a 6F90      		pop r6
 2422 017c 5F90      		pop r5
 2423 017e 4F90      		pop r4
 2424 0180 3F90      		pop r3
 2425 0182 2F90      		pop r2
 2426               	.LVL207:
 2427 0184 0895      		ret
 2428               	.LVL208:
 2429               	.L108:
 724:C:\Users\Hexma\Documents\Arduino\hardware\SMART-Response-XE-Low_level-master\avr\libraries\SmartResponseXE\SmartResponseXE.cpp ****   }
 2430               		.loc 1 724 0
 2431 0186 63E0      		ldi r22,lo8(3)
 2432 0188 762E      		mov r7,r22
 2433               	.LVL209:
 2434 018a 0CE1      		ldi r16,lo8(28)
 2435               	.LVL210:
 2436 018c 10EE      		ldi r17,lo8(-32)
 2437 018e 00C0      		rjmp .L74
 2438               	.LVL211:
 2439               	.L109:
 2440               	.LBB55:
 2441               	.LBB35:
 738:C:\Users\Hexma\Documents\Arduino\hardware\SMART-Response-XE-Low_level-master\avr\libraries\SmartResponseXE\SmartResponseXE.cpp ****     iDelta = (iSize == FONT_LARGE) ? 5 : 4;
 2442               		.loc 1 738 0
 2443 0190 4FE0      		ldi r20,lo8(15)
 2444 0192 E42E      		mov r14,r20
 2445 0194 F12C      		mov r15,__zero_reg__
 739:C:\Users\Hexma\Documents\Arduino\hardware\SMART-Response-XE-Low_level-master\avr\libraries\SmartResponseXE\SmartResponseXE.cpp ****     if ((iWidth * iLen) + x > 384) iLen = (384 - x) / iWidth; // can't display it all
 2446               		.loc 1 739 0
 2447 0196 25E0      		ldi r18,lo8(5)
 2448 0198 30E0      		ldi r19,0
 2449 019a A196      		adiw r28,95-62
 2450 019c 3FAF      		std Y+63,r19
 2451 019e 2EAF      		std Y+62,r18
 2452 01a0 A197      		sbiw r28,95-62
 2453 01a2 00C0      		rjmp .L76
 2454               	.LVL212:
 2455               	.L79:
GAS LISTING C:\Users\Hexma\AppData\Local\Temp\cc7G6F1c.s 			page 60


 2456 01a4 6F96      		adiw r28,93-62
 2457 01a6 AEAD      		ldd r26,Y+62
 2458 01a8 BFAD      		ldd r27,Y+63
 2459 01aa 6F97      		sbiw r28,93-62
 2460 01ac 8D91      		ld r24,X+
 2461 01ae 6F96      		adiw r28,93-62
 2462 01b0 BFAF      		std Y+63,r27
 2463 01b2 AEAF      		std Y+62,r26
 2464 01b4 6F97      		sbiw r28,93-62
 2465               	.LVL213:
 2466 01b6 8052      		subi r24,32
 2467 01b8 990B      		sbc r25,r25
 2468               	.LBB33:
 2469               	.LBB31:
 746:C:\Users\Hexma\Documents\Arduino\hardware\SMART-Response-XE-Low_level-master\avr\libraries\SmartResponseXE\SmartResponseXE.cpp ****       {
 2470               		.loc 1 746 0
 2471 01ba B3E0      		ldi r27,3
 2472 01bc CB16      		cp r12,r27
 2473 01be D104      		cpc r13,__zero_reg__
 2474 01c0 01F0      		breq .+2
 2475 01c2 00C0      		rjmp .L80
 2476               	.LVL214:
 748:C:\Users\Hexma\Documents\Arduino\hardware\SMART-Response-XE-Low_level-master\avr\libraries\SmartResponseXE\SmartResponseXE.cpp ****         memcpy_P(ucTemp, s, 8); // copy from FLASH memory
 2477               		.loc 1 748 0
 2478 01c4 BC01      		movw r22,r24
 2479 01c6 93E0      		ldi r25,3
 2480               		1:
 2481 01c8 660F      		lsl r22
 2482 01ca 771F      		rol r23
 2483 01cc 9A95      		dec r25
 2484 01ce 01F4      		brne 1b
 2485 01d0 6050      		subi r22,lo8(-(_ZL6ucFont))
 2486 01d2 7040      		sbci r23,hi8(-(_ZL6ucFont))
 2487               	.LVL215:
 749:C:\Users\Hexma\Documents\Arduino\hardware\SMART-Response-XE-Low_level-master\avr\libraries\SmartResponseXE\SmartResponseXE.cpp ****       }
 2488               		.loc 1 749 0
 2489 01d4 48E0      		ldi r20,lo8(8)
 2490 01d6 50E0      		ldi r21,0
 2491               	.LVL216:
 2492               	.L149:
 754:C:\Users\Hexma\Documents\Arduino\hardware\SMART-Response-XE-Low_level-master\avr\libraries\SmartResponseXE\SmartResponseXE.cpp ****       }
 2493               		.loc 1 754 0
 2494 01d8 CE01      		movw r24,r28
 2495 01da 8B5A      		subi r24,-85
 2496 01dc 9F4F      		sbci r25,-1
 2497 01de 0E94 0000 		call memcpy_P
 2498               	.LVL217:
 2499 01e2 AE01      		movw r20,r28
 2500 01e4 4F5F      		subi r20,-1
 2501 01e6 5F4F      		sbci r21,-1
 791:C:\Users\Hexma\Documents\Arduino\hardware\SMART-Response-XE-Low_level-master\avr\libraries\SmartResponseXE\SmartResponseXE.cpp ****       x += iWidth;
 2502               		.loc 1 791 0
 2503 01e8 68E0      		ldi r22,lo8(8)
 2504 01ea 70E0      		ldi r23,0
 2505 01ec BB24      		clr r11
 2506 01ee B394      		inc r11
 762:C:\Users\Hexma\Documents\Arduino\hardware\SMART-Response-XE-Low_level-master\avr\libraries\SmartResponseXE\SmartResponseXE.cpp ****         {
GAS LISTING C:\Users\Hexma\AppData\Local\Temp\cc7G6F1c.s 			page 61


 2507               		.loc 1 762 0
 2508 01f0 F701      		movw r30,r14
 2509 01f2 3697      		sbiw r30,6
 2510 01f4 A596      		adiw r28,99-62
 2511 01f6 FFAF      		std Y+63,r31
 2512 01f8 EEAF      		std Y+62,r30
 2513 01fa A597      		sbiw r28,99-62
 2514               	.L88:
 2515 01fc 9A01      		movw r18,r20
 2516               	.LVL218:
 2517 01fe A196      		adiw r28,95-62
 2518 0200 0EAD      		ldd r16,Y+62
 2519 0202 1FAD      		ldd r17,Y+63
 2520 0204 A197      		sbiw r28,95-62
 2521 0206 040F      		add r16,r20
 2522 0208 151F      		adc r17,r21
 2523 020a AE96      		adiw r28,108-62
 2524 020c 1FAF      		std Y+63,r17
 2525 020e 0EAF      		std Y+62,r16
 2526 0210 AE97      		sbiw r28,108-62
 2527 0212 FE01      		movw r30,r28
 2528 0214 EB5A      		subi r30,-85
 2529 0216 FF4F      		sbci r31,-1
 2530 0218 90E0      		ldi r25,0
 2531 021a 80E0      		ldi r24,0
 2532               	.L87:
 2533               	.LVL219:
 762:C:\Users\Hexma\Documents\Arduino\hardware\SMART-Response-XE-Low_level-master\avr\libraries\SmartResponseXE\SmartResponseXE.cpp ****         {
 2534               		.loc 1 762 0 is_stmt 0 discriminator 1
 2535 021c A596      		adiw r28,99-62
 2536 021e AEAD      		ldd r26,Y+62
 2537 0220 BFAD      		ldd r27,Y+63
 2538 0222 A597      		sbiw r28,99-62
 2539 0224 8A17      		cp r24,r26
 2540 0226 9B07      		cpc r25,r27
 2541 0228 04F0      		brlt .+2
 2542 022a 00C0      		rjmp .L82
 2543               	.LVL220:
 765:C:\Users\Hexma\Documents\Arduino\hardware\SMART-Response-XE-Low_level-master\avr\libraries\SmartResponseXE\SmartResponseXE.cpp ****           {
 2544               		.loc 1 765 0 is_stmt 1
 2545 022c 1081      		ld r17,Z
 2546 022e 1B21      		and r17,r11
 768:C:\Users\Hexma\Documents\Arduino\hardware\SMART-Response-XE-Low_level-master\avr\libraries\SmartResponseXE\SmartResponseXE.cpp ****           }
 2547               		.loc 1 768 0
 2548 0230 AA96      		adiw r28,105-63
 2549 0232 0FAD      		ldd r16,Y+63
 2550 0234 AA97      		sbiw r28,105-63
 765:C:\Users\Hexma\Documents\Arduino\hardware\SMART-Response-XE-Low_level-master\avr\libraries\SmartResponseXE\SmartResponseXE.cpp ****           {
 2551               		.loc 1 765 0
 2552 0236 1111      		cpse r17,__zero_reg__
 2553 0238 00C0      		rjmp .L83
 764:C:\Users\Hexma\Documents\Arduino\hardware\SMART-Response-XE-Low_level-master\avr\libraries\SmartResponseXE\SmartResponseXE.cpp ****           if (s[tx] & bMask)
 2554               		.loc 1 764 0
 2555 023a 0A2D      		mov r16,r10
 2556               	.L83:
 2557               	.LVL221:
 770:C:\Users\Hexma\Documents\Arduino\hardware\SMART-Response-XE-Low_level-master\avr\libraries\SmartResponseXE\SmartResponseXE.cpp ****           {
GAS LISTING C:\Users\Hexma\AppData\Local\Temp\cc7G6F1c.s 			page 62


 2558               		.loc 1 770 0
 2559 023c 1181      		ldd r17,Z+1
 2560 023e 1B21      		and r17,r11
 2561 0240 01F0      		breq .L112
 772:C:\Users\Hexma\Documents\Arduino\hardware\SMART-Response-XE-Low_level-master\avr\libraries\SmartResponseXE\SmartResponseXE.cpp ****             bOut2 &= 0x1f; // clear top 3 bits
 2562               		.loc 1 772 0
 2563 0242 0C7F      		andi r16,lo8(-4)
 2564               	.LVL222:
 774:C:\Users\Hexma\Documents\Arduino\hardware\SMART-Response-XE-Low_level-master\avr\libraries\SmartResponseXE\SmartResponseXE.cpp ****             bOut2 |= fgColor0;
 2565               		.loc 1 774 0
 2566 0244 0729      		or r16,r7
 2567               	.LVL223:
 775:C:\Users\Hexma\Documents\Arduino\hardware\SMART-Response-XE-Low_level-master\avr\libraries\SmartResponseXE\SmartResponseXE.cpp ****           }
 2568               		.loc 1 775 0
 2569 0246 AB96      		adiw r28,106-63
 2570 0248 1FAD      		ldd r17,Y+63
 2571 024a AB97      		sbiw r28,106-63
 2572               	.LVL224:
 2573               	.L84:
 777:C:\Users\Hexma\Documents\Arduino\hardware\SMART-Response-XE-Low_level-master\avr\libraries\SmartResponseXE\SmartResponseXE.cpp ****           {
 2574               		.loc 1 777 0
 2575 024c 6280      		ldd r6,Z+2
 2576 024e 6B20      		and r6,r11
 2577 0250 01F0      		breq .L85
 779:C:\Users\Hexma\Documents\Arduino\hardware\SMART-Response-XE-Low_level-master\avr\libraries\SmartResponseXE\SmartResponseXE.cpp ****             bOut2 |= fgColor1 | fgColor2; // 2nd & 3rd pixel2 of second byte
 2578               		.loc 1 779 0
 2579 0252 107E      		andi r17,lo8(-32)
 2580               	.LVL225:
 780:C:\Users\Hexma\Documents\Arduino\hardware\SMART-Response-XE-Low_level-master\avr\libraries\SmartResponseXE\SmartResponseXE.cpp ****           }
 2581               		.loc 1 780 0
 2582 0254 AC96      		adiw r28,107-63
 2583 0256 6FAC      		ldd r6,Y+63
 2584 0258 AC97      		sbiw r28,107-63
 2585 025a 1629      		or r17,r6
 2586               	.LVL226:
 2587               	.L85:
 782:C:\Users\Hexma\Documents\Arduino\hardware\SMART-Response-XE-Low_level-master\avr\libraries\SmartResponseXE\SmartResponseXE.cpp ****           if (tx != 6)
 2588               		.loc 1 782 0
 2589 025c AE96      		adiw r28,108-62
 2590 025e AEAD      		ldd r26,Y+62
 2591 0260 BFAD      		ldd r27,Y+63
 2592 0262 AE97      		sbiw r28,108-62
 2593 0264 0C93      		st X,r16
 2594 0266 D901      		movw r26,r18
 2595 0268 0C93      		st X,r16
 783:C:\Users\Hexma\Documents\Arduino\hardware\SMART-Response-XE-Low_level-master\avr\libraries\SmartResponseXE\SmartResponseXE.cpp ****             d[1] = d[iDelta + 1] = bOut2;
 2596               		.loc 1 783 0
 2597 026a 8630      		cpi r24,6
 2598 026c 9105      		cpc r25,__zero_reg__
 2599 026e 01F0      		breq .L86
 784:C:\Users\Hexma\Documents\Arduino\hardware\SMART-Response-XE-Low_level-master\avr\libraries\SmartResponseXE\SmartResponseXE.cpp ****           d += 2;
 2600               		.loc 1 784 0
 2601 0270 AE96      		adiw r28,108-62
 2602 0272 AEAD      		ldd r26,Y+62
 2603 0274 BFAD      		ldd r27,Y+63
 2604 0276 AE97      		sbiw r28,108-62
 2605 0278 1196      		adiw r26,1
GAS LISTING C:\Users\Hexma\AppData\Local\Temp\cc7G6F1c.s 			page 63


 2606 027a 1C93      		st X,r17
 2607 027c D901      		movw r26,r18
 2608 027e 1196      		adiw r26,1
 2609 0280 1C93      		st X,r17
 2610               	.L86:
 2611               	.LVL227:
 785:C:\Users\Hexma\Documents\Arduino\hardware\SMART-Response-XE-Low_level-master\avr\libraries\SmartResponseXE\SmartResponseXE.cpp ****         } // for tx
 2612               		.loc 1 785 0 discriminator 2
 2613 0282 2E5F      		subi r18,-2
 2614 0284 3F4F      		sbci r19,-1
 2615               	.LVL228:
 762:C:\Users\Hexma\Documents\Arduino\hardware\SMART-Response-XE-Low_level-master\avr\libraries\SmartResponseXE\SmartResponseXE.cpp ****         {
 2616               		.loc 1 762 0 discriminator 2
 2617 0286 0396      		adiw r24,3
 2618               	.LVL229:
 2619 0288 AE96      		adiw r28,108-62
 2620 028a 0EAD      		ldd r16,Y+62
 2621 028c 1FAD      		ldd r17,Y+63
 2622 028e AE97      		sbiw r28,108-62
 2623               	.LVL230:
 2624 0290 0E5F      		subi r16,-2
 2625 0292 1F4F      		sbci r17,-1
 2626 0294 AE96      		adiw r28,108-62
 2627 0296 1FAF      		std Y+63,r17
 2628 0298 0EAF      		std Y+62,r16
 2629 029a AE97      		sbiw r28,108-62
 2630 029c 3396      		adiw r30,3
 2631 029e 00C0      		rjmp .L87
 2632               	.LVL231:
 2633               	.L80:
 753:C:\Users\Hexma\Documents\Arduino\hardware\SMART-Response-XE-Low_level-master\avr\libraries\SmartResponseXE\SmartResponseXE.cpp ****         memcpy_P(ucTemp, s, 6);
 2634               		.loc 1 753 0
 2635 02a0 26E0      		ldi r18,lo8(6)
 2636 02a2 289F      		mul r18,r24
 2637 02a4 B001      		movw r22,r0
 2638 02a6 299F      		mul r18,r25
 2639 02a8 700D      		add r23,r0
 2640 02aa 1124      		clr __zero_reg__
 2641 02ac 6050      		subi r22,lo8(-(_ZL11ucSmallFont))
 2642 02ae 7040      		sbci r23,hi8(-(_ZL11ucSmallFont))
 754:C:\Users\Hexma\Documents\Arduino\hardware\SMART-Response-XE-Low_level-master\avr\libraries\SmartResponseXE\SmartResponseXE.cpp ****       }
 2643               		.loc 1 754 0
 2644 02b0 46E0      		ldi r20,lo8(6)
 2645 02b2 50E0      		ldi r21,0
 2646 02b4 00C0      		rjmp .L149
 2647               	.LVL232:
 2648               	.L112:
 764:C:\Users\Hexma\Documents\Arduino\hardware\SMART-Response-XE-Low_level-master\avr\libraries\SmartResponseXE\SmartResponseXE.cpp ****           if (s[tx] & bMask)
 2649               		.loc 1 764 0
 2650 02b6 1A2D      		mov r17,r10
 2651 02b8 00C0      		rjmp .L84
 2652               	.LVL233:
 2653               	.L82:
 788:C:\Users\Hexma\Documents\Arduino\hardware\SMART-Response-XE-Low_level-master\avr\libraries\SmartResponseXE\SmartResponseXE.cpp ****       } // for ty
 2654               		.loc 1 788 0 discriminator 2
 2655 02ba BB0C      		lsl r11
 2656               	.LVL234:
GAS LISTING C:\Users\Hexma\AppData\Local\Temp\cc7G6F1c.s 			page 64


 2657 02bc 6150      		subi r22,1
 2658 02be 7109      		sbc r23,__zero_reg__
 2659               	.LVL235:
 2660 02c0 A996      		adiw r28,103-62
 2661 02c2 0EAD      		ldd r16,Y+62
 2662 02c4 1FAD      		ldd r17,Y+63
 2663 02c6 A997      		sbiw r28,103-62
 2664 02c8 400F      		add r20,r16
 2665 02ca 511F      		adc r21,r17
 760:C:\Users\Hexma\Documents\Arduino\hardware\SMART-Response-XE-Low_level-master\avr\libraries\SmartResponseXE\SmartResponseXE.cpp ****       {
 2666               		.loc 1 760 0 discriminator 2
 2667 02cc 6115      		cp r22,__zero_reg__
 2668 02ce 7105      		cpc r23,__zero_reg__
 2669 02d0 01F0      		breq .+2
 2670 02d2 00C0      		rjmp .L88
 790:C:\Users\Hexma\Documents\Arduino\hardware\SMART-Response-XE-Low_level-master\avr\libraries\SmartResponseXE\SmartResponseXE.cpp ****       SRXEWriteDataBlock(bTemp, 16 * iDelta); // write character pattern
 2671               		.loc 1 790 0 discriminator 2
 2672 02d4 20E1      		ldi r18,lo8(16)
 2673 02d6 30E0      		ldi r19,0
 2674               	.LVL236:
 2675 02d8 A701      		movw r20,r14
 2676 02da A396      		adiw r28,97-62
 2677 02dc 6EAD      		ldd r22,Y+62
 2678 02de 7FAD      		ldd r23,Y+63
 2679 02e0 A397      		sbiw r28,97-62
 2680               	.LVL237:
 2681 02e2 C401      		movw r24,r8
 2682               	.LVL238:
 2683 02e4 0E94 0000 		call _Z15SRXESetPositioniiii
 2684               	.LVL239:
 791:C:\Users\Hexma\Documents\Arduino\hardware\SMART-Response-XE-Low_level-master\avr\libraries\SmartResponseXE\SmartResponseXE.cpp ****       x += iWidth;
 2685               		.loc 1 791 0 discriminator 2
 2686 02e8 A796      		adiw r28,101-62
 2687 02ea 6EAD      		ldd r22,Y+62
 2688 02ec 7FAD      		ldd r23,Y+63
 2689 02ee A797      		sbiw r28,101-62
 2690 02f0 CE01      		movw r24,r28
 2691 02f2 0196      		adiw r24,1
 2692 02f4 0E94 0000 		call _Z18SRXEWriteDataBlockPhi
 2693               	.LVL240:
 792:C:\Users\Hexma\Documents\Arduino\hardware\SMART-Response-XE-Low_level-master\avr\libraries\SmartResponseXE\SmartResponseXE.cpp ****     } // for each character
 2694               		.loc 1 792 0 discriminator 2
 2695 02f8 8E0C      		add r8,r14
 2696 02fa 9F1C      		adc r9,r15
 2697               	.LVL241:
 2698               	.LBE31:
 742:C:\Users\Hexma\Documents\Arduino\hardware\SMART-Response-XE-Low_level-master\avr\libraries\SmartResponseXE\SmartResponseXE.cpp ****     {
 2699               		.loc 1 742 0 discriminator 2
 2700 02fc 00C0      		rjmp .L89
 2701               	.LVL242:
 2702               	.L75:
 2703               	.LBE33:
 2704               	.LBE35:
 2705               	.LBB36:
 795:C:\Users\Hexma\Documents\Arduino\hardware\SMART-Response-XE-Low_level-master\avr\libraries\SmartResponseXE\SmartResponseXE.cpp ****   {
 2706               		.loc 1 795 0
 2707 02fe CD28      		or r12,r13
GAS LISTING C:\Users\Hexma\AppData\Local\Temp\cc7G6F1c.s 			page 65


 2708 0300 01F0      		breq .+2
 2709 0302 00C0      		rjmp .L90
 2710               	.LBB37:
 797:C:\Users\Hexma\Documents\Arduino\hardware\SMART-Response-XE-Low_level-master\avr\libraries\SmartResponseXE\SmartResponseXE.cpp ****     if (iLen < 0)return -1;
 2711               		.loc 1 797 0
 2712 0304 49E0      		ldi r20,lo8(9)
 2713 0306 489F      		mul r20,r24
 2714 0308 9001      		movw r18,r0
 2715 030a 499F      		mul r20,r25
 2716 030c 300D      		add r19,r0
 2717 030e 1124      		clr __zero_reg__
 2718 0310 280D      		add r18,r8
 2719 0312 391D      		adc r19,r9
 2720 0314 2138      		cpi r18,-127
 2721 0316 3140      		sbci r19,1
 2722 0318 04F0      		brlt .L91
 797:C:\Users\Hexma\Documents\Arduino\hardware\SMART-Response-XE-Low_level-master\avr\libraries\SmartResponseXE\SmartResponseXE.cpp ****     if (iLen < 0)return -1;
 2723               		.loc 1 797 0 is_stmt 0 discriminator 1
 2724 031a 80E8      		ldi r24,lo8(-128)
 2725 031c 91E0      		ldi r25,lo8(1)
 2726 031e 8819      		sub r24,r8
 2727 0320 9909      		sbc r25,r9
 2728 0322 69E0      		ldi r22,lo8(9)
 2729 0324 70E0      		ldi r23,0
 2730 0326 0E94 0000 		call __divmodhi4
 2731 032a 2B01      		movw r4,r22
 2732               	.LVL243:
 798:C:\Users\Hexma\Documents\Arduino\hardware\SMART-Response-XE-Low_level-master\avr\libraries\SmartResponseXE\SmartResponseXE.cpp **** 
 2733               		.loc 1 798 0 is_stmt 1 discriminator 1
 2734 032c 77FD      		sbrc r23,7
 2735 032e 00C0      		rjmp .L115
 2736               	.L91:
 2737               	.LBE37:
 2738               	.LBE36:
 2739               	.LBB52:
 2740               	.LBB34:
 2741               	.LBB32:
 764:C:\Users\Hexma\Documents\Arduino\hardware\SMART-Response-XE-Low_level-master\avr\libraries\SmartResponseXE\SmartResponseXE.cpp ****           if (s[tx] & bMask)
 2742               		.loc 1 764 0 discriminator 1
 2743 0330 7101      		movw r14,r2
 2744               	.LBE32:
 2745               	.LBE34:
 2746               	.LBE52:
 2747               	.LBB53:
 2748               	.LBB44:
 2749               	.LBB38:
 2750               	.LBB39:
 810:C:\Users\Hexma\Documents\Arduino\hardware\SMART-Response-XE-Low_level-master\avr\libraries\SmartResponseXE\SmartResponseXE.cpp ****         for (tx = 0; tx < 9; tx += 3) // 3 sets of 3 pixels
 2751               		.loc 1 810 0 discriminator 1
 2752 0332 BB24      		clr r11
 2753 0334 B394      		inc r11
 816:C:\Users\Hexma\Documents\Arduino\hardware\SMART-Response-XE-Low_level-master\avr\libraries\SmartResponseXE\SmartResponseXE.cpp ****             bOut |= fgColor0; // first pixel (3 bits)
 2754               		.loc 1 816 0 discriminator 1
 2755 0336 8A2D      		mov r24,r10
 2756 0338 8F71      		andi r24,lo8(31)
 817:C:\Users\Hexma\Documents\Arduino\hardware\SMART-Response-XE-Low_level-master\avr\libraries\SmartResponseXE\SmartResponseXE.cpp ****           }
 2757               		.loc 1 817 0 discriminator 1
GAS LISTING C:\Users\Hexma\AppData\Local\Temp\cc7G6F1c.s 			page 66


 2758 033a 182B      		or r17,r24
 2759               	.LVL244:
 2760               	.L98:
 2761               	.LBE39:
 800:C:\Users\Hexma\Documents\Arduino\hardware\SMART-Response-XE-Low_level-master\avr\libraries\SmartResponseXE\SmartResponseXE.cpp ****     {
 2762               		.loc 1 800 0 discriminator 1
 2763 033c C701      		movw r24,r14
 2764 033e 8219      		sub r24,r2
 2765 0340 9309      		sbc r25,r3
 2766 0342 8415      		cp r24,r4
 2767 0344 9505      		cpc r25,r5
 2768 0346 04F0      		brlt .+2
 2769 0348 00C0      		rjmp .L92
 2770               	.LBB40:
 804:C:\Users\Hexma\Documents\Arduino\hardware\SMART-Response-XE-Low_level-master\avr\libraries\SmartResponseXE\SmartResponseXE.cpp ****       memcpy_P(ucTemp, s, 8); // copy from FLASH memory
 2771               		.loc 1 804 0
 2772 034a D701      		movw r26,r14
 2773 034c 6D91      		ld r22,X+
 2774 034e 7D01      		movw r14,r26
 2775               	.LVL245:
 2776 0350 6052      		subi r22,32
 2777 0352 770B      		sbc r23,r23
 2778               	.LVL246:
 2779 0354 83E0      		ldi r24,3
 2780               		1:
 2781 0356 660F      		lsl r22
 2782 0358 771F      		rol r23
 2783 035a 8A95      		dec r24
 2784 035c 01F4      		brne 1b
 2785 035e 6050      		subi r22,lo8(-(_ZL6ucFont))
 2786 0360 7040      		sbci r23,hi8(-(_ZL6ucFont))
 2787               	.LVL247:
 805:C:\Users\Hexma\Documents\Arduino\hardware\SMART-Response-XE-Low_level-master\avr\libraries\SmartResponseXE\SmartResponseXE.cpp ****       // convert from 1-bpp to 2/3-bpp
 2788               		.loc 1 805 0
 2789 0362 48E0      		ldi r20,lo8(8)
 2790 0364 50E0      		ldi r21,0
 2791 0366 CE01      		movw r24,r28
 2792 0368 8B5A      		subi r24,-85
 2793 036a 9F4F      		sbci r25,-1
 2794 036c 0E94 0000 		call memcpy_P
 2795               	.LVL248:
 808:C:\Users\Hexma\Documents\Arduino\hardware\SMART-Response-XE-Low_level-master\avr\libraries\SmartResponseXE\SmartResponseXE.cpp ****       {
 2796               		.loc 1 808 0
 2797 0370 30E0      		ldi r19,0
 2798 0372 20E0      		ldi r18,0
 807:C:\Users\Hexma\Documents\Arduino\hardware\SMART-Response-XE-Low_level-master\avr\libraries\SmartResponseXE\SmartResponseXE.cpp ****       for (ty = 0; ty < 8; ty++)
 2799               		.loc 1 807 0
 2800 0374 CE01      		movw r24,r28
 2801 0376 0196      		adiw r24,1
 2802 0378 6C01      		movw r12,r24
 2803               	.LVL249:
 2804               	.L97:
 810:C:\Users\Hexma\Documents\Arduino\hardware\SMART-Response-XE-Low_level-master\avr\libraries\SmartResponseXE\SmartResponseXE.cpp ****         for (tx = 0; tx < 9; tx += 3) // 3 sets of 3 pixels
 2805               		.loc 1 810 0
 2806 037a 7B2D      		mov r23,r11
 2807 037c 022E      		mov r0,r18
 2808 037e 00C0      		rjmp 2f
GAS LISTING C:\Users\Hexma\AppData\Local\Temp\cc7G6F1c.s 			page 67


 2809               		1:
 2810 0380 770F      		lsl r23
 2811               		2:
 2812 0382 0A94      		dec r0
 2813 0384 02F4      		brpl 1b
 2814               	.LVL250:
 2815 0386 FE01      		movw r30,r28
 2816 0388 EB5A      		subi r30,-85
 2817 038a FF4F      		sbci r31,-1
 2818 038c DC01      		movw r26,r24
 811:C:\Users\Hexma\Documents\Arduino\hardware\SMART-Response-XE-Low_level-master\avr\libraries\SmartResponseXE\SmartResponseXE.cpp ****         {
 2819               		.loc 1 811 0
 2820 038e 50E0      		ldi r21,0
 2821 0390 40E0      		ldi r20,0
 2822               	.LVL251:
 2823               	.L96:
 814:C:\Users\Hexma\Documents\Arduino\hardware\SMART-Response-XE-Low_level-master\avr\libraries\SmartResponseXE\SmartResponseXE.cpp ****           {
 2824               		.loc 1 814 0
 2825 0392 6081      		ld r22,Z
 2826 0394 6723      		and r22,r23
 2827 0396 01F0      		breq .L114
 2828               	.LVL252:
 817:C:\Users\Hexma\Documents\Arduino\hardware\SMART-Response-XE-Low_level-master\avr\libraries\SmartResponseXE\SmartResponseXE.cpp ****           }
 2829               		.loc 1 817 0
 2830 0398 612F      		mov r22,r17
 2831               	.LVL253:
 2832               	.L93:
 819:C:\Users\Hexma\Documents\Arduino\hardware\SMART-Response-XE-Low_level-master\avr\libraries\SmartResponseXE\SmartResponseXE.cpp ****           {
 2833               		.loc 1 819 0
 2834 039a 6180      		ldd r6,Z+1
 2835 039c 6722      		and r6,r23
 2836 039e 01F0      		breq .L94
 821:C:\Users\Hexma\Documents\Arduino\hardware\SMART-Response-XE-Low_level-master\avr\libraries\SmartResponseXE\SmartResponseXE.cpp ****             bOut |= fgColor1; // second pixel (3 bits)
 2837               		.loc 1 821 0
 2838 03a0 637E      		andi r22,lo8(-29)
 2839               	.LVL254:
 822:C:\Users\Hexma\Documents\Arduino\hardware\SMART-Response-XE-Low_level-master\avr\libraries\SmartResponseXE\SmartResponseXE.cpp ****           }
 2840               		.loc 1 822 0
 2841 03a2 602B      		or r22,r16
 2842               	.LVL255:
 2843               	.L94:
 824:C:\Users\Hexma\Documents\Arduino\hardware\SMART-Response-XE-Low_level-master\avr\libraries\SmartResponseXE\SmartResponseXE.cpp ****               ucTemp[tx + 2] & bMask)
 2844               		.loc 1 824 0
 2845 03a4 4630      		cpi r20,6
 2846 03a6 5105      		cpc r21,__zero_reg__
 2847 03a8 01F0      		breq .L95
 825:C:\Users\Hexma\Documents\Arduino\hardware\SMART-Response-XE-Low_level-master\avr\libraries\SmartResponseXE\SmartResponseXE.cpp ****           {
 2848               		.loc 1 825 0 discriminator 1
 2849 03aa 6280      		ldd r6,Z+2
 2850 03ac 6722      		and r6,r23
 824:C:\Users\Hexma\Documents\Arduino\hardware\SMART-Response-XE-Low_level-master\avr\libraries\SmartResponseXE\SmartResponseXE.cpp ****               ucTemp[tx + 2] & bMask)
 2851               		.loc 1 824 0 discriminator 1
 2852 03ae 01F0      		breq .L95
 827:C:\Users\Hexma\Documents\Arduino\hardware\SMART-Response-XE-Low_level-master\avr\libraries\SmartResponseXE\SmartResponseXE.cpp ****             bOut |= fgColor2; // third pixel (2 bits)
 2853               		.loc 1 827 0
 2854 03b0 6C7F      		andi r22,lo8(-4)
 2855               	.LVL256:
GAS LISTING C:\Users\Hexma\AppData\Local\Temp\cc7G6F1c.s 			page 68


 828:C:\Users\Hexma\Documents\Arduino\hardware\SMART-Response-XE-Low_level-master\avr\libraries\SmartResponseXE\SmartResponseXE.cpp ****           }
 2856               		.loc 1 828 0
 2857 03b2 6729      		or r22,r7
 2858               	.LVL257:
 2859               	.L95:
 830:C:\Users\Hexma\Documents\Arduino\hardware\SMART-Response-XE-Low_level-master\avr\libraries\SmartResponseXE\SmartResponseXE.cpp ****         } // for tx
 2860               		.loc 1 830 0 discriminator 2
 2861 03b4 6D93      		st X+,r22
 2862               	.LVL258:
 811:C:\Users\Hexma\Documents\Arduino\hardware\SMART-Response-XE-Low_level-master\avr\libraries\SmartResponseXE\SmartResponseXE.cpp ****         {
 2863               		.loc 1 811 0 discriminator 2
 2864 03b6 4D5F      		subi r20,-3
 2865 03b8 5F4F      		sbci r21,-1
 2866               	.LVL259:
 2867 03ba 3396      		adiw r30,3
 2868 03bc 4930      		cpi r20,9
 2869 03be 5105      		cpc r21,__zero_reg__
 2870 03c0 01F4      		brne .L96
 2871               	.LVL260:
 2872 03c2 0396      		adiw r24,3
 2873               	.LVL261:
 808:C:\Users\Hexma\Documents\Arduino\hardware\SMART-Response-XE-Low_level-master\avr\libraries\SmartResponseXE\SmartResponseXE.cpp ****       {
 2874               		.loc 1 808 0 discriminator 2
 2875 03c4 2F5F      		subi r18,-1
 2876 03c6 3F4F      		sbci r19,-1
 2877               	.LVL262:
 2878 03c8 2830      		cpi r18,8
 2879 03ca 3105      		cpc r19,__zero_reg__
 2880 03cc 01F4      		brne .L97
 833:C:\Users\Hexma\Documents\Arduino\hardware\SMART-Response-XE-Low_level-master\avr\libraries\SmartResponseXE\SmartResponseXE.cpp ****       x += 9;
 2881               		.loc 1 833 0 discriminator 2
 2882 03ce 28E0      		ldi r18,lo8(8)
 2883 03d0 30E0      		ldi r19,0
 2884               	.LVL263:
 2885 03d2 49E0      		ldi r20,lo8(9)
 2886 03d4 50E0      		ldi r21,0
 2887 03d6 A396      		adiw r28,97-62
 2888 03d8 6EAD      		ldd r22,Y+62
 2889 03da 7FAD      		ldd r23,Y+63
 2890 03dc A397      		sbiw r28,97-62
 2891 03de C401      		movw r24,r8
 2892               	.LVL264:
 2893 03e0 0E94 0000 		call _Z15SRXESetPositioniiii
 2894               	.LVL265:
 834:C:\Users\Hexma\Documents\Arduino\hardware\SMART-Response-XE-Low_level-master\avr\libraries\SmartResponseXE\SmartResponseXE.cpp ****       SRXEWriteDataBlock(bTemp, 24); // write character pattern
 2895               		.loc 1 834 0 discriminator 2
 2896 03e4 B9E0      		ldi r27,9
 2897 03e6 8B0E      		add r8,r27
 2898 03e8 911C      		adc r9,__zero_reg__
 2899               	.LVL266:
 835:C:\Users\Hexma\Documents\Arduino\hardware\SMART-Response-XE-Low_level-master\avr\libraries\SmartResponseXE\SmartResponseXE.cpp ****     }
 2900               		.loc 1 835 0 discriminator 2
 2901 03ea 68E1      		ldi r22,lo8(24)
 2902 03ec 70E0      		ldi r23,0
 2903 03ee C601      		movw r24,r12
 2904 03f0 0E94 0000 		call _Z18SRXEWriteDataBlockPhi
 2905               	.LVL267:
GAS LISTING C:\Users\Hexma\AppData\Local\Temp\cc7G6F1c.s 			page 69


 2906               	.LBE40:
 800:C:\Users\Hexma\Documents\Arduino\hardware\SMART-Response-XE-Low_level-master\avr\libraries\SmartResponseXE\SmartResponseXE.cpp ****     {
 2907               		.loc 1 800 0 discriminator 2
 2908 03f4 00C0      		rjmp .L98
 2909               	.LVL268:
 2910               	.L114:
 2911               	.LBB41:
 813:C:\Users\Hexma\Documents\Arduino\hardware\SMART-Response-XE-Low_level-master\avr\libraries\SmartResponseXE\SmartResponseXE.cpp ****           if (ucTemp[tx] & bMask)
 2912               		.loc 1 813 0
 2913 03f6 6A2D      		mov r22,r10
 2914 03f8 00C0      		rjmp .L93
 2915               	.LVL269:
 2916               	.L90:
 2917               	.LBE41:
 2918               	.LBE38:
 2919               	.LBE44:
 2920               	.LBB45:
 840:C:\Users\Hexma\Documents\Arduino\hardware\SMART-Response-XE-Low_level-master\avr\libraries\SmartResponseXE\SmartResponseXE.cpp ****     if (iLen < 0)return -1;
 2921               		.loc 1 840 0
 2922 03fa 46E0      		ldi r20,lo8(6)
 2923 03fc 489F      		mul r20,r24
 2924 03fe 9001      		movw r18,r0
 2925 0400 499F      		mul r20,r25
 2926 0402 300D      		add r19,r0
 2927 0404 1124      		clr __zero_reg__
 2928 0406 280D      		add r18,r8
 2929 0408 391D      		adc r19,r9
 2930 040a 2138      		cpi r18,-127
 2931 040c 3140      		sbci r19,1
 2932               	.LVL270:
 2933 040e 04F0      		brlt .L99
 840:C:\Users\Hexma\Documents\Arduino\hardware\SMART-Response-XE-Low_level-master\avr\libraries\SmartResponseXE\SmartResponseXE.cpp ****     if (iLen < 0)return -1;
 2934               		.loc 1 840 0 is_stmt 0 discriminator 1
 2935 0410 80E8      		ldi r24,lo8(-128)
 2936 0412 91E0      		ldi r25,lo8(1)
 2937 0414 8819      		sub r24,r8
 2938 0416 9909      		sbc r25,r9
 2939 0418 66E0      		ldi r22,lo8(6)
 2940 041a 70E0      		ldi r23,0
 2941 041c 0E94 0000 		call __divmodhi4
 2942 0420 2B01      		movw r4,r22
 2943               	.LVL271:
 841:C:\Users\Hexma\Documents\Arduino\hardware\SMART-Response-XE-Low_level-master\avr\libraries\SmartResponseXE\SmartResponseXE.cpp **** 
 2944               		.loc 1 841 0 is_stmt 1 discriminator 1
 2945 0422 77FD      		sbrc r23,7
 2946 0424 00C0      		rjmp .L115
 2947               	.L99:
 2948               	.LBE45:
 2949               	.LBB50:
 2950               	.LBB43:
 2951               	.LBB42:
 813:C:\Users\Hexma\Documents\Arduino\hardware\SMART-Response-XE-Low_level-master\avr\libraries\SmartResponseXE\SmartResponseXE.cpp ****           if (ucTemp[tx] & bMask)
 2952               		.loc 1 813 0 discriminator 1
 2953 0426 6101      		movw r12,r2
 2954               	.LVL272:
 2955               	.LBE42:
 2956               	.LBE43:
GAS LISTING C:\Users\Hexma\AppData\Local\Temp\cc7G6F1c.s 			page 70


 2957               	.LBE50:
 2958               	.LBB51:
 2959               	.LBB46:
 2960               	.LBB47:
 859:C:\Users\Hexma\Documents\Arduino\hardware\SMART-Response-XE-Low_level-master\avr\libraries\SmartResponseXE\SmartResponseXE.cpp ****             bOut |= fgColor0; // first pixel (3 bits)
 2961               		.loc 1 859 0 discriminator 1
 2962 0428 8A2D      		mov r24,r10
 2963 042a 8F71      		andi r24,lo8(31)
 860:C:\Users\Hexma\Documents\Arduino\hardware\SMART-Response-XE-Low_level-master\avr\libraries\SmartResponseXE\SmartResponseXE.cpp ****           }
 2964               		.loc 1 860 0 discriminator 1
 2965 042c 182B      		or r17,r24
 2966               	.L107:
 2967               	.LVL273:
 2968               	.LBE47:
 843:C:\Users\Hexma\Documents\Arduino\hardware\SMART-Response-XE-Low_level-master\avr\libraries\SmartResponseXE\SmartResponseXE.cpp ****     {
 2969               		.loc 1 843 0 discriminator 1
 2970 042e C601      		movw r24,r12
 2971 0430 8219      		sub r24,r2
 2972 0432 9309      		sbc r25,r3
 2973 0434 8415      		cp r24,r4
 2974 0436 9505      		cpc r25,r5
 2975 0438 04F0      		brlt .+2
 2976 043a 00C0      		rjmp .L92
 2977               	.LBB48:
 847:C:\Users\Hexma\Documents\Arduino\hardware\SMART-Response-XE-Low_level-master\avr\libraries\SmartResponseXE\SmartResponseXE.cpp ****       memcpy_P(ucTemp, s, 6); // copy from FLASH memory
 2978               		.loc 1 847 0
 2979 043c D601      		movw r26,r12
 2980 043e 8D91      		ld r24,X+
 2981 0440 6D01      		movw r12,r26
 2982               	.LVL274:
 2983 0442 8052      		subi r24,32
 2984 0444 990B      		sbc r25,r25
 2985               	.LVL275:
 2986 0446 B6E0      		ldi r27,lo8(6)
 2987 0448 B89F      		mul r27,r24
 2988 044a B001      		movw r22,r0
 2989 044c B99F      		mul r27,r25
 2990 044e 700D      		add r23,r0
 2991 0450 1124      		clr __zero_reg__
 2992 0452 6050      		subi r22,lo8(-(_ZL11ucSmallFont))
 2993 0454 7040      		sbci r23,hi8(-(_ZL11ucSmallFont))
 848:C:\Users\Hexma\Documents\Arduino\hardware\SMART-Response-XE-Low_level-master\avr\libraries\SmartResponseXE\SmartResponseXE.cpp ****       // convert from 1-bpp to 2/3-bpp
 2994               		.loc 1 848 0
 2995 0456 46E0      		ldi r20,lo8(6)
 2996 0458 50E0      		ldi r21,0
 2997 045a CE01      		movw r24,r28
 2998 045c 8B5A      		subi r24,-85
 2999 045e 9F4F      		sbci r25,-1
 3000 0460 0E94 0000 		call memcpy_P
 3001               	.LVL276:
 857:C:\Users\Hexma\Documents\Arduino\hardware\SMART-Response-XE-Low_level-master\avr\libraries\SmartResponseXE\SmartResponseXE.cpp ****           {
 3002               		.loc 1 857 0
 3003 0464 6696      		adiw r28,85-63
 3004 0466 7FAD      		ldd r23,Y+63
 3005 0468 6697      		sbiw r28,85-63
 862:C:\Users\Hexma\Documents\Arduino\hardware\SMART-Response-XE-Low_level-master\avr\libraries\SmartResponseXE\SmartResponseXE.cpp ****           {
 3006               		.loc 1 862 0
GAS LISTING C:\Users\Hexma\AppData\Local\Temp\cc7G6F1c.s 			page 71


 3007 046a 6796      		adiw r28,86-63
 3008 046c 6FAD      		ldd r22,Y+63
 3009 046e 6797      		sbiw r28,86-63
 867:C:\Users\Hexma\Documents\Arduino\hardware\SMART-Response-XE-Low_level-master\avr\libraries\SmartResponseXE\SmartResponseXE.cpp ****           {
 3010               		.loc 1 867 0
 3011 0470 6896      		adiw r28,87-63
 3012 0472 9FAD      		ldd r25,Y+63
 3013 0474 6897      		sbiw r28,87-63
 857:C:\Users\Hexma\Documents\Arduino\hardware\SMART-Response-XE-Low_level-master\avr\libraries\SmartResponseXE\SmartResponseXE.cpp ****           {
 3014               		.loc 1 857 0
 3015 0476 6996      		adiw r28,88-63
 3016 0478 AFAD      		ldd r26,Y+63
 3017 047a 6997      		sbiw r28,88-63
 862:C:\Users\Hexma\Documents\Arduino\hardware\SMART-Response-XE-Low_level-master\avr\libraries\SmartResponseXE\SmartResponseXE.cpp ****           {
 3018               		.loc 1 862 0
 3019 047c 6A96      		adiw r28,89-63
 3020 047e BFAD      		ldd r27,Y+63
 3021 0480 6A97      		sbiw r28,89-63
 867:C:\Users\Hexma\Documents\Arduino\hardware\SMART-Response-XE-Low_level-master\avr\libraries\SmartResponseXE\SmartResponseXE.cpp ****           {
 3022               		.loc 1 867 0
 3023 0482 6B96      		adiw r28,90-63
 3024 0484 6FAC      		ldd r6,Y+63
 3025 0486 6B97      		sbiw r28,90-63
 850:C:\Users\Hexma\Documents\Arduino\hardware\SMART-Response-XE-Low_level-master\avr\libraries\SmartResponseXE\SmartResponseXE.cpp ****       for (ty = 0; ty < 8; ty++)
 3026               		.loc 1 850 0
 3027 0488 FE01      		movw r30,r28
 3028 048a 3196      		adiw r30,1
 851:C:\Users\Hexma\Documents\Arduino\hardware\SMART-Response-XE-Low_level-master\avr\libraries\SmartResponseXE\SmartResponseXE.cpp ****       {
 3029               		.loc 1 851 0
 3030 048c 50E0      		ldi r21,0
 3031 048e 40E0      		ldi r20,0
 3032 0490 7F01      		movw r14,r30
 3033               	.LVL277:
 3034               	.L106:
 853:C:\Users\Hexma\Documents\Arduino\hardware\SMART-Response-XE-Low_level-master\avr\libraries\SmartResponseXE\SmartResponseXE.cpp ****         for (tx = 0; tx < 6; tx += 3) // 2 sets of 3 pixels
 3035               		.loc 1 853 0
 3036 0492 21E0      		ldi r18,lo8(1)
 3037 0494 30E0      		ldi r19,0
 3038 0496 042E      		mov r0,r20
 3039 0498 00C0      		rjmp 2f
 3040               		1:
 3041 049a 220F      		lsl r18
 3042               		2:
 3043 049c 0A94      		dec r0
 3044 049e 02F4      		brpl 1b
 3045               	.LVL278:
 857:C:\Users\Hexma\Documents\Arduino\hardware\SMART-Response-XE-Low_level-master\avr\libraries\SmartResponseXE\SmartResponseXE.cpp ****           {
 3046               		.loc 1 857 0
 3047 04a0 872F      		mov r24,r23
 3048 04a2 8223      		and r24,r18
 3049 04a4 01F0      		breq .L116
 3050               	.LVL279:
 860:C:\Users\Hexma\Documents\Arduino\hardware\SMART-Response-XE-Low_level-master\avr\libraries\SmartResponseXE\SmartResponseXE.cpp ****           }
 3051               		.loc 1 860 0
 3052 04a6 812F      		mov r24,r17
 3053               	.LVL280:
 3054               	.L100:
GAS LISTING C:\Users\Hexma\AppData\Local\Temp\cc7G6F1c.s 			page 72


 862:C:\Users\Hexma\Documents\Arduino\hardware\SMART-Response-XE-Low_level-master\avr\libraries\SmartResponseXE\SmartResponseXE.cpp ****           {
 3055               		.loc 1 862 0
 3056 04a8 B62E      		mov r11,r22
 3057 04aa B222      		and r11,r18
 3058 04ac 01F0      		breq .L101
 864:C:\Users\Hexma\Documents\Arduino\hardware\SMART-Response-XE-Low_level-master\avr\libraries\SmartResponseXE\SmartResponseXE.cpp ****             bOut |= fgColor1; // second pixel (3 bits)
 3059               		.loc 1 864 0
 3060 04ae 837E      		andi r24,lo8(-29)
 3061               	.LVL281:
 865:C:\Users\Hexma\Documents\Arduino\hardware\SMART-Response-XE-Low_level-master\avr\libraries\SmartResponseXE\SmartResponseXE.cpp ****           }
 3062               		.loc 1 865 0
 3063 04b0 802B      		or r24,r16
 3064               	.LVL282:
 3065               	.L101:
 867:C:\Users\Hexma\Documents\Arduino\hardware\SMART-Response-XE-Low_level-master\avr\libraries\SmartResponseXE\SmartResponseXE.cpp ****           {
 3066               		.loc 1 867 0
 3067 04b2 B92E      		mov r11,r25
 3068 04b4 B222      		and r11,r18
 3069 04b6 01F0      		breq .L102
 869:C:\Users\Hexma\Documents\Arduino\hardware\SMART-Response-XE-Low_level-master\avr\libraries\SmartResponseXE\SmartResponseXE.cpp ****             bOut |= fgColor2; // third pixel (2 bits)
 3070               		.loc 1 869 0
 3071 04b8 8C7F      		andi r24,lo8(-4)
 3072               	.LVL283:
 870:C:\Users\Hexma\Documents\Arduino\hardware\SMART-Response-XE-Low_level-master\avr\libraries\SmartResponseXE\SmartResponseXE.cpp ****           }
 3073               		.loc 1 870 0
 3074 04ba 8729      		or r24,r7
 3075               	.LVL284:
 3076               	.L102:
 872:C:\Users\Hexma\Documents\Arduino\hardware\SMART-Response-XE-Low_level-master\avr\libraries\SmartResponseXE\SmartResponseXE.cpp ****         } // for tx
 3077               		.loc 1 872 0
 3078 04bc 8083      		st Z,r24
 3079               	.LVL285:
 857:C:\Users\Hexma\Documents\Arduino\hardware\SMART-Response-XE-Low_level-master\avr\libraries\SmartResponseXE\SmartResponseXE.cpp ****           {
 3080               		.loc 1 857 0
 3081 04be 8A2F      		mov r24,r26
 3082 04c0 8223      		and r24,r18
 3083 04c2 01F0      		breq .L117
 3084               	.LVL286:
 860:C:\Users\Hexma\Documents\Arduino\hardware\SMART-Response-XE-Low_level-master\avr\libraries\SmartResponseXE\SmartResponseXE.cpp ****           }
 3085               		.loc 1 860 0
 3086 04c4 812F      		mov r24,r17
 3087               	.LVL287:
 3088               	.L103:
 862:C:\Users\Hexma\Documents\Arduino\hardware\SMART-Response-XE-Low_level-master\avr\libraries\SmartResponseXE\SmartResponseXE.cpp ****           {
 3089               		.loc 1 862 0
 3090 04c6 BB2E      		mov r11,r27
 3091 04c8 B222      		and r11,r18
 3092 04ca 01F0      		breq .L104
 864:C:\Users\Hexma\Documents\Arduino\hardware\SMART-Response-XE-Low_level-master\avr\libraries\SmartResponseXE\SmartResponseXE.cpp ****             bOut |= fgColor1; // second pixel (3 bits)
 3093               		.loc 1 864 0
 3094 04cc 837E      		andi r24,lo8(-29)
 3095               	.LVL288:
 865:C:\Users\Hexma\Documents\Arduino\hardware\SMART-Response-XE-Low_level-master\avr\libraries\SmartResponseXE\SmartResponseXE.cpp ****           }
 3096               		.loc 1 865 0
 3097 04ce 802B      		or r24,r16
 3098               	.LVL289:
 3099               	.L104:
GAS LISTING C:\Users\Hexma\AppData\Local\Temp\cc7G6F1c.s 			page 73


 867:C:\Users\Hexma\Documents\Arduino\hardware\SMART-Response-XE-Low_level-master\avr\libraries\SmartResponseXE\SmartResponseXE.cpp ****           {
 3100               		.loc 1 867 0
 3101 04d0 2621      		and r18,r6
 3102               	.LVL290:
 3103 04d2 01F0      		breq .L105
 869:C:\Users\Hexma\Documents\Arduino\hardware\SMART-Response-XE-Low_level-master\avr\libraries\SmartResponseXE\SmartResponseXE.cpp ****             bOut |= fgColor2; // third pixel (2 bits)
 3104               		.loc 1 869 0
 3105 04d4 8C7F      		andi r24,lo8(-4)
 3106               	.LVL291:
 870:C:\Users\Hexma\Documents\Arduino\hardware\SMART-Response-XE-Low_level-master\avr\libraries\SmartResponseXE\SmartResponseXE.cpp ****           }
 3107               		.loc 1 870 0
 3108 04d6 8729      		or r24,r7
 3109               	.LVL292:
 3110               	.L105:
 872:C:\Users\Hexma\Documents\Arduino\hardware\SMART-Response-XE-Low_level-master\avr\libraries\SmartResponseXE\SmartResponseXE.cpp ****         } // for tx
 3111               		.loc 1 872 0 discriminator 2
 3112 04d8 8183      		std Z+1,r24
 3113               	.LVL293:
 3114 04da 3296      		adiw r30,2
 3115               	.LVL294:
 851:C:\Users\Hexma\Documents\Arduino\hardware\SMART-Response-XE-Low_level-master\avr\libraries\SmartResponseXE\SmartResponseXE.cpp ****       {
 3116               		.loc 1 851 0 discriminator 2
 3117 04dc 4F5F      		subi r20,-1
 3118 04de 5F4F      		sbci r21,-1
 3119               	.LVL295:
 3120 04e0 4830      		cpi r20,8
 3121 04e2 5105      		cpc r21,__zero_reg__
 3122 04e4 01F4      		brne .L106
 875:C:\Users\Hexma\Documents\Arduino\hardware\SMART-Response-XE-Low_level-master\avr\libraries\SmartResponseXE\SmartResponseXE.cpp ****       x += 6;
 3123               		.loc 1 875 0 discriminator 2
 3124 04e6 28E0      		ldi r18,lo8(8)
 3125 04e8 30E0      		ldi r19,0
 3126 04ea 46E0      		ldi r20,lo8(6)
 3127 04ec 50E0      		ldi r21,0
 3128               	.LVL296:
 3129 04ee A396      		adiw r28,97-62
 3130 04f0 6EAD      		ldd r22,Y+62
 3131 04f2 7FAD      		ldd r23,Y+63
 3132 04f4 A397      		sbiw r28,97-62
 3133 04f6 C401      		movw r24,r8
 3134               	.LVL297:
 3135 04f8 0E94 0000 		call _Z15SRXESetPositioniiii
 3136               	.LVL298:
 876:C:\Users\Hexma\Documents\Arduino\hardware\SMART-Response-XE-Low_level-master\avr\libraries\SmartResponseXE\SmartResponseXE.cpp ****       SRXEWriteDataBlock(bTemp, 16); // write character pattern
 3137               		.loc 1 876 0 discriminator 2
 3138 04fc E6E0      		ldi r30,6
 3139 04fe 8E0E      		add r8,r30
 3140 0500 911C      		adc r9,__zero_reg__
 3141               	.LVL299:
 877:C:\Users\Hexma\Documents\Arduino\hardware\SMART-Response-XE-Low_level-master\avr\libraries\SmartResponseXE\SmartResponseXE.cpp ****     }
 3142               		.loc 1 877 0 discriminator 2
 3143 0502 60E1      		ldi r22,lo8(16)
 3144 0504 70E0      		ldi r23,0
 3145 0506 C701      		movw r24,r14
 3146 0508 0E94 0000 		call _Z18SRXEWriteDataBlockPhi
 3147               	.LVL300:
 3148               	.LBE48:
GAS LISTING C:\Users\Hexma\AppData\Local\Temp\cc7G6F1c.s 			page 74


 843:C:\Users\Hexma\Documents\Arduino\hardware\SMART-Response-XE-Low_level-master\avr\libraries\SmartResponseXE\SmartResponseXE.cpp ****     {
 3149               		.loc 1 843 0 discriminator 2
 3150 050c 00C0      		rjmp .L107
 3151               	.LVL301:
 3152               	.L116:
 3153               	.LBB49:
 856:C:\Users\Hexma\Documents\Arduino\hardware\SMART-Response-XE-Low_level-master\avr\libraries\SmartResponseXE\SmartResponseXE.cpp ****           if (ucTemp[tx] & bMask)
 3154               		.loc 1 856 0
 3155 050e 8A2D      		mov r24,r10
 3156 0510 00C0      		rjmp .L100
 3157               	.LVL302:
 3158               	.L117:
 3159 0512 8A2D      		mov r24,r10
 3160 0514 00C0      		rjmp .L103
 3161               	.LVL303:
 3162               	.L115:
 3163               	.LBE49:
 3164               	.LBE46:
 3165               	.LBE51:
 3166               	.LBE53:
 3167               	.LBB54:
 741:C:\Users\Hexma\Documents\Arduino\hardware\SMART-Response-XE-Low_level-master\avr\libraries\SmartResponseXE\SmartResponseXE.cpp ****     for (i = 0; i < iLen; i++)
 3168               		.loc 1 741 0
 3169 0516 8FEF      		ldi r24,lo8(-1)
 3170 0518 9FEF      		ldi r25,lo8(-1)
 3171 051a 00C0      		rjmp .L72
 3172               	.LBE54:
 3173               	.LBE55:
 3174               		.cfi_endproc
 3175               	.LFE136:
 3177               		.section	.text._Z8SRXEFillh,"ax",@progbits
 3178               	.global	_Z8SRXEFillh
 3180               	_Z8SRXEFillh:
 3181               	.LFB137:
 882:C:\Users\Hexma\Documents\Arduino\hardware\SMART-Response-XE-Low_level-master\avr\libraries\SmartResponseXE\SmartResponseXE.cpp **** 
 883:C:\Users\Hexma\Documents\Arduino\hardware\SMART-Response-XE-Low_level-master\avr\libraries\SmartResponseXE\SmartResponseXE.cpp **** 
 884:C:\Users\Hexma\Documents\Arduino\hardware\SMART-Response-XE-Low_level-master\avr\libraries\SmartResponseXE\SmartResponseXE.cpp **** // Fill the frame buffer with a byte pattern
 885:C:\Users\Hexma\Documents\Arduino\hardware\SMART-Response-XE-Low_level-master\avr\libraries\SmartResponseXE\SmartResponseXE.cpp **** // e.g. all off (0x00) or all on (0xff)
 886:C:\Users\Hexma\Documents\Arduino\hardware\SMART-Response-XE-Low_level-master\avr\libraries\SmartResponseXE\SmartResponseXE.cpp **** void SRXEFill(byte ucData)
 887:C:\Users\Hexma\Documents\Arduino\hardware\SMART-Response-XE-Low_level-master\avr\libraries\SmartResponseXE\SmartResponseXE.cpp **** {
 3182               		.loc 1 887 0
 3183               		.cfi_startproc
 3184               	.LVL304:
 3185 0000 EF92      		push r14
 3186               	.LCFI131:
 3187               		.cfi_def_cfa_offset 3
 3188               		.cfi_offset 14, -2
 3189 0002 FF92      		push r15
 3190               	.LCFI132:
 3191               		.cfi_def_cfa_offset 4
 3192               		.cfi_offset 15, -3
 3193 0004 0F93      		push r16
 3194               	.LCFI133:
 3195               		.cfi_def_cfa_offset 5
 3196               		.cfi_offset 16, -4
 3197 0006 1F93      		push r17
 3198               	.LCFI134:
GAS LISTING C:\Users\Hexma\AppData\Local\Temp\cc7G6F1c.s 			page 75


 3199               		.cfi_def_cfa_offset 6
 3200               		.cfi_offset 17, -5
 3201 0008 CF93      		push r28
 3202               	.LCFI135:
 3203               		.cfi_def_cfa_offset 7
 3204               		.cfi_offset 28, -6
 3205 000a DF93      		push r29
 3206               	.LCFI136:
 3207               		.cfi_def_cfa_offset 8
 3208               		.cfi_offset 29, -7
 3209 000c CDB7      		in r28,__SP_L__
 3210 000e DEB7      		in r29,__SP_H__
 3211               	.LCFI137:
 3212               		.cfi_def_cfa_register 28
 3213 0010 C058      		subi r28,-128
 3214 0012 D109      		sbc r29,__zero_reg__
 3215               	.LCFI138:
 3216               		.cfi_def_cfa_offset 136
 3217 0014 0FB6      		in __tmp_reg__,__SREG__
 3218 0016 F894      		cli
 3219 0018 DEBF      		out __SP_H__,r29
 3220 001a 0FBE      		out __SREG__,__tmp_reg__
 3221 001c CDBF      		out __SP_L__,r28
 3222               	/* prologue: function */
 3223               	/* frame size = 128 */
 3224               	/* stack size = 134 */
 3225               	.L__stack_usage = 134
 3226 001e E82E      		mov r14,r24
 3227               	.LVL305:
 3228               	.LBB56:
 3229               	.LBB57:
 3230 0020 28E8      		ldi r18,lo8(-120)
 3231 0022 30E0      		ldi r19,0
 3232 0024 40E8      		ldi r20,lo8(-128)
 3233 0026 51E0      		ldi r21,lo8(1)
 3234 0028 70E0      		ldi r23,0
 3235 002a 60E0      		ldi r22,0
 3236 002c 90E0      		ldi r25,0
 3237 002e 80E0      		ldi r24,0
 3238               	.LVL306:
 3239 0030 0E94 0000 		call _Z15SRXESetPositioniiii.part.0
 3240               	.LVL307:
 3241 0034 08E8      		ldi r16,lo8(-120)
 3242 0036 10E0      		ldi r17,0
 3243               	.LBE57:
 3244               	.LBE56:
 888:C:\Users\Hexma\Documents\Arduino\hardware\SMART-Response-XE-Low_level-master\avr\libraries\SmartResponseXE\SmartResponseXE.cpp ****   int y;
 889:C:\Users\Hexma\Documents\Arduino\hardware\SMART-Response-XE-Low_level-master\avr\libraries\SmartResponseXE\SmartResponseXE.cpp ****   byte temp[128];
 890:C:\Users\Hexma\Documents\Arduino\hardware\SMART-Response-XE-Low_level-master\avr\libraries\SmartResponseXE\SmartResponseXE.cpp **** 
 891:C:\Users\Hexma\Documents\Arduino\hardware\SMART-Response-XE-Low_level-master\avr\libraries\SmartResponseXE\SmartResponseXE.cpp ****   SRXESetPosition(0, 0, 384, 136);
 892:C:\Users\Hexma\Documents\Arduino\hardware\SMART-Response-XE-Low_level-master\avr\libraries\SmartResponseXE\SmartResponseXE.cpp ****   for (y = 0; y < 136; y++)
 893:C:\Users\Hexma\Documents\Arduino\hardware\SMART-Response-XE-Low_level-master\avr\libraries\SmartResponseXE\SmartResponseXE.cpp ****   {
 894:C:\Users\Hexma\Documents\Arduino\hardware\SMART-Response-XE-Low_level-master\avr\libraries\SmartResponseXE\SmartResponseXE.cpp ****     memset(temp, ucData, 128); // have to do this because the bytes get overwritten
 3245               		.loc 1 894 0
 3246 0038 F12C      		mov r15,__zero_reg__
 3247               	.LVL308:
 3248               	.L151:
GAS LISTING C:\Users\Hexma\AppData\Local\Temp\cc7G6F1c.s 			page 76


 3249               		.loc 1 894 0 is_stmt 0 discriminator 2
 3250 003a 40E8      		ldi r20,lo8(-128)
 3251 003c 50E0      		ldi r21,0
 3252 003e B701      		movw r22,r14
 3253 0040 CE01      		movw r24,r28
 3254 0042 0196      		adiw r24,1
 3255 0044 0E94 0000 		call memset
 3256               	.LVL309:
 895:C:\Users\Hexma\Documents\Arduino\hardware\SMART-Response-XE-Low_level-master\avr\libraries\SmartResponseXE\SmartResponseXE.cpp ****     SRXEWriteDataBlock(temp, 128); // fill with data byte
 3257               		.loc 1 895 0 is_stmt 1 discriminator 2
 3258 0048 60E8      		ldi r22,lo8(-128)
 3259 004a 70E0      		ldi r23,0
 3260 004c CE01      		movw r24,r28
 3261 004e 0196      		adiw r24,1
 3262 0050 0E94 0000 		call _Z18SRXEWriteDataBlockPhi
 3263               	.LVL310:
 3264 0054 0150      		subi r16,1
 3265 0056 1109      		sbc r17,__zero_reg__
 3266               	.LVL311:
 892:C:\Users\Hexma\Documents\Arduino\hardware\SMART-Response-XE-Low_level-master\avr\libraries\SmartResponseXE\SmartResponseXE.cpp ****   {
 3267               		.loc 1 892 0 discriminator 2
 3268 0058 01F4      		brne .L151
 3269               	/* epilogue start */
 896:C:\Users\Hexma\Documents\Arduino\hardware\SMART-Response-XE-Low_level-master\avr\libraries\SmartResponseXE\SmartResponseXE.cpp ****   }
 897:C:\Users\Hexma\Documents\Arduino\hardware\SMART-Response-XE-Low_level-master\avr\libraries\SmartResponseXE\SmartResponseXE.cpp **** } /* SRXEFill() */
 3270               		.loc 1 897 0
 3271 005a C058      		subi r28,-128
 3272 005c DF4F      		sbci r29,-1
 3273 005e 0FB6      		in __tmp_reg__,__SREG__
 3274 0060 F894      		cli
 3275 0062 DEBF      		out __SP_H__,r29
 3276 0064 0FBE      		out __SREG__,__tmp_reg__
 3277 0066 CDBF      		out __SP_L__,r28
 3278 0068 DF91      		pop r29
 3279 006a CF91      		pop r28
 3280 006c 1F91      		pop r17
 3281 006e 0F91      		pop r16
 3282               	.LVL312:
 3283 0070 FF90      		pop r15
 3284 0072 EF90      		pop r14
 3285               	.LVL313:
 3286 0074 0895      		ret
 3287               		.cfi_endproc
 3288               	.LFE137:
 3290               		.section	.text._Z8SRXEInitiii,"ax",@progbits
 3291               	.global	_Z8SRXEInitiii
 3293               	_Z8SRXEInitiii:
 3294               	.LFB123:
 470:C:\Users\Hexma\Documents\Arduino\hardware\SMART-Response-XE-Low_level-master\avr\libraries\SmartResponseXE\SmartResponseXE.cpp ****   byte uc, ucTemp[8];
 3295               		.loc 1 470 0
 3296               		.cfi_startproc
 3297               	.LVL314:
 3298 0000 1F93      		push r17
 3299               	.LCFI139:
 3300               		.cfi_def_cfa_offset 3
 3301               		.cfi_offset 17, -2
 3302 0002 CF93      		push r28
GAS LISTING C:\Users\Hexma\AppData\Local\Temp\cc7G6F1c.s 			page 77


 3303               	.LCFI140:
 3304               		.cfi_def_cfa_offset 4
 3305               		.cfi_offset 28, -3
 3306 0004 DF93      		push r29
 3307               	.LCFI141:
 3308               		.cfi_def_cfa_offset 5
 3309               		.cfi_offset 29, -4
 3310               	/* prologue: function */
 3311               	/* frame size = 0 */
 3312               	/* stack size = 3 */
 3313               	.L__stack_usage = 3
 3314 0006 D82F      		mov r29,r24
 3315 0008 162F      		mov r17,r22
 3316 000a C42F      		mov r28,r20
 473:C:\Users\Hexma\Documents\Arduino\hardware\SMART-Response-XE-Low_level-master\avr\libraries\SmartResponseXE\SmartResponseXE.cpp ****   iDCPin = iDC;
 3317               		.loc 1 473 0
 3318 000c 8093 0000 		sts _ZL6iCSPin,r24
 474:C:\Users\Hexma\Documents\Arduino\hardware\SMART-Response-XE-Low_level-master\avr\libraries\SmartResponseXE\SmartResponseXE.cpp ****   iResetPin = iReset;
 3319               		.loc 1 474 0
 3320 0010 6093 0000 		sts _ZL6iDCPin,r22
 475:C:\Users\Hexma\Documents\Arduino\hardware\SMART-Response-XE-Low_level-master\avr\libraries\SmartResponseXE\SmartResponseXE.cpp **** 
 3321               		.loc 1 475 0
 3322 0014 4093 0000 		sts _ZL9iResetPin,r20
 477:C:\Users\Hexma\Documents\Arduino\hardware\SMART-Response-XE-Low_level-master\avr\libraries\SmartResponseXE\SmartResponseXE.cpp ****   mypinMode(iCSPin, OUTPUT);
 3323               		.loc 1 477 0
 3324 0018 0E94 0000 		call _Z8SPI_Initv
 3325               	.LVL315:
 478:C:\Users\Hexma\Documents\Arduino\hardware\SMART-Response-XE-Low_level-master\avr\libraries\SmartResponseXE\SmartResponseXE.cpp ****   mypinMode(CS_FLASH, OUTPUT); // in case we want to use the SPI flash
 3326               		.loc 1 478 0
 3327 001c 61E0      		ldi r22,lo8(1)
 3328 001e 8D2F      		mov r24,r29
 3329 0020 0E94 0000 		call _Z9mypinModehh
 3330               	.LVL316:
 479:C:\Users\Hexma\Documents\Arduino\hardware\SMART-Response-XE-Low_level-master\avr\libraries\SmartResponseXE\SmartResponseXE.cpp ****   mydigitalWrite(iCSPin, HIGH);
 3331               		.loc 1 479 0
 3332 0024 61E0      		ldi r22,lo8(1)
 3333 0026 83ED      		ldi r24,lo8(-45)
 3334 0028 0E94 0000 		call _Z9mypinModehh
 3335               	.LVL317:
 480:C:\Users\Hexma\Documents\Arduino\hardware\SMART-Response-XE-Low_level-master\avr\libraries\SmartResponseXE\SmartResponseXE.cpp **** 
 3336               		.loc 1 480 0
 3337 002c 61E0      		ldi r22,lo8(1)
 3338 002e 8D2F      		mov r24,r29
 3339 0030 0E94 0000 		call _Z14mydigitalWritehh
 3340               	.LVL318:
 482:C:\Users\Hexma\Documents\Arduino\hardware\SMART-Response-XE-Low_level-master\avr\libraries\SmartResponseXE\SmartResponseXE.cpp ****   mypinMode(iResetPin, OUTPUT);
 3341               		.loc 1 482 0
 3342 0034 61E0      		ldi r22,lo8(1)
 3343 0036 812F      		mov r24,r17
 3344 0038 0E94 0000 		call _Z9mypinModehh
 3345               	.LVL319:
 483:C:\Users\Hexma\Documents\Arduino\hardware\SMART-Response-XE-Low_level-master\avr\libraries\SmartResponseXE\SmartResponseXE.cpp **** 
 3346               		.loc 1 483 0
 3347 003c 61E0      		ldi r22,lo8(1)
 3348 003e 8C2F      		mov r24,r28
 3349 0040 0E94 0000 		call _Z9mypinModehh
 3350               	.LVL320:
GAS LISTING C:\Users\Hexma\AppData\Local\Temp\cc7G6F1c.s 			page 78


 486:C:\Users\Hexma\Documents\Arduino\hardware\SMART-Response-XE-Low_level-master\avr\libraries\SmartResponseXE\SmartResponseXE.cpp ****   delay(50);
 3351               		.loc 1 486 0
 3352 0044 61E0      		ldi r22,lo8(1)
 3353 0046 8C2F      		mov r24,r28
 3354 0048 0E94 0000 		call _Z14mydigitalWritehh
 3355               	.LVL321:
 487:C:\Users\Hexma\Documents\Arduino\hardware\SMART-Response-XE-Low_level-master\avr\libraries\SmartResponseXE\SmartResponseXE.cpp ****   mydigitalWrite(iResetPin, LOW);
 3356               		.loc 1 487 0
 3357 004c 62E3      		ldi r22,lo8(50)
 3358 004e 70E0      		ldi r23,0
 3359 0050 80E0      		ldi r24,0
 3360 0052 90E0      		ldi r25,0
 3361 0054 0E94 0000 		call delay
 3362               	.LVL322:
 488:C:\Users\Hexma\Documents\Arduino\hardware\SMART-Response-XE-Low_level-master\avr\libraries\SmartResponseXE\SmartResponseXE.cpp ****   delay(5);
 3363               		.loc 1 488 0
 3364 0058 60E0      		ldi r22,0
 3365 005a 8091 0000 		lds r24,_ZL9iResetPin
 3366 005e 0E94 0000 		call _Z14mydigitalWritehh
 3367               	.LVL323:
 489:C:\Users\Hexma\Documents\Arduino\hardware\SMART-Response-XE-Low_level-master\avr\libraries\SmartResponseXE\SmartResponseXE.cpp ****   mydigitalWrite(iResetPin, HIGH); // take it out of reset
 3368               		.loc 1 489 0
 3369 0062 65E0      		ldi r22,lo8(5)
 3370 0064 70E0      		ldi r23,0
 3371 0066 80E0      		ldi r24,0
 3372 0068 90E0      		ldi r25,0
 3373 006a 0E94 0000 		call delay
 3374               	.LVL324:
 490:C:\Users\Hexma\Documents\Arduino\hardware\SMART-Response-XE-Low_level-master\avr\libraries\SmartResponseXE\SmartResponseXE.cpp ****   delay(150); // datasheet says it must be at least 120ms
 3375               		.loc 1 490 0
 3376 006e 61E0      		ldi r22,lo8(1)
 3377 0070 8091 0000 		lds r24,_ZL9iResetPin
 3378 0074 0E94 0000 		call _Z14mydigitalWritehh
 3379               	.LVL325:
 491:C:\Users\Hexma\Documents\Arduino\hardware\SMART-Response-XE-Low_level-master\avr\libraries\SmartResponseXE\SmartResponseXE.cpp **** 
 3380               		.loc 1 491 0
 3381 0078 66E9      		ldi r22,lo8(-106)
 3382 007a 70E0      		ldi r23,0
 3383 007c 80E0      		ldi r24,0
 3384 007e 90E0      		ldi r25,0
 3385 0080 0E94 0000 		call delay
 3386               	.LVL326:
 495:C:\Users\Hexma\Documents\Arduino\hardware\SMART-Response-XE-Low_level-master\avr\libraries\SmartResponseXE\SmartResponseXE.cpp **** 
 3387               		.loc 1 495 0
 3388 0084 0E94 0000 		call _Z11SRXEPowerUpv
 3389               	.LVL327:
 497:C:\Users\Hexma\Documents\Arduino\hardware\SMART-Response-XE-Low_level-master\avr\libraries\SmartResponseXE\SmartResponseXE.cpp ****   return 0;
 3390               		.loc 1 497 0
 3391 0088 80E0      		ldi r24,0
 3392 008a 0E94 0000 		call _Z8SRXEFillh
 3393               	.LVL328:
 500:C:\Users\Hexma\Documents\Arduino\hardware\SMART-Response-XE-Low_level-master\avr\libraries\SmartResponseXE\SmartResponseXE.cpp **** 
 3394               		.loc 1 500 0
 3395 008e 90E0      		ldi r25,0
 3396 0090 80E0      		ldi r24,0
 3397               	/* epilogue start */
 3398 0092 DF91      		pop r29
GAS LISTING C:\Users\Hexma\AppData\Local\Temp\cc7G6F1c.s 			page 79


 3399 0094 CF91      		pop r28
 3400 0096 1F91      		pop r17
 3401 0098 0895      		ret
 3402               		.cfi_endproc
 3403               	.LFE123:
 3405               		.section	.text._Z13SRXEPowerDownv,"ax",@progbits
 3406               	.global	_Z13SRXEPowerDownv
 3408               	_Z13SRXEPowerDownv:
 3409               	.LFB124:
 507:C:\Users\Hexma\Documents\Arduino\hardware\SMART-Response-XE-Low_level-master\avr\libraries\SmartResponseXE\SmartResponseXE.cpp ****   SRXEFill(0); // fill memory with zeros to go to lowest power mode
 3410               		.loc 1 507 0
 3411               		.cfi_startproc
 3412               	/* prologue: function */
 3413               	/* frame size = 0 */
 3414               	/* stack size = 0 */
 3415               	.L__stack_usage = 0
 508:C:\Users\Hexma\Documents\Arduino\hardware\SMART-Response-XE-Low_level-master\avr\libraries\SmartResponseXE\SmartResponseXE.cpp ****   SRXEWriteCommand(0x28); // Display OFF
 3416               		.loc 1 508 0
 3417 0000 80E0      		ldi r24,0
 3418 0002 0E94 0000 		call _Z8SRXEFillh
 3419               	.LVL329:
 509:C:\Users\Hexma\Documents\Arduino\hardware\SMART-Response-XE-Low_level-master\avr\libraries\SmartResponseXE\SmartResponseXE.cpp ****   SRXEWriteCommand(0x10); // Sleep in
 3420               		.loc 1 509 0
 3421 0006 88E2      		ldi r24,lo8(40)
 3422 0008 0E94 0000 		call _ZL16SRXEWriteCommandh
 3423               	.LVL330:
 510:C:\Users\Hexma\Documents\Arduino\hardware\SMART-Response-XE-Low_level-master\avr\libraries\SmartResponseXE\SmartResponseXE.cpp **** } /* SRXEPowerDown() */
 3424               		.loc 1 510 0
 3425 000c 80E1      		ldi r24,lo8(16)
 3426 000e 0C94 0000 		jmp _ZL16SRXEWriteCommandh
 3427               	.LVL331:
 3428               		.cfi_endproc
 3429               	.LFE124:
 3431               		.section	.text._Z9SRXESleepv,"ax",@progbits
 3432               	.global	_Z9SRXESleepv
 3434               	_Z9SRXESleepv:
 3435               	.LFB117:
 327:C:\Users\Hexma\Documents\Arduino\hardware\SMART-Response-XE-Low_level-master\avr\libraries\SmartResponseXE\SmartResponseXE.cpp ****   // Turn off the LCD
 3436               		.loc 1 327 0
 3437               		.cfi_startproc
 3438               	/* prologue: function */
 3439               	/* frame size = 0 */
 3440               	/* stack size = 0 */
 3441               	.L__stack_usage = 0
 329:C:\Users\Hexma\Documents\Arduino\hardware\SMART-Response-XE-Low_level-master\avr\libraries\SmartResponseXE\SmartResponseXE.cpp **** 
 3442               		.loc 1 329 0
 3443 0000 0E94 0000 		call _Z13SRXEPowerDownv
 3444               	.LVL332:
 331:C:\Users\Hexma\Documents\Arduino\hardware\SMART-Response-XE-Low_level-master\avr\libraries\SmartResponseXE\SmartResponseXE.cpp **** 
 3445               		.loc 1 331 0
 3446 0004 82E0      		ldi r24,lo8(2)
 3447 0006 8093 3901 		sts 313,r24
 334:C:\Users\Hexma\Documents\Arduino\hardware\SMART-Response-XE-Low_level-master\avr\libraries\SmartResponseXE\SmartResponseXE.cpp ****   DDRD &= ~(1 << PORTD2); //PIN INT2 as input
 3448               		.loc 1 334 0
 3449 000a 1092 7A00 		sts 122,__zero_reg__
 335:C:\Users\Hexma\Documents\Arduino\hardware\SMART-Response-XE-Low_level-master\avr\libraries\SmartResponseXE\SmartResponseXE.cpp ****   PORTD |= (1 << PORTD2); // pull-up resistor, the pin is forced to 1 if nothing is connected
 3450               		.loc 1 335 0
GAS LISTING C:\Users\Hexma\AppData\Local\Temp\cc7G6F1c.s 			page 80


 3451 000e 5298      		cbi 0xa,2
 336:C:\Users\Hexma\Documents\Arduino\hardware\SMART-Response-XE-Low_level-master\avr\libraries\SmartResponseXE\SmartResponseXE.cpp ****   EIMSK &= ~(1 << INT2); //disabling interrupt on INT2
 3452               		.loc 1 336 0
 3453 0010 5A9A      		sbi 0xb,2
 337:C:\Users\Hexma\Documents\Arduino\hardware\SMART-Response-XE-Low_level-master\avr\libraries\SmartResponseXE\SmartResponseXE.cpp ****   EICRA &= ~((1 << ISC21) | (1 << ISC20)); // low level triggers interrupt
 3454               		.loc 1 337 0
 3455 0012 EA98      		cbi 0x1d,2
 338:C:\Users\Hexma\Documents\Arduino\hardware\SMART-Response-XE-Low_level-master\avr\libraries\SmartResponseXE\SmartResponseXE.cpp ****   EIFR |= (1 << INTF2); //clear interrupt flag
 3456               		.loc 1 338 0
 3457 0014 E9E6      		ldi r30,lo8(105)
 3458 0016 F0E0      		ldi r31,0
 3459 0018 8081      		ld r24,Z
 3460 001a 8F7C      		andi r24,lo8(-49)
 3461 001c 8083      		st Z,r24
 339:C:\Users\Hexma\Documents\Arduino\hardware\SMART-Response-XE-Low_level-master\avr\libraries\SmartResponseXE\SmartResponseXE.cpp ****   EIMSK |= (1 << INT2); //enabling interrupt flag on INT2
 3462               		.loc 1 339 0
 3463 001e E29A      		sbi 0x1c,2
 340:C:\Users\Hexma\Documents\Arduino\hardware\SMART-Response-XE-Low_level-master\avr\libraries\SmartResponseXE\SmartResponseXE.cpp **** 
 3464               		.loc 1 340 0
 3465 0020 EA9A      		sbi 0x1d,2
 342:C:\Users\Hexma\Documents\Arduino\hardware\SMART-Response-XE-Low_level-master\avr\libraries\SmartResponseXE\SmartResponseXE.cpp ****   sleep_enable();
 3466               		.loc 1 342 0
 3467 0022 83B7      		in r24,0x33
 3468 0024 817F      		andi r24,lo8(-15)
 3469 0026 8460      		ori r24,lo8(4)
 3470 0028 83BF      		out 0x33,r24
 343:C:\Users\Hexma\Documents\Arduino\hardware\SMART-Response-XE-Low_level-master\avr\libraries\SmartResponseXE\SmartResponseXE.cpp **** 
 3471               		.loc 1 343 0
 3472 002a 83B7      		in r24,0x33
 3473 002c 8160      		ori r24,lo8(1)
 3474 002e 83BF      		out 0x33,r24
 354:C:\Users\Hexma\Documents\Arduino\hardware\SMART-Response-XE-Low_level-master\avr\libraries\SmartResponseXE\SmartResponseXE.cpp ****   SRXEPowerUp();
 3475               		.loc 1 354 0
 3476               	/* #APP */
 3477               	 ;  354 "C:\Users\Hexma\Documents\Arduino\hardware\SMART-Response-XE-Low_level-master\avr\libraries
 3478 0030 8895      		sleep
 3479               		
 3480               	 ;  0 "" 2
 355:C:\Users\Hexma\Documents\Arduino\hardware\SMART-Response-XE-Low_level-master\avr\libraries\SmartResponseXE\SmartResponseXE.cpp **** } /* SRXESleep() */
 3481               		.loc 1 355 0
 3482               	/* #NOAPP */
 3483 0032 0C94 0000 		jmp _Z11SRXEPowerUpv
 3484               	.LVL333:
 3485               		.cfi_endproc
 3486               	.LFE117:
 3488               		.section	.text._Z20SRXEFlashEraseSectormi,"ax",@progbits
 3489               	.global	_Z20SRXEFlashEraseSectormi
 3491               	_Z20SRXEFlashEraseSectormi:
 3492               	.LFB138:
 898:C:\Users\Hexma\Documents\Arduino\hardware\SMART-Response-XE-Low_level-master\avr\libraries\SmartResponseXE\SmartResponseXE.cpp **** 
 899:C:\Users\Hexma\Documents\Arduino\hardware\SMART-Response-XE-Low_level-master\avr\libraries\SmartResponseXE\SmartResponseXE.cpp **** 
 900:C:\Users\Hexma\Documents\Arduino\hardware\SMART-Response-XE-Low_level-master\avr\libraries\SmartResponseXE\SmartResponseXE.cpp **** //
 901:C:\Users\Hexma\Documents\Arduino\hardware\SMART-Response-XE-Low_level-master\avr\libraries\SmartResponseXE\SmartResponseXE.cpp **** // External SPI flash functions (MX25L1005C - Macronix 1Mb/128KB serial flash memory)
 902:C:\Users\Hexma\Documents\Arduino\hardware\SMART-Response-XE-Low_level-master\avr\libraries\SmartResponseXE\SmartResponseXE.cpp **** // Data sheet here: http://www1.futureelectronics.com/doc/MACRONIX/MX25L1005CZUI-12GTR.pdf
 903:C:\Users\Hexma\Documents\Arduino\hardware\SMART-Response-XE-Low_level-master\avr\libraries\SmartResponseXE\SmartResponseXE.cpp **** // The CS line must be set low before each command and then set high after
 904:C:\Users\Hexma\Documents\Arduino\hardware\SMART-Response-XE-Low_level-master\avr\libraries\SmartResponseXE\SmartResponseXE.cpp **** // If you try to send 2 commands with the CS line left low, they won't execute
 905:C:\Users\Hexma\Documents\Arduino\hardware\SMART-Response-XE-Low_level-master\avr\libraries\SmartResponseXE\SmartResponseXE.cpp **** //
GAS LISTING C:\Users\Hexma\AppData\Local\Temp\cc7G6F1c.s 			page 81


 906:C:\Users\Hexma\Documents\Arduino\hardware\SMART-Response-XE-Low_level-master\avr\libraries\SmartResponseXE\SmartResponseXE.cpp **** // ------------------
 907:C:\Users\Hexma\Documents\Arduino\hardware\SMART-Response-XE-Low_level-master\avr\libraries\SmartResponseXE\SmartResponseXE.cpp **** //
 908:C:\Users\Hexma\Documents\Arduino\hardware\SMART-Response-XE-Low_level-master\avr\libraries\SmartResponseXE\SmartResponseXE.cpp **** // Erase a 4k sector
 909:C:\Users\Hexma\Documents\Arduino\hardware\SMART-Response-XE-Low_level-master\avr\libraries\SmartResponseXE\SmartResponseXE.cpp **** // This is the smallest area that can be erased
 910:C:\Users\Hexma\Documents\Arduino\hardware\SMART-Response-XE-Low_level-master\avr\libraries\SmartResponseXE\SmartResponseXE.cpp **** // It can take around 60ms
 911:C:\Users\Hexma\Documents\Arduino\hardware\SMART-Response-XE-Low_level-master\avr\libraries\SmartResponseXE\SmartResponseXE.cpp **** // This function optionally waits until it completes
 912:C:\Users\Hexma\Documents\Arduino\hardware\SMART-Response-XE-Low_level-master\avr\libraries\SmartResponseXE\SmartResponseXE.cpp **** // returns 1 for success, 0 for failure
 913:C:\Users\Hexma\Documents\Arduino\hardware\SMART-Response-XE-Low_level-master\avr\libraries\SmartResponseXE\SmartResponseXE.cpp **** //
 914:C:\Users\Hexma\Documents\Arduino\hardware\SMART-Response-XE-Low_level-master\avr\libraries\SmartResponseXE\SmartResponseXE.cpp **** int SRXEFlashEraseSector(uint32_t ulAddr, int bWait)
 915:C:\Users\Hexma\Documents\Arduino\hardware\SMART-Response-XE-Low_level-master\avr\libraries\SmartResponseXE\SmartResponseXE.cpp **** {
 3493               		.loc 1 915 0
 3494               		.cfi_startproc
 3495               	.LVL334:
 3496 0000 CF92      		push r12
 3497               	.LCFI142:
 3498               		.cfi_def_cfa_offset 3
 3499               		.cfi_offset 12, -2
 3500 0002 DF92      		push r13
 3501               	.LCFI143:
 3502               		.cfi_def_cfa_offset 4
 3503               		.cfi_offset 13, -3
 3504 0004 EF92      		push r14
 3505               	.LCFI144:
 3506               		.cfi_def_cfa_offset 5
 3507               		.cfi_offset 14, -4
 3508 0006 FF92      		push r15
 3509               	.LCFI145:
 3510               		.cfi_def_cfa_offset 6
 3511               		.cfi_offset 15, -5
 3512 0008 1F93      		push r17
 3513               	.LCFI146:
 3514               		.cfi_def_cfa_offset 7
 3515               		.cfi_offset 17, -6
 3516 000a CF93      		push r28
 3517               	.LCFI147:
 3518               		.cfi_def_cfa_offset 8
 3519               		.cfi_offset 28, -7
 3520 000c DF93      		push r29
 3521               	.LCFI148:
 3522               		.cfi_def_cfa_offset 9
 3523               		.cfi_offset 29, -8
 3524               	/* prologue: function */
 3525               	/* frame size = 0 */
 3526               	/* stack size = 7 */
 3527               	.L__stack_usage = 7
 916:C:\Users\Hexma\Documents\Arduino\hardware\SMART-Response-XE-Low_level-master\avr\libraries\SmartResponseXE\SmartResponseXE.cpp ****   uint8_t rc;
 917:C:\Users\Hexma\Documents\Arduino\hardware\SMART-Response-XE-Low_level-master\avr\libraries\SmartResponseXE\SmartResponseXE.cpp ****   int timeout;
 918:C:\Users\Hexma\Documents\Arduino\hardware\SMART-Response-XE-Low_level-master\avr\libraries\SmartResponseXE\SmartResponseXE.cpp ****   if (ulAddr & 4095L) // invalid address
 3528               		.loc 1 918 0
 3529 000e 6B01      		movw r12,r22
 3530 0010 7C01      		movw r14,r24
 3531 0012 2FE0      		ldi r18,15
 3532 0014 D222      		and r13,r18
 3533 0016 EE24      		clr r14
 3534 0018 FF24      		clr r15
 3535 001a CD28      		or r12,r13
 3536 001c CE28      		or r12,r14
GAS LISTING C:\Users\Hexma\AppData\Local\Temp\cc7G6F1c.s 			page 82


 3537 001e CF28      		or r12,r15
 3538 0020 01F0      		breq .L157
 3539               	.LVL335:
 3540               	.L164:
 919:C:\Users\Hexma\Documents\Arduino\hardware\SMART-Response-XE-Low_level-master\avr\libraries\SmartResponseXE\SmartResponseXE.cpp ****     return 0;
 920:C:\Users\Hexma\Documents\Arduino\hardware\SMART-Response-XE-Low_level-master\avr\libraries\SmartResponseXE\SmartResponseXE.cpp ****   mydigitalWrite(CS_FLASH, LOW);
 921:C:\Users\Hexma\Documents\Arduino\hardware\SMART-Response-XE-Low_level-master\avr\libraries\SmartResponseXE\SmartResponseXE.cpp ****   SPI_transfer(0x05); // read status register
 922:C:\Users\Hexma\Documents\Arduino\hardware\SMART-Response-XE-Low_level-master\avr\libraries\SmartResponseXE\SmartResponseXE.cpp ****   rc = SPI_transfer(0);
 923:C:\Users\Hexma\Documents\Arduino\hardware\SMART-Response-XE-Low_level-master\avr\libraries\SmartResponseXE\SmartResponseXE.cpp ****   mydigitalWrite(CS_FLASH, HIGH);
 924:C:\Users\Hexma\Documents\Arduino\hardware\SMART-Response-XE-Low_level-master\avr\libraries\SmartResponseXE\SmartResponseXE.cpp ****   if (rc & 1) // indicates the chip is busy in a write operation
 925:C:\Users\Hexma\Documents\Arduino\hardware\SMART-Response-XE-Low_level-master\avr\libraries\SmartResponseXE\SmartResponseXE.cpp ****   {
 926:C:\Users\Hexma\Documents\Arduino\hardware\SMART-Response-XE-Low_level-master\avr\libraries\SmartResponseXE\SmartResponseXE.cpp ****     return 0; // fail
 927:C:\Users\Hexma\Documents\Arduino\hardware\SMART-Response-XE-Low_level-master\avr\libraries\SmartResponseXE\SmartResponseXE.cpp ****   }
 928:C:\Users\Hexma\Documents\Arduino\hardware\SMART-Response-XE-Low_level-master\avr\libraries\SmartResponseXE\SmartResponseXE.cpp ****   mydigitalWrite(CS_FLASH, LOW);
 929:C:\Users\Hexma\Documents\Arduino\hardware\SMART-Response-XE-Low_level-master\avr\libraries\SmartResponseXE\SmartResponseXE.cpp ****   SPI_transfer(0x06); // WREN - Write enable
 930:C:\Users\Hexma\Documents\Arduino\hardware\SMART-Response-XE-Low_level-master\avr\libraries\SmartResponseXE\SmartResponseXE.cpp ****   mydigitalWrite(CS_FLASH, HIGH);
 931:C:\Users\Hexma\Documents\Arduino\hardware\SMART-Response-XE-Low_level-master\avr\libraries\SmartResponseXE\SmartResponseXE.cpp **** 
 932:C:\Users\Hexma\Documents\Arduino\hardware\SMART-Response-XE-Low_level-master\avr\libraries\SmartResponseXE\SmartResponseXE.cpp ****   mydigitalWrite(CS_FLASH, LOW);
 933:C:\Users\Hexma\Documents\Arduino\hardware\SMART-Response-XE-Low_level-master\avr\libraries\SmartResponseXE\SmartResponseXE.cpp ****   SPI_transfer(0x20); // Sector Erase
 934:C:\Users\Hexma\Documents\Arduino\hardware\SMART-Response-XE-Low_level-master\avr\libraries\SmartResponseXE\SmartResponseXE.cpp ****   // send 3-byte address (big-endian order)
 935:C:\Users\Hexma\Documents\Arduino\hardware\SMART-Response-XE-Low_level-master\avr\libraries\SmartResponseXE\SmartResponseXE.cpp ****   SPI_transfer((uint8_t)(ulAddr >> 16)); // AD1
 936:C:\Users\Hexma\Documents\Arduino\hardware\SMART-Response-XE-Low_level-master\avr\libraries\SmartResponseXE\SmartResponseXE.cpp ****   SPI_transfer((uint8_t)(ulAddr >> 8)); // AD2
 937:C:\Users\Hexma\Documents\Arduino\hardware\SMART-Response-XE-Low_level-master\avr\libraries\SmartResponseXE\SmartResponseXE.cpp ****   SPI_transfer((uint8_t)ulAddr); // AD3
 938:C:\Users\Hexma\Documents\Arduino\hardware\SMART-Response-XE-Low_level-master\avr\libraries\SmartResponseXE\SmartResponseXE.cpp ****   mydigitalWrite(CS_FLASH, HIGH);
 939:C:\Users\Hexma\Documents\Arduino\hardware\SMART-Response-XE-Low_level-master\avr\libraries\SmartResponseXE\SmartResponseXE.cpp **** 
 940:C:\Users\Hexma\Documents\Arduino\hardware\SMART-Response-XE-Low_level-master\avr\libraries\SmartResponseXE\SmartResponseXE.cpp ****   // wait for the erase to complete
 941:C:\Users\Hexma\Documents\Arduino\hardware\SMART-Response-XE-Low_level-master\avr\libraries\SmartResponseXE\SmartResponseXE.cpp ****   if (bWait)
 942:C:\Users\Hexma\Documents\Arduino\hardware\SMART-Response-XE-Low_level-master\avr\libraries\SmartResponseXE\SmartResponseXE.cpp ****   {
 943:C:\Users\Hexma\Documents\Arduino\hardware\SMART-Response-XE-Low_level-master\avr\libraries\SmartResponseXE\SmartResponseXE.cpp ****     rc = 1;
 944:C:\Users\Hexma\Documents\Arduino\hardware\SMART-Response-XE-Low_level-master\avr\libraries\SmartResponseXE\SmartResponseXE.cpp ****     timeout = 0;
 945:C:\Users\Hexma\Documents\Arduino\hardware\SMART-Response-XE-Low_level-master\avr\libraries\SmartResponseXE\SmartResponseXE.cpp ****     mydigitalWrite(CS_FLASH, LOW);
 946:C:\Users\Hexma\Documents\Arduino\hardware\SMART-Response-XE-Low_level-master\avr\libraries\SmartResponseXE\SmartResponseXE.cpp ****     while (rc & 1)
 947:C:\Users\Hexma\Documents\Arduino\hardware\SMART-Response-XE-Low_level-master\avr\libraries\SmartResponseXE\SmartResponseXE.cpp ****     {
 948:C:\Users\Hexma\Documents\Arduino\hardware\SMART-Response-XE-Low_level-master\avr\libraries\SmartResponseXE\SmartResponseXE.cpp ****       SPI_transfer(0x05); // read status register
 949:C:\Users\Hexma\Documents\Arduino\hardware\SMART-Response-XE-Low_level-master\avr\libraries\SmartResponseXE\SmartResponseXE.cpp ****       rc = SPI_transfer(0);
 950:C:\Users\Hexma\Documents\Arduino\hardware\SMART-Response-XE-Low_level-master\avr\libraries\SmartResponseXE\SmartResponseXE.cpp ****       delay(1);
 951:C:\Users\Hexma\Documents\Arduino\hardware\SMART-Response-XE-Low_level-master\avr\libraries\SmartResponseXE\SmartResponseXE.cpp ****       timeout++;
 952:C:\Users\Hexma\Documents\Arduino\hardware\SMART-Response-XE-Low_level-master\avr\libraries\SmartResponseXE\SmartResponseXE.cpp ****       if (timeout >= 120) // took too long, bail out
 953:C:\Users\Hexma\Documents\Arduino\hardware\SMART-Response-XE-Low_level-master\avr\libraries\SmartResponseXE\SmartResponseXE.cpp ****       {
 954:C:\Users\Hexma\Documents\Arduino\hardware\SMART-Response-XE-Low_level-master\avr\libraries\SmartResponseXE\SmartResponseXE.cpp ****         mydigitalWrite(CS_FLASH, HIGH);
 955:C:\Users\Hexma\Documents\Arduino\hardware\SMART-Response-XE-Low_level-master\avr\libraries\SmartResponseXE\SmartResponseXE.cpp ****         return 0;
 3541               		.loc 1 955 0
 3542 0022 90E0      		ldi r25,0
 3543 0024 80E0      		ldi r24,0
 3544               	.L156:
 3545               	/* epilogue start */
 956:C:\Users\Hexma\Documents\Arduino\hardware\SMART-Response-XE-Low_level-master\avr\libraries\SmartResponseXE\SmartResponseXE.cpp ****       }
 957:C:\Users\Hexma\Documents\Arduino\hardware\SMART-Response-XE-Low_level-master\avr\libraries\SmartResponseXE\SmartResponseXE.cpp ****     }
 958:C:\Users\Hexma\Documents\Arduino\hardware\SMART-Response-XE-Low_level-master\avr\libraries\SmartResponseXE\SmartResponseXE.cpp ****     mydigitalWrite(CS_FLASH, HIGH);
 959:C:\Users\Hexma\Documents\Arduino\hardware\SMART-Response-XE-Low_level-master\avr\libraries\SmartResponseXE\SmartResponseXE.cpp ****   } // if asked to wait
 960:C:\Users\Hexma\Documents\Arduino\hardware\SMART-Response-XE-Low_level-master\avr\libraries\SmartResponseXE\SmartResponseXE.cpp ****   return 1;
 961:C:\Users\Hexma\Documents\Arduino\hardware\SMART-Response-XE-Low_level-master\avr\libraries\SmartResponseXE\SmartResponseXE.cpp **** } /* SRXEFlashEraseSector() */
 3546               		.loc 1 961 0
 3547 0026 DF91      		pop r29
 3548 0028 CF91      		pop r28
 3549 002a 1F91      		pop r17
 3550 002c FF90      		pop r15
GAS LISTING C:\Users\Hexma\AppData\Local\Temp\cc7G6F1c.s 			page 83


 3551 002e EF90      		pop r14
 3552 0030 DF90      		pop r13
 3553 0032 CF90      		pop r12
 3554 0034 0895      		ret
 3555               	.LVL336:
 3556               	.L157:
 3557 0036 EA01      		movw r28,r20
 3558 0038 6B01      		movw r12,r22
 3559 003a 7C01      		movw r14,r24
 920:C:\Users\Hexma\Documents\Arduino\hardware\SMART-Response-XE-Low_level-master\avr\libraries\SmartResponseXE\SmartResponseXE.cpp ****   SPI_transfer(0x05); // read status register
 3560               		.loc 1 920 0
 3561 003c 60E0      		ldi r22,0
 3562               	.LVL337:
 3563 003e 83ED      		ldi r24,lo8(-45)
 3564 0040 0E94 0000 		call _Z14mydigitalWritehh
 3565               	.LVL338:
 921:C:\Users\Hexma\Documents\Arduino\hardware\SMART-Response-XE-Low_level-master\avr\libraries\SmartResponseXE\SmartResponseXE.cpp ****   rc = SPI_transfer(0);
 3566               		.loc 1 921 0
 3567 0044 85E0      		ldi r24,lo8(5)
 3568 0046 0E94 0000 		call _Z12SPI_transferc
 3569               	.LVL339:
 922:C:\Users\Hexma\Documents\Arduino\hardware\SMART-Response-XE-Low_level-master\avr\libraries\SmartResponseXE\SmartResponseXE.cpp ****   mydigitalWrite(CS_FLASH, HIGH);
 3570               		.loc 1 922 0
 3571 004a 80E0      		ldi r24,0
 3572 004c 0E94 0000 		call _Z12SPI_transferc
 3573               	.LVL340:
 3574 0050 182F      		mov r17,r24
 3575               	.LVL341:
 923:C:\Users\Hexma\Documents\Arduino\hardware\SMART-Response-XE-Low_level-master\avr\libraries\SmartResponseXE\SmartResponseXE.cpp ****   if (rc & 1) // indicates the chip is busy in a write operation
 3576               		.loc 1 923 0
 3577 0052 61E0      		ldi r22,lo8(1)
 3578 0054 83ED      		ldi r24,lo8(-45)
 3579 0056 0E94 0000 		call _Z14mydigitalWritehh
 3580               	.LVL342:
 924:C:\Users\Hexma\Documents\Arduino\hardware\SMART-Response-XE-Low_level-master\avr\libraries\SmartResponseXE\SmartResponseXE.cpp ****   {
 3581               		.loc 1 924 0
 3582 005a 10FD      		sbrc r17,0
 3583 005c 00C0      		rjmp .L164
 928:C:\Users\Hexma\Documents\Arduino\hardware\SMART-Response-XE-Low_level-master\avr\libraries\SmartResponseXE\SmartResponseXE.cpp ****   SPI_transfer(0x06); // WREN - Write enable
 3584               		.loc 1 928 0
 3585 005e 60E0      		ldi r22,0
 3586 0060 83ED      		ldi r24,lo8(-45)
 3587 0062 0E94 0000 		call _Z14mydigitalWritehh
 3588               	.LVL343:
 929:C:\Users\Hexma\Documents\Arduino\hardware\SMART-Response-XE-Low_level-master\avr\libraries\SmartResponseXE\SmartResponseXE.cpp ****   mydigitalWrite(CS_FLASH, HIGH);
 3589               		.loc 1 929 0
 3590 0066 86E0      		ldi r24,lo8(6)
 3591 0068 0E94 0000 		call _Z12SPI_transferc
 3592               	.LVL344:
 930:C:\Users\Hexma\Documents\Arduino\hardware\SMART-Response-XE-Low_level-master\avr\libraries\SmartResponseXE\SmartResponseXE.cpp **** 
 3593               		.loc 1 930 0
 3594 006c 61E0      		ldi r22,lo8(1)
 3595 006e 83ED      		ldi r24,lo8(-45)
 3596 0070 0E94 0000 		call _Z14mydigitalWritehh
 3597               	.LVL345:
 932:C:\Users\Hexma\Documents\Arduino\hardware\SMART-Response-XE-Low_level-master\avr\libraries\SmartResponseXE\SmartResponseXE.cpp ****   SPI_transfer(0x20); // Sector Erase
 3598               		.loc 1 932 0
GAS LISTING C:\Users\Hexma\AppData\Local\Temp\cc7G6F1c.s 			page 84


 3599 0074 60E0      		ldi r22,0
 3600 0076 83ED      		ldi r24,lo8(-45)
 3601 0078 0E94 0000 		call _Z14mydigitalWritehh
 3602               	.LVL346:
 933:C:\Users\Hexma\Documents\Arduino\hardware\SMART-Response-XE-Low_level-master\avr\libraries\SmartResponseXE\SmartResponseXE.cpp ****   // send 3-byte address (big-endian order)
 3603               		.loc 1 933 0
 3604 007c 80E2      		ldi r24,lo8(32)
 3605 007e 0E94 0000 		call _Z12SPI_transferc
 3606               	.LVL347:
 935:C:\Users\Hexma\Documents\Arduino\hardware\SMART-Response-XE-Low_level-master\avr\libraries\SmartResponseXE\SmartResponseXE.cpp ****   SPI_transfer((uint8_t)(ulAddr >> 8)); // AD2
 3607               		.loc 1 935 0
 3608 0082 8E2D      		mov r24,r14
 3609 0084 0E94 0000 		call _Z12SPI_transferc
 3610               	.LVL348:
 936:C:\Users\Hexma\Documents\Arduino\hardware\SMART-Response-XE-Low_level-master\avr\libraries\SmartResponseXE\SmartResponseXE.cpp ****   SPI_transfer((uint8_t)ulAddr); // AD3
 3611               		.loc 1 936 0
 3612 0088 8D2D      		mov r24,r13
 3613 008a 0E94 0000 		call _Z12SPI_transferc
 3614               	.LVL349:
 937:C:\Users\Hexma\Documents\Arduino\hardware\SMART-Response-XE-Low_level-master\avr\libraries\SmartResponseXE\SmartResponseXE.cpp ****   mydigitalWrite(CS_FLASH, HIGH);
 3615               		.loc 1 937 0
 3616 008e 8C2D      		mov r24,r12
 3617 0090 0E94 0000 		call _Z12SPI_transferc
 3618               	.LVL350:
 938:C:\Users\Hexma\Documents\Arduino\hardware\SMART-Response-XE-Low_level-master\avr\libraries\SmartResponseXE\SmartResponseXE.cpp **** 
 3619               		.loc 1 938 0
 3620 0094 61E0      		ldi r22,lo8(1)
 3621 0096 83ED      		ldi r24,lo8(-45)
 3622 0098 0E94 0000 		call _Z14mydigitalWritehh
 3623               	.LVL351:
 941:C:\Users\Hexma\Documents\Arduino\hardware\SMART-Response-XE-Low_level-master\avr\libraries\SmartResponseXE\SmartResponseXE.cpp ****   {
 3624               		.loc 1 941 0
 3625 009c CD2B      		or r28,r29
 3626 009e 01F0      		breq .L162
 3627               	.LVL352:
 945:C:\Users\Hexma\Documents\Arduino\hardware\SMART-Response-XE-Low_level-master\avr\libraries\SmartResponseXE\SmartResponseXE.cpp ****     while (rc & 1)
 3628               		.loc 1 945 0
 3629 00a0 60E0      		ldi r22,0
 3630 00a2 83ED      		ldi r24,lo8(-45)
 3631 00a4 0E94 0000 		call _Z14mydigitalWritehh
 3632               	.LVL353:
 3633 00a8 C8E7      		ldi r28,lo8(120)
 3634 00aa D0E0      		ldi r29,0
 3635               	.LVL354:
 943:C:\Users\Hexma\Documents\Arduino\hardware\SMART-Response-XE-Low_level-master\avr\libraries\SmartResponseXE\SmartResponseXE.cpp ****     timeout = 0;
 3636               		.loc 1 943 0
 3637 00ac 11E0      		ldi r17,lo8(1)
 3638               	.LVL355:
 3639               	.L161:
 946:C:\Users\Hexma\Documents\Arduino\hardware\SMART-Response-XE-Low_level-master\avr\libraries\SmartResponseXE\SmartResponseXE.cpp ****     {
 3640               		.loc 1 946 0
 3641 00ae 10FF      		sbrs r17,0
 3642 00b0 00C0      		rjmp .L160
 948:C:\Users\Hexma\Documents\Arduino\hardware\SMART-Response-XE-Low_level-master\avr\libraries\SmartResponseXE\SmartResponseXE.cpp ****       rc = SPI_transfer(0);
 3643               		.loc 1 948 0
 3644 00b2 85E0      		ldi r24,lo8(5)
 3645 00b4 0E94 0000 		call _Z12SPI_transferc
GAS LISTING C:\Users\Hexma\AppData\Local\Temp\cc7G6F1c.s 			page 85


 3646               	.LVL356:
 949:C:\Users\Hexma\Documents\Arduino\hardware\SMART-Response-XE-Low_level-master\avr\libraries\SmartResponseXE\SmartResponseXE.cpp ****       delay(1);
 3647               		.loc 1 949 0
 3648 00b8 80E0      		ldi r24,0
 3649 00ba 0E94 0000 		call _Z12SPI_transferc
 3650               	.LVL357:
 3651 00be 182F      		mov r17,r24
 950:C:\Users\Hexma\Documents\Arduino\hardware\SMART-Response-XE-Low_level-master\avr\libraries\SmartResponseXE\SmartResponseXE.cpp ****       timeout++;
 3652               		.loc 1 950 0
 3653 00c0 61E0      		ldi r22,lo8(1)
 3654 00c2 70E0      		ldi r23,0
 3655 00c4 80E0      		ldi r24,0
 3656 00c6 90E0      		ldi r25,0
 3657 00c8 0E94 0000 		call delay
 3658               	.LVL358:
 3659 00cc 2197      		sbiw r28,1
 3660               	.LVL359:
 952:C:\Users\Hexma\Documents\Arduino\hardware\SMART-Response-XE-Low_level-master\avr\libraries\SmartResponseXE\SmartResponseXE.cpp ****       {
 3661               		.loc 1 952 0
 3662 00ce 01F4      		brne .L161
 954:C:\Users\Hexma\Documents\Arduino\hardware\SMART-Response-XE-Low_level-master\avr\libraries\SmartResponseXE\SmartResponseXE.cpp ****         return 0;
 3663               		.loc 1 954 0
 3664 00d0 61E0      		ldi r22,lo8(1)
 3665 00d2 83ED      		ldi r24,lo8(-45)
 3666 00d4 0E94 0000 		call _Z14mydigitalWritehh
 3667               	.LVL360:
 3668 00d8 00C0      		rjmp .L164
 3669               	.LVL361:
 3670               	.L160:
 958:C:\Users\Hexma\Documents\Arduino\hardware\SMART-Response-XE-Low_level-master\avr\libraries\SmartResponseXE\SmartResponseXE.cpp ****   } // if asked to wait
 3671               		.loc 1 958 0
 3672 00da 61E0      		ldi r22,lo8(1)
 3673 00dc 83ED      		ldi r24,lo8(-45)
 3674 00de 0E94 0000 		call _Z14mydigitalWritehh
 3675               	.LVL362:
 3676               	.L162:
 960:C:\Users\Hexma\Documents\Arduino\hardware\SMART-Response-XE-Low_level-master\avr\libraries\SmartResponseXE\SmartResponseXE.cpp **** } /* SRXEFlashEraseSector() */
 3677               		.loc 1 960 0
 3678 00e2 81E0      		ldi r24,lo8(1)
 3679 00e4 90E0      		ldi r25,0
 3680 00e6 00C0      		rjmp .L156
 3681               		.cfi_endproc
 3682               	.LFE138:
 3684               		.section	.text._Z18SRXEFlashWritePagemPh,"ax",@progbits
 3685               	.global	_Z18SRXEFlashWritePagemPh
 3687               	_Z18SRXEFlashWritePagemPh:
 3688               	.LFB139:
 962:C:\Users\Hexma\Documents\Arduino\hardware\SMART-Response-XE-Low_level-master\avr\libraries\SmartResponseXE\SmartResponseXE.cpp **** 
 963:C:\Users\Hexma\Documents\Arduino\hardware\SMART-Response-XE-Low_level-master\avr\libraries\SmartResponseXE\SmartResponseXE.cpp **** //
 964:C:\Users\Hexma\Documents\Arduino\hardware\SMART-Response-XE-Low_level-master\avr\libraries\SmartResponseXE\SmartResponseXE.cpp **** // Write a 256-byte flash page
 965:C:\Users\Hexma\Documents\Arduino\hardware\SMART-Response-XE-Low_level-master\avr\libraries\SmartResponseXE\SmartResponseXE.cpp **** // Address must be on a page boundary
 966:C:\Users\Hexma\Documents\Arduino\hardware\SMART-Response-XE-Low_level-master\avr\libraries\SmartResponseXE\SmartResponseXE.cpp **** // returns 1 for success, 0 for failure
 967:C:\Users\Hexma\Documents\Arduino\hardware\SMART-Response-XE-Low_level-master\avr\libraries\SmartResponseXE\SmartResponseXE.cpp **** //
 968:C:\Users\Hexma\Documents\Arduino\hardware\SMART-Response-XE-Low_level-master\avr\libraries\SmartResponseXE\SmartResponseXE.cpp **** int SRXEFlashWritePage(uint32_t ulAddr, uint8_t *pSrc)
 969:C:\Users\Hexma\Documents\Arduino\hardware\SMART-Response-XE-Low_level-master\avr\libraries\SmartResponseXE\SmartResponseXE.cpp **** {
 3689               		.loc 1 969 0
 3690               		.cfi_startproc
GAS LISTING C:\Users\Hexma\AppData\Local\Temp\cc7G6F1c.s 			page 86


 3691               	.LVL363:
 3692 0000 EF92      		push r14
 3693               	.LCFI149:
 3694               		.cfi_def_cfa_offset 3
 3695               		.cfi_offset 14, -2
 3696 0002 FF92      		push r15
 3697               	.LCFI150:
 3698               		.cfi_def_cfa_offset 4
 3699               		.cfi_offset 15, -3
 3700 0004 0F93      		push r16
 3701               	.LCFI151:
 3702               		.cfi_def_cfa_offset 5
 3703               		.cfi_offset 16, -4
 3704 0006 1F93      		push r17
 3705               	.LCFI152:
 3706               		.cfi_def_cfa_offset 6
 3707               		.cfi_offset 17, -5
 3708 0008 CF93      		push r28
 3709               	.LCFI153:
 3710               		.cfi_def_cfa_offset 7
 3711               		.cfi_offset 28, -6
 3712 000a DF93      		push r29
 3713               	.LCFI154:
 3714               		.cfi_def_cfa_offset 8
 3715               		.cfi_offset 29, -7
 3716               	/* prologue: function */
 3717               	/* frame size = 0 */
 3718               	/* stack size = 6 */
 3719               	.L__stack_usage = 6
 970:C:\Users\Hexma\Documents\Arduino\hardware\SMART-Response-XE-Low_level-master\avr\libraries\SmartResponseXE\SmartResponseXE.cpp ****   int i, timeout;
 971:C:\Users\Hexma\Documents\Arduino\hardware\SMART-Response-XE-Low_level-master\avr\libraries\SmartResponseXE\SmartResponseXE.cpp ****   uint8_t rc;
 972:C:\Users\Hexma\Documents\Arduino\hardware\SMART-Response-XE-Low_level-master\avr\libraries\SmartResponseXE\SmartResponseXE.cpp ****   if (ulAddr & 255L) // invalid address
 3720               		.loc 1 972 0
 3721 000c 6623      		tst r22
 3722 000e 01F0      		breq .L166
 3723               	.LVL364:
 3724               	.L174:
 973:C:\Users\Hexma\Documents\Arduino\hardware\SMART-Response-XE-Low_level-master\avr\libraries\SmartResponseXE\SmartResponseXE.cpp ****     return 0;
 974:C:\Users\Hexma\Documents\Arduino\hardware\SMART-Response-XE-Low_level-master\avr\libraries\SmartResponseXE\SmartResponseXE.cpp ****   mydigitalWrite(CS_FLASH, LOW);
 975:C:\Users\Hexma\Documents\Arduino\hardware\SMART-Response-XE-Low_level-master\avr\libraries\SmartResponseXE\SmartResponseXE.cpp ****   SPI_transfer(0x05); // read status register
 976:C:\Users\Hexma\Documents\Arduino\hardware\SMART-Response-XE-Low_level-master\avr\libraries\SmartResponseXE\SmartResponseXE.cpp ****   rc = SPI_transfer(0);
 977:C:\Users\Hexma\Documents\Arduino\hardware\SMART-Response-XE-Low_level-master\avr\libraries\SmartResponseXE\SmartResponseXE.cpp ****   mydigitalWrite(CS_FLASH, HIGH);
 978:C:\Users\Hexma\Documents\Arduino\hardware\SMART-Response-XE-Low_level-master\avr\libraries\SmartResponseXE\SmartResponseXE.cpp ****   if (rc & 1) // indicates the chip is busy in a write operation
 979:C:\Users\Hexma\Documents\Arduino\hardware\SMART-Response-XE-Low_level-master\avr\libraries\SmartResponseXE\SmartResponseXE.cpp ****   {
 980:C:\Users\Hexma\Documents\Arduino\hardware\SMART-Response-XE-Low_level-master\avr\libraries\SmartResponseXE\SmartResponseXE.cpp ****     return 0; // fail
 981:C:\Users\Hexma\Documents\Arduino\hardware\SMART-Response-XE-Low_level-master\avr\libraries\SmartResponseXE\SmartResponseXE.cpp ****   }
 982:C:\Users\Hexma\Documents\Arduino\hardware\SMART-Response-XE-Low_level-master\avr\libraries\SmartResponseXE\SmartResponseXE.cpp ****   // Disable write protect by clearing the status bits
 983:C:\Users\Hexma\Documents\Arduino\hardware\SMART-Response-XE-Low_level-master\avr\libraries\SmartResponseXE\SmartResponseXE.cpp ****   mydigitalWrite(CS_FLASH, LOW);
 984:C:\Users\Hexma\Documents\Arduino\hardware\SMART-Response-XE-Low_level-master\avr\libraries\SmartResponseXE\SmartResponseXE.cpp ****   SPI_transfer(0x01); // WRSR - write status register
 985:C:\Users\Hexma\Documents\Arduino\hardware\SMART-Response-XE-Low_level-master\avr\libraries\SmartResponseXE\SmartResponseXE.cpp ****   SPI_transfer(0x00); // set all bits to 0
 986:C:\Users\Hexma\Documents\Arduino\hardware\SMART-Response-XE-Low_level-master\avr\libraries\SmartResponseXE\SmartResponseXE.cpp ****   mydigitalWrite(CS_FLASH, HIGH);
 987:C:\Users\Hexma\Documents\Arduino\hardware\SMART-Response-XE-Low_level-master\avr\libraries\SmartResponseXE\SmartResponseXE.cpp **** 
 988:C:\Users\Hexma\Documents\Arduino\hardware\SMART-Response-XE-Low_level-master\avr\libraries\SmartResponseXE\SmartResponseXE.cpp ****   mydigitalWrite(CS_FLASH, LOW);
 989:C:\Users\Hexma\Documents\Arduino\hardware\SMART-Response-XE-Low_level-master\avr\libraries\SmartResponseXE\SmartResponseXE.cpp ****   SPI_transfer(0x06); // WREN - Write enable
 990:C:\Users\Hexma\Documents\Arduino\hardware\SMART-Response-XE-Low_level-master\avr\libraries\SmartResponseXE\SmartResponseXE.cpp ****   mydigitalWrite(CS_FLASH, HIGH);
 991:C:\Users\Hexma\Documents\Arduino\hardware\SMART-Response-XE-Low_level-master\avr\libraries\SmartResponseXE\SmartResponseXE.cpp **** 
 992:C:\Users\Hexma\Documents\Arduino\hardware\SMART-Response-XE-Low_level-master\avr\libraries\SmartResponseXE\SmartResponseXE.cpp ****   mydigitalWrite(CS_FLASH, LOW);
GAS LISTING C:\Users\Hexma\AppData\Local\Temp\cc7G6F1c.s 			page 87


 993:C:\Users\Hexma\Documents\Arduino\hardware\SMART-Response-XE-Low_level-master\avr\libraries\SmartResponseXE\SmartResponseXE.cpp ****   SPI_transfer(0x02); // PP - page program
 994:C:\Users\Hexma\Documents\Arduino\hardware\SMART-Response-XE-Low_level-master\avr\libraries\SmartResponseXE\SmartResponseXE.cpp ****   // send 3-byte address (big-endian order)
 995:C:\Users\Hexma\Documents\Arduino\hardware\SMART-Response-XE-Low_level-master\avr\libraries\SmartResponseXE\SmartResponseXE.cpp ****   SPI_transfer((uint8_t)(ulAddr >> 16)); // AD1
 996:C:\Users\Hexma\Documents\Arduino\hardware\SMART-Response-XE-Low_level-master\avr\libraries\SmartResponseXE\SmartResponseXE.cpp ****   SPI_transfer((uint8_t)(ulAddr >> 8)); // AD2
 997:C:\Users\Hexma\Documents\Arduino\hardware\SMART-Response-XE-Low_level-master\avr\libraries\SmartResponseXE\SmartResponseXE.cpp ****   SPI_transfer((uint8_t)ulAddr); // AD3
 998:C:\Users\Hexma\Documents\Arduino\hardware\SMART-Response-XE-Low_level-master\avr\libraries\SmartResponseXE\SmartResponseXE.cpp ****   for (i = 0; i < 256; i++)
 999:C:\Users\Hexma\Documents\Arduino\hardware\SMART-Response-XE-Low_level-master\avr\libraries\SmartResponseXE\SmartResponseXE.cpp ****   {
1000:C:\Users\Hexma\Documents\Arduino\hardware\SMART-Response-XE-Low_level-master\avr\libraries\SmartResponseXE\SmartResponseXE.cpp ****     SPI_transfer(pSrc[i]); // write the 256 data bytes
1001:C:\Users\Hexma\Documents\Arduino\hardware\SMART-Response-XE-Low_level-master\avr\libraries\SmartResponseXE\SmartResponseXE.cpp ****   }
1002:C:\Users\Hexma\Documents\Arduino\hardware\SMART-Response-XE-Low_level-master\avr\libraries\SmartResponseXE\SmartResponseXE.cpp ****   mydigitalWrite(CS_FLASH, HIGH); // this executes the command internally
1003:C:\Users\Hexma\Documents\Arduino\hardware\SMART-Response-XE-Low_level-master\avr\libraries\SmartResponseXE\SmartResponseXE.cpp ****   // wait for the write to complete
1004:C:\Users\Hexma\Documents\Arduino\hardware\SMART-Response-XE-Low_level-master\avr\libraries\SmartResponseXE\SmartResponseXE.cpp ****   rc = 1;
1005:C:\Users\Hexma\Documents\Arduino\hardware\SMART-Response-XE-Low_level-master\avr\libraries\SmartResponseXE\SmartResponseXE.cpp ****   timeout = 0;
1006:C:\Users\Hexma\Documents\Arduino\hardware\SMART-Response-XE-Low_level-master\avr\libraries\SmartResponseXE\SmartResponseXE.cpp ****   mydigitalWrite(CS_FLASH, LOW);
1007:C:\Users\Hexma\Documents\Arduino\hardware\SMART-Response-XE-Low_level-master\avr\libraries\SmartResponseXE\SmartResponseXE.cpp ****   while (rc & 1)
1008:C:\Users\Hexma\Documents\Arduino\hardware\SMART-Response-XE-Low_level-master\avr\libraries\SmartResponseXE\SmartResponseXE.cpp ****   {
1009:C:\Users\Hexma\Documents\Arduino\hardware\SMART-Response-XE-Low_level-master\avr\libraries\SmartResponseXE\SmartResponseXE.cpp ****     SPI_transfer(0x05); // read status register
1010:C:\Users\Hexma\Documents\Arduino\hardware\SMART-Response-XE-Low_level-master\avr\libraries\SmartResponseXE\SmartResponseXE.cpp ****     rc = SPI_transfer(0);
1011:C:\Users\Hexma\Documents\Arduino\hardware\SMART-Response-XE-Low_level-master\avr\libraries\SmartResponseXE\SmartResponseXE.cpp ****     delay(1);
1012:C:\Users\Hexma\Documents\Arduino\hardware\SMART-Response-XE-Low_level-master\avr\libraries\SmartResponseXE\SmartResponseXE.cpp ****     timeout++;
1013:C:\Users\Hexma\Documents\Arduino\hardware\SMART-Response-XE-Low_level-master\avr\libraries\SmartResponseXE\SmartResponseXE.cpp ****     if (timeout >= 20) // took too long, bail out
1014:C:\Users\Hexma\Documents\Arduino\hardware\SMART-Response-XE-Low_level-master\avr\libraries\SmartResponseXE\SmartResponseXE.cpp ****     {
1015:C:\Users\Hexma\Documents\Arduino\hardware\SMART-Response-XE-Low_level-master\avr\libraries\SmartResponseXE\SmartResponseXE.cpp ****       mydigitalWrite(CS_FLASH, HIGH);
1016:C:\Users\Hexma\Documents\Arduino\hardware\SMART-Response-XE-Low_level-master\avr\libraries\SmartResponseXE\SmartResponseXE.cpp ****       return 0;
 3725               		.loc 1 1016 0
 3726 0010 90E0      		ldi r25,0
 3727 0012 80E0      		ldi r24,0
 3728               	.L165:
 3729               	/* epilogue start */
1017:C:\Users\Hexma\Documents\Arduino\hardware\SMART-Response-XE-Low_level-master\avr\libraries\SmartResponseXE\SmartResponseXE.cpp ****     }
1018:C:\Users\Hexma\Documents\Arduino\hardware\SMART-Response-XE-Low_level-master\avr\libraries\SmartResponseXE\SmartResponseXE.cpp ****   }
1019:C:\Users\Hexma\Documents\Arduino\hardware\SMART-Response-XE-Low_level-master\avr\libraries\SmartResponseXE\SmartResponseXE.cpp ****   mydigitalWrite(CS_FLASH, HIGH);
1020:C:\Users\Hexma\Documents\Arduino\hardware\SMART-Response-XE-Low_level-master\avr\libraries\SmartResponseXE\SmartResponseXE.cpp ****   return 1;
1021:C:\Users\Hexma\Documents\Arduino\hardware\SMART-Response-XE-Low_level-master\avr\libraries\SmartResponseXE\SmartResponseXE.cpp **** } /* SRXEFlashWritePage() */
 3730               		.loc 1 1021 0
 3731 0014 DF91      		pop r29
 3732 0016 CF91      		pop r28
 3733 0018 1F91      		pop r17
 3734 001a 0F91      		pop r16
 3735 001c FF90      		pop r15
 3736 001e EF90      		pop r14
 3737 0020 0895      		ret
 3738               	.LVL365:
 3739               	.L166:
 3740 0022 8A01      		movw r16,r20
 3741 0024 F82E      		mov r15,r24
 3742 0026 EB01      		movw r28,r22
 974:C:\Users\Hexma\Documents\Arduino\hardware\SMART-Response-XE-Low_level-master\avr\libraries\SmartResponseXE\SmartResponseXE.cpp ****   SPI_transfer(0x05); // read status register
 3743               		.loc 1 974 0
 3744 0028 60E0      		ldi r22,0
 3745               	.LVL366:
 3746 002a 83ED      		ldi r24,lo8(-45)
 3747 002c 0E94 0000 		call _Z14mydigitalWritehh
 3748               	.LVL367:
 975:C:\Users\Hexma\Documents\Arduino\hardware\SMART-Response-XE-Low_level-master\avr\libraries\SmartResponseXE\SmartResponseXE.cpp ****   rc = SPI_transfer(0);
 3749               		.loc 1 975 0
 3750 0030 85E0      		ldi r24,lo8(5)
GAS LISTING C:\Users\Hexma\AppData\Local\Temp\cc7G6F1c.s 			page 88


 3751 0032 0E94 0000 		call _Z12SPI_transferc
 3752               	.LVL368:
 976:C:\Users\Hexma\Documents\Arduino\hardware\SMART-Response-XE-Low_level-master\avr\libraries\SmartResponseXE\SmartResponseXE.cpp ****   mydigitalWrite(CS_FLASH, HIGH);
 3753               		.loc 1 976 0
 3754 0036 80E0      		ldi r24,0
 3755 0038 0E94 0000 		call _Z12SPI_transferc
 3756               	.LVL369:
 3757 003c E82E      		mov r14,r24
 3758               	.LVL370:
 977:C:\Users\Hexma\Documents\Arduino\hardware\SMART-Response-XE-Low_level-master\avr\libraries\SmartResponseXE\SmartResponseXE.cpp ****   if (rc & 1) // indicates the chip is busy in a write operation
 3759               		.loc 1 977 0
 3760 003e 61E0      		ldi r22,lo8(1)
 3761 0040 83ED      		ldi r24,lo8(-45)
 3762 0042 0E94 0000 		call _Z14mydigitalWritehh
 3763               	.LVL371:
 978:C:\Users\Hexma\Documents\Arduino\hardware\SMART-Response-XE-Low_level-master\avr\libraries\SmartResponseXE\SmartResponseXE.cpp ****   {
 3764               		.loc 1 978 0
 3765 0046 E0FC      		sbrc r14,0
 3766 0048 00C0      		rjmp .L174
 983:C:\Users\Hexma\Documents\Arduino\hardware\SMART-Response-XE-Low_level-master\avr\libraries\SmartResponseXE\SmartResponseXE.cpp ****   SPI_transfer(0x01); // WRSR - write status register
 3767               		.loc 1 983 0
 3768 004a 60E0      		ldi r22,0
 3769 004c 83ED      		ldi r24,lo8(-45)
 3770 004e 0E94 0000 		call _Z14mydigitalWritehh
 3771               	.LVL372:
 984:C:\Users\Hexma\Documents\Arduino\hardware\SMART-Response-XE-Low_level-master\avr\libraries\SmartResponseXE\SmartResponseXE.cpp ****   SPI_transfer(0x00); // set all bits to 0
 3772               		.loc 1 984 0
 3773 0052 81E0      		ldi r24,lo8(1)
 3774 0054 0E94 0000 		call _Z12SPI_transferc
 3775               	.LVL373:
 985:C:\Users\Hexma\Documents\Arduino\hardware\SMART-Response-XE-Low_level-master\avr\libraries\SmartResponseXE\SmartResponseXE.cpp ****   mydigitalWrite(CS_FLASH, HIGH);
 3776               		.loc 1 985 0
 3777 0058 80E0      		ldi r24,0
 3778 005a 0E94 0000 		call _Z12SPI_transferc
 3779               	.LVL374:
 986:C:\Users\Hexma\Documents\Arduino\hardware\SMART-Response-XE-Low_level-master\avr\libraries\SmartResponseXE\SmartResponseXE.cpp **** 
 3780               		.loc 1 986 0
 3781 005e 61E0      		ldi r22,lo8(1)
 3782 0060 83ED      		ldi r24,lo8(-45)
 3783 0062 0E94 0000 		call _Z14mydigitalWritehh
 3784               	.LVL375:
 988:C:\Users\Hexma\Documents\Arduino\hardware\SMART-Response-XE-Low_level-master\avr\libraries\SmartResponseXE\SmartResponseXE.cpp ****   SPI_transfer(0x06); // WREN - Write enable
 3785               		.loc 1 988 0
 3786 0066 60E0      		ldi r22,0
 3787 0068 83ED      		ldi r24,lo8(-45)
 3788 006a 0E94 0000 		call _Z14mydigitalWritehh
 3789               	.LVL376:
 989:C:\Users\Hexma\Documents\Arduino\hardware\SMART-Response-XE-Low_level-master\avr\libraries\SmartResponseXE\SmartResponseXE.cpp ****   mydigitalWrite(CS_FLASH, HIGH);
 3790               		.loc 1 989 0
 3791 006e 86E0      		ldi r24,lo8(6)
 3792 0070 0E94 0000 		call _Z12SPI_transferc
 3793               	.LVL377:
 990:C:\Users\Hexma\Documents\Arduino\hardware\SMART-Response-XE-Low_level-master\avr\libraries\SmartResponseXE\SmartResponseXE.cpp **** 
 3794               		.loc 1 990 0
 3795 0074 61E0      		ldi r22,lo8(1)
 3796 0076 83ED      		ldi r24,lo8(-45)
 3797 0078 0E94 0000 		call _Z14mydigitalWritehh
GAS LISTING C:\Users\Hexma\AppData\Local\Temp\cc7G6F1c.s 			page 89


 3798               	.LVL378:
 992:C:\Users\Hexma\Documents\Arduino\hardware\SMART-Response-XE-Low_level-master\avr\libraries\SmartResponseXE\SmartResponseXE.cpp ****   SPI_transfer(0x02); // PP - page program
 3799               		.loc 1 992 0
 3800 007c 60E0      		ldi r22,0
 3801 007e 83ED      		ldi r24,lo8(-45)
 3802 0080 0E94 0000 		call _Z14mydigitalWritehh
 3803               	.LVL379:
 993:C:\Users\Hexma\Documents\Arduino\hardware\SMART-Response-XE-Low_level-master\avr\libraries\SmartResponseXE\SmartResponseXE.cpp ****   // send 3-byte address (big-endian order)
 3804               		.loc 1 993 0
 3805 0084 82E0      		ldi r24,lo8(2)
 3806 0086 0E94 0000 		call _Z12SPI_transferc
 3807               	.LVL380:
 995:C:\Users\Hexma\Documents\Arduino\hardware\SMART-Response-XE-Low_level-master\avr\libraries\SmartResponseXE\SmartResponseXE.cpp ****   SPI_transfer((uint8_t)(ulAddr >> 8)); // AD2
 3808               		.loc 1 995 0
 3809 008a 8F2D      		mov r24,r15
 3810 008c 0E94 0000 		call _Z12SPI_transferc
 3811               	.LVL381:
 996:C:\Users\Hexma\Documents\Arduino\hardware\SMART-Response-XE-Low_level-master\avr\libraries\SmartResponseXE\SmartResponseXE.cpp ****   SPI_transfer((uint8_t)ulAddr); // AD3
 3812               		.loc 1 996 0
 3813 0090 8D2F      		mov r24,r29
 3814 0092 0E94 0000 		call _Z12SPI_transferc
 3815               	.LVL382:
 997:C:\Users\Hexma\Documents\Arduino\hardware\SMART-Response-XE-Low_level-master\avr\libraries\SmartResponseXE\SmartResponseXE.cpp ****   for (i = 0; i < 256; i++)
 3816               		.loc 1 997 0
 3817 0096 8C2F      		mov r24,r28
 3818 0098 0E94 0000 		call _Z12SPI_transferc
 3819               	.LVL383:
 3820 009c E801      		movw r28,r16
 3821 009e 1395      		inc r17
 3822               	.LVL384:
 3823               	.L169:
1000:C:\Users\Hexma\Documents\Arduino\hardware\SMART-Response-XE-Low_level-master\avr\libraries\SmartResponseXE\SmartResponseXE.cpp ****   }
 3824               		.loc 1 1000 0 discriminator 2
 3825 00a0 8991      		ld r24,Y+
 3826               	.LVL385:
 3827 00a2 0E94 0000 		call _Z12SPI_transferc
 3828               	.LVL386:
 998:C:\Users\Hexma\Documents\Arduino\hardware\SMART-Response-XE-Low_level-master\avr\libraries\SmartResponseXE\SmartResponseXE.cpp ****   {
 3829               		.loc 1 998 0 discriminator 2
 3830 00a6 C017      		cp r28,r16
 3831 00a8 D107      		cpc r29,r17
 3832 00aa 01F4      		brne .L169
1002:C:\Users\Hexma\Documents\Arduino\hardware\SMART-Response-XE-Low_level-master\avr\libraries\SmartResponseXE\SmartResponseXE.cpp ****   // wait for the write to complete
 3833               		.loc 1 1002 0
 3834 00ac 61E0      		ldi r22,lo8(1)
 3835 00ae 83ED      		ldi r24,lo8(-45)
 3836 00b0 0E94 0000 		call _Z14mydigitalWritehh
 3837               	.LVL387:
1006:C:\Users\Hexma\Documents\Arduino\hardware\SMART-Response-XE-Low_level-master\avr\libraries\SmartResponseXE\SmartResponseXE.cpp ****   while (rc & 1)
 3838               		.loc 1 1006 0
 3839 00b4 60E0      		ldi r22,0
 3840 00b6 83ED      		ldi r24,lo8(-45)
 3841 00b8 0E94 0000 		call _Z14mydigitalWritehh
 3842               	.LVL388:
 3843 00bc C4E1      		ldi r28,lo8(20)
 3844 00be D0E0      		ldi r29,0
 3845               	.LVL389:
GAS LISTING C:\Users\Hexma\AppData\Local\Temp\cc7G6F1c.s 			page 90


1004:C:\Users\Hexma\Documents\Arduino\hardware\SMART-Response-XE-Low_level-master\avr\libraries\SmartResponseXE\SmartResponseXE.cpp ****   timeout = 0;
 3846               		.loc 1 1004 0
 3847 00c0 11E0      		ldi r17,lo8(1)
 3848               	.LVL390:
 3849               	.L171:
1007:C:\Users\Hexma\Documents\Arduino\hardware\SMART-Response-XE-Low_level-master\avr\libraries\SmartResponseXE\SmartResponseXE.cpp ****   {
 3850               		.loc 1 1007 0
 3851 00c2 10FF      		sbrs r17,0
 3852 00c4 00C0      		rjmp .L170
1009:C:\Users\Hexma\Documents\Arduino\hardware\SMART-Response-XE-Low_level-master\avr\libraries\SmartResponseXE\SmartResponseXE.cpp ****     rc = SPI_transfer(0);
 3853               		.loc 1 1009 0
 3854 00c6 85E0      		ldi r24,lo8(5)
 3855 00c8 0E94 0000 		call _Z12SPI_transferc
 3856               	.LVL391:
1010:C:\Users\Hexma\Documents\Arduino\hardware\SMART-Response-XE-Low_level-master\avr\libraries\SmartResponseXE\SmartResponseXE.cpp ****     delay(1);
 3857               		.loc 1 1010 0
 3858 00cc 80E0      		ldi r24,0
 3859 00ce 0E94 0000 		call _Z12SPI_transferc
 3860               	.LVL392:
 3861 00d2 182F      		mov r17,r24
1011:C:\Users\Hexma\Documents\Arduino\hardware\SMART-Response-XE-Low_level-master\avr\libraries\SmartResponseXE\SmartResponseXE.cpp ****     timeout++;
 3862               		.loc 1 1011 0
 3863 00d4 61E0      		ldi r22,lo8(1)
 3864 00d6 70E0      		ldi r23,0
 3865 00d8 80E0      		ldi r24,0
 3866 00da 90E0      		ldi r25,0
 3867 00dc 0E94 0000 		call delay
 3868               	.LVL393:
 3869 00e0 2197      		sbiw r28,1
 3870               	.LVL394:
1013:C:\Users\Hexma\Documents\Arduino\hardware\SMART-Response-XE-Low_level-master\avr\libraries\SmartResponseXE\SmartResponseXE.cpp ****     {
 3871               		.loc 1 1013 0
 3872 00e2 01F4      		brne .L171
1015:C:\Users\Hexma\Documents\Arduino\hardware\SMART-Response-XE-Low_level-master\avr\libraries\SmartResponseXE\SmartResponseXE.cpp ****       return 0;
 3873               		.loc 1 1015 0
 3874 00e4 61E0      		ldi r22,lo8(1)
 3875 00e6 83ED      		ldi r24,lo8(-45)
 3876 00e8 0E94 0000 		call _Z14mydigitalWritehh
 3877               	.LVL395:
 3878 00ec 00C0      		rjmp .L174
 3879               	.LVL396:
 3880               	.L170:
1019:C:\Users\Hexma\Documents\Arduino\hardware\SMART-Response-XE-Low_level-master\avr\libraries\SmartResponseXE\SmartResponseXE.cpp ****   return 1;
 3881               		.loc 1 1019 0
 3882 00ee 61E0      		ldi r22,lo8(1)
 3883 00f0 83ED      		ldi r24,lo8(-45)
 3884 00f2 0E94 0000 		call _Z14mydigitalWritehh
 3885               	.LVL397:
1020:C:\Users\Hexma\Documents\Arduino\hardware\SMART-Response-XE-Low_level-master\avr\libraries\SmartResponseXE\SmartResponseXE.cpp **** } /* SRXEFlashWritePage() */
 3886               		.loc 1 1020 0
 3887 00f6 81E0      		ldi r24,lo8(1)
 3888 00f8 90E0      		ldi r25,0
 3889 00fa 00C0      		rjmp .L165
 3890               		.cfi_endproc
 3891               	.LFE139:
 3893               		.section	.text._Z13SRXEFlashReadmPhi,"ax",@progbits
 3894               	.global	_Z13SRXEFlashReadmPhi
GAS LISTING C:\Users\Hexma\AppData\Local\Temp\cc7G6F1c.s 			page 91


 3896               	_Z13SRXEFlashReadmPhi:
 3897               	.LFB140:
1022:C:\Users\Hexma\Documents\Arduino\hardware\SMART-Response-XE-Low_level-master\avr\libraries\SmartResponseXE\SmartResponseXE.cpp **** //
1023:C:\Users\Hexma\Documents\Arduino\hardware\SMART-Response-XE-Low_level-master\avr\libraries\SmartResponseXE\SmartResponseXE.cpp **** // Read N bytes from SPI flash
1024:C:\Users\Hexma\Documents\Arduino\hardware\SMART-Response-XE-Low_level-master\avr\libraries\SmartResponseXE\SmartResponseXE.cpp **** //
1025:C:\Users\Hexma\Documents\Arduino\hardware\SMART-Response-XE-Low_level-master\avr\libraries\SmartResponseXE\SmartResponseXE.cpp **** int SRXEFlashRead(uint32_t ulAddr, uint8_t *pDest, int iLen)
1026:C:\Users\Hexma\Documents\Arduino\hardware\SMART-Response-XE-Low_level-master\avr\libraries\SmartResponseXE\SmartResponseXE.cpp **** {
 3898               		.loc 1 1026 0
 3899               		.cfi_startproc
 3900               	.LVL398:
 3901 0000 DF92      		push r13
 3902               	.LCFI155:
 3903               		.cfi_def_cfa_offset 3
 3904               		.cfi_offset 13, -2
 3905 0002 EF92      		push r14
 3906               	.LCFI156:
 3907               		.cfi_def_cfa_offset 4
 3908               		.cfi_offset 14, -3
 3909 0004 FF92      		push r15
 3910               	.LCFI157:
 3911               		.cfi_def_cfa_offset 5
 3912               		.cfi_offset 15, -4
 3913 0006 0F93      		push r16
 3914               	.LCFI158:
 3915               		.cfi_def_cfa_offset 6
 3916               		.cfi_offset 16, -5
 3917 0008 1F93      		push r17
 3918               	.LCFI159:
 3919               		.cfi_def_cfa_offset 7
 3920               		.cfi_offset 17, -6
 3921 000a CF93      		push r28
 3922               	.LCFI160:
 3923               		.cfi_def_cfa_offset 8
 3924               		.cfi_offset 28, -7
 3925 000c DF93      		push r29
 3926               	.LCFI161:
 3927               		.cfi_def_cfa_offset 9
 3928               		.cfi_offset 29, -8
 3929               	/* prologue: function */
 3930               	/* frame size = 0 */
 3931               	/* stack size = 7 */
 3932               	.L__stack_usage = 7
 3933 000e EB01      		movw r28,r22
 3934 0010 D82E      		mov r13,r24
 3935 0012 8A01      		movw r16,r20
 3936 0014 7901      		movw r14,r18
1027:C:\Users\Hexma\Documents\Arduino\hardware\SMART-Response-XE-Low_level-master\avr\libraries\SmartResponseXE\SmartResponseXE.cpp ****   int i;
1028:C:\Users\Hexma\Documents\Arduino\hardware\SMART-Response-XE-Low_level-master\avr\libraries\SmartResponseXE\SmartResponseXE.cpp **** 
1029:C:\Users\Hexma\Documents\Arduino\hardware\SMART-Response-XE-Low_level-master\avr\libraries\SmartResponseXE\SmartResponseXE.cpp ****   mydigitalWrite(CS_FLASH, LOW);
 3937               		.loc 1 1029 0
 3938 0016 60E0      		ldi r22,0
 3939               	.LVL399:
 3940 0018 83ED      		ldi r24,lo8(-45)
 3941 001a 0E94 0000 		call _Z14mydigitalWritehh
 3942               	.LVL400:
1030:C:\Users\Hexma\Documents\Arduino\hardware\SMART-Response-XE-Low_level-master\avr\libraries\SmartResponseXE\SmartResponseXE.cpp ****   SPI_transfer(0x03); // issue read instruction
 3943               		.loc 1 1030 0
GAS LISTING C:\Users\Hexma\AppData\Local\Temp\cc7G6F1c.s 			page 92


 3944 001e 83E0      		ldi r24,lo8(3)
 3945 0020 0E94 0000 		call _Z12SPI_transferc
 3946               	.LVL401:
1031:C:\Users\Hexma\Documents\Arduino\hardware\SMART-Response-XE-Low_level-master\avr\libraries\SmartResponseXE\SmartResponseXE.cpp ****   // send 3-byte address (big-endian order)
1032:C:\Users\Hexma\Documents\Arduino\hardware\SMART-Response-XE-Low_level-master\avr\libraries\SmartResponseXE\SmartResponseXE.cpp ****   SPI_transfer((uint8_t)(ulAddr >> 16)); // AD1
 3947               		.loc 1 1032 0
 3948 0024 8D2D      		mov r24,r13
 3949 0026 0E94 0000 		call _Z12SPI_transferc
 3950               	.LVL402:
1033:C:\Users\Hexma\Documents\Arduino\hardware\SMART-Response-XE-Low_level-master\avr\libraries\SmartResponseXE\SmartResponseXE.cpp ****   SPI_transfer((uint8_t)(ulAddr >> 8)); // AD2
 3951               		.loc 1 1033 0
 3952 002a 8D2F      		mov r24,r29
 3953 002c 0E94 0000 		call _Z12SPI_transferc
 3954               	.LVL403:
1034:C:\Users\Hexma\Documents\Arduino\hardware\SMART-Response-XE-Low_level-master\avr\libraries\SmartResponseXE\SmartResponseXE.cpp ****   SPI_transfer((uint8_t)ulAddr); // AD3
 3955               		.loc 1 1034 0
 3956 0030 8C2F      		mov r24,r28
 3957 0032 0E94 0000 		call _Z12SPI_transferc
 3958               	.LVL404:
 3959 0036 E801      		movw r28,r16
 3960               	.LVL405:
 3961               	.L177:
1035:C:\Users\Hexma\Documents\Arduino\hardware\SMART-Response-XE-Low_level-master\avr\libraries\SmartResponseXE\SmartResponseXE.cpp ****   for (i = 0; i < iLen; i++) // read the bytes out
 3962               		.loc 1 1035 0 discriminator 3
 3963 0038 CE01      		movw r24,r28
 3964 003a 801B      		sub r24,r16
 3965 003c 910B      		sbc r25,r17
 3966 003e 8E15      		cp r24,r14
 3967 0040 9F05      		cpc r25,r15
 3968 0042 04F4      		brge .L176
 3969               	.LVL406:
1036:C:\Users\Hexma\Documents\Arduino\hardware\SMART-Response-XE-Low_level-master\avr\libraries\SmartResponseXE\SmartResponseXE.cpp ****   {
1037:C:\Users\Hexma\Documents\Arduino\hardware\SMART-Response-XE-Low_level-master\avr\libraries\SmartResponseXE\SmartResponseXE.cpp ****     *pDest++ = SPI_transfer(0); // need to write something to read from SPI
 3970               		.loc 1 1037 0 discriminator 2
 3971 0044 80E0      		ldi r24,0
 3972 0046 0E94 0000 		call _Z12SPI_transferc
 3973               	.LVL407:
 3974 004a 8993      		st Y+,r24
 3975               	.LVL408:
1035:C:\Users\Hexma\Documents\Arduino\hardware\SMART-Response-XE-Low_level-master\avr\libraries\SmartResponseXE\SmartResponseXE.cpp ****   for (i = 0; i < iLen; i++) // read the bytes out
 3976               		.loc 1 1035 0 discriminator 2
 3977 004c 00C0      		rjmp .L177
 3978               	.L176:
1038:C:\Users\Hexma\Documents\Arduino\hardware\SMART-Response-XE-Low_level-master\avr\libraries\SmartResponseXE\SmartResponseXE.cpp ****   }
1039:C:\Users\Hexma\Documents\Arduino\hardware\SMART-Response-XE-Low_level-master\avr\libraries\SmartResponseXE\SmartResponseXE.cpp ****   mydigitalWrite(CS_FLASH, HIGH); // de-activate
 3979               		.loc 1 1039 0
 3980 004e 61E0      		ldi r22,lo8(1)
 3981 0050 83ED      		ldi r24,lo8(-45)
 3982 0052 0E94 0000 		call _Z14mydigitalWritehh
 3983               	.LVL409:
1040:C:\Users\Hexma\Documents\Arduino\hardware\SMART-Response-XE-Low_level-master\avr\libraries\SmartResponseXE\SmartResponseXE.cpp ****   return 1;
1041:C:\Users\Hexma\Documents\Arduino\hardware\SMART-Response-XE-Low_level-master\avr\libraries\SmartResponseXE\SmartResponseXE.cpp **** } /* SRXEFlashRead() */
 3984               		.loc 1 1041 0
 3985 0056 81E0      		ldi r24,lo8(1)
 3986 0058 90E0      		ldi r25,0
 3987               	/* epilogue start */
 3988 005a DF91      		pop r29
GAS LISTING C:\Users\Hexma\AppData\Local\Temp\cc7G6F1c.s 			page 93


 3989 005c CF91      		pop r28
 3990               	.LVL410:
 3991 005e 1F91      		pop r17
 3992 0060 0F91      		pop r16
 3993 0062 FF90      		pop r15
 3994 0064 EF90      		pop r14
 3995               	.LVL411:
 3996 0066 DF90      		pop r13
 3997 0068 0895      		ret
 3998               		.cfi_endproc
 3999               	.LFE140:
 4001               		.section	.text._Z16SRXEScanKeyboardv,"ax",@progbits
 4002               	.global	_Z16SRXEScanKeyboardv
 4004               	_Z16SRXEScanKeyboardv:
 4005               	.LFB141:
1042:C:\Users\Hexma\Documents\Arduino\hardware\SMART-Response-XE-Low_level-master\avr\libraries\SmartResponseXE\SmartResponseXE.cpp **** 
1043:C:\Users\Hexma\Documents\Arduino\hardware\SMART-Response-XE-Low_level-master\avr\libraries\SmartResponseXE\SmartResponseXE.cpp **** //
1044:C:\Users\Hexma\Documents\Arduino\hardware\SMART-Response-XE-Low_level-master\avr\libraries\SmartResponseXE\SmartResponseXE.cpp **** // Scan the rows and columns and store the results in the key map
1045:C:\Users\Hexma\Documents\Arduino\hardware\SMART-Response-XE-Low_level-master\avr\libraries\SmartResponseXE\SmartResponseXE.cpp **** //
1046:C:\Users\Hexma\Documents\Arduino\hardware\SMART-Response-XE-Low_level-master\avr\libraries\SmartResponseXE\SmartResponseXE.cpp **** void SRXEScanKeyboard(void)
1047:C:\Users\Hexma\Documents\Arduino\hardware\SMART-Response-XE-Low_level-master\avr\libraries\SmartResponseXE\SmartResponseXE.cpp **** {
 4006               		.loc 1 1047 0
 4007               		.cfi_startproc
 4008 0000 8F92      		push r8
 4009               	.LCFI162:
 4010               		.cfi_def_cfa_offset 3
 4011               		.cfi_offset 8, -2
 4012 0002 9F92      		push r9
 4013               	.LCFI163:
 4014               		.cfi_def_cfa_offset 4
 4015               		.cfi_offset 9, -3
 4016 0004 AF92      		push r10
 4017               	.LCFI164:
 4018               		.cfi_def_cfa_offset 5
 4019               		.cfi_offset 10, -4
 4020 0006 BF92      		push r11
 4021               	.LCFI165:
 4022               		.cfi_def_cfa_offset 6
 4023               		.cfi_offset 11, -5
 4024 0008 CF92      		push r12
 4025               	.LCFI166:
 4026               		.cfi_def_cfa_offset 7
 4027               		.cfi_offset 12, -6
 4028 000a DF92      		push r13
 4029               	.LCFI167:
 4030               		.cfi_def_cfa_offset 8
 4031               		.cfi_offset 13, -7
 4032 000c EF92      		push r14
 4033               	.LCFI168:
 4034               		.cfi_def_cfa_offset 9
 4035               		.cfi_offset 14, -8
 4036 000e FF92      		push r15
 4037               	.LCFI169:
 4038               		.cfi_def_cfa_offset 10
 4039               		.cfi_offset 15, -9
 4040 0010 1F93      		push r17
 4041               	.LCFI170:
GAS LISTING C:\Users\Hexma\AppData\Local\Temp\cc7G6F1c.s 			page 94


 4042               		.cfi_def_cfa_offset 11
 4043               		.cfi_offset 17, -10
 4044 0012 CF93      		push r28
 4045               	.LCFI171:
 4046               		.cfi_def_cfa_offset 12
 4047               		.cfi_offset 28, -11
 4048 0014 DF93      		push r29
 4049               	.LCFI172:
 4050               		.cfi_def_cfa_offset 13
 4051               		.cfi_offset 29, -12
 4052               	/* prologue: function */
 4053               	/* frame size = 0 */
 4054               	/* stack size = 11 */
 4055               	.L__stack_usage = 11
 4056               	.LVL412:
 4057               		.loc 1 1047 0
 4058 0016 C0E0      		ldi r28,lo8(_ZL7rowPins)
 4059 0018 D0E0      		ldi r29,hi8(_ZL7rowPins)
 4060               	.LVL413:
 4061               	.L179:
1048:C:\Users\Hexma\Documents\Arduino\hardware\SMART-Response-XE-Low_level-master\avr\libraries\SmartResponseXE\SmartResponseXE.cpp ****   byte r, c;
1049:C:\Users\Hexma\Documents\Arduino\hardware\SMART-Response-XE-Low_level-master\avr\libraries\SmartResponseXE\SmartResponseXE.cpp **** 
1050:C:\Users\Hexma\Documents\Arduino\hardware\SMART-Response-XE-Low_level-master\avr\libraries\SmartResponseXE\SmartResponseXE.cpp ****   for (r = 0; r < ROWS; r++)
1051:C:\Users\Hexma\Documents\Arduino\hardware\SMART-Response-XE-Low_level-master\avr\libraries\SmartResponseXE\SmartResponseXE.cpp ****   {
1052:C:\Users\Hexma\Documents\Arduino\hardware\SMART-Response-XE-Low_level-master\avr\libraries\SmartResponseXE\SmartResponseXE.cpp ****     mypinMode(rowPins[r], INPUT_PULLUP);
 4062               		.loc 1 1052 0 discriminator 2
 4063 001a 62E0      		ldi r22,lo8(2)
 4064 001c 8991      		ld r24,Y+
 4065               	.LVL414:
 4066 001e 0E94 0000 		call _Z9mypinModehh
 4067               	.LVL415:
1050:C:\Users\Hexma\Documents\Arduino\hardware\SMART-Response-XE-Low_level-master\avr\libraries\SmartResponseXE\SmartResponseXE.cpp ****   {
 4068               		.loc 1 1050 0 discriminator 2
 4069 0022 80E0      		ldi r24,hi8(_ZL7rowPins+6)
 4070 0024 C030      		cpi r28,lo8(_ZL7rowPins+6)
 4071 0026 D807      		cpc r29,r24
 4072 0028 01F4      		brne .L179
1053:C:\Users\Hexma\Documents\Arduino\hardware\SMART-Response-XE-Low_level-master\avr\libraries\SmartResponseXE\SmartResponseXE.cpp ****   }
1054:C:\Users\Hexma\Documents\Arduino\hardware\SMART-Response-XE-Low_level-master\avr\libraries\SmartResponseXE\SmartResponseXE.cpp ****   // save current keymap to compare for pressed/released keys
1055:C:\Users\Hexma\Documents\Arduino\hardware\SMART-Response-XE-Low_level-master\avr\libraries\SmartResponseXE\SmartResponseXE.cpp ****   memcpy(bOldKeyMap, bKeyMap, sizeof(bKeyMap));
 4073               		.loc 1 1055 0
 4074 002a 8AE0      		ldi r24,lo8(10)
 4075 002c E0E0      		ldi r30,lo8(_ZL7bKeyMap)
 4076 002e F0E0      		ldi r31,hi8(_ZL7bKeyMap)
 4077 0030 A0E0      		ldi r26,lo8(_ZL10bOldKeyMap)
 4078 0032 B0E0      		ldi r27,hi8(_ZL10bOldKeyMap)
 4079               		0:
 4080 0034 0190      		ld r0,Z+
 4081 0036 0D92      		st X+,r0
 4082 0038 8A95      		dec r24
 4083 003a 01F4      		brne 0b
 4084               	.LVL416:
 4085 003c C0E0      		ldi r28,lo8(_ZL7bKeyMap)
 4086 003e D0E0      		ldi r29,hi8(_ZL7bKeyMap)
 4087               	.LVL417:
 4088 0040 90E0      		ldi r25,lo8(_ZL7colPins)
 4089 0042 C92E      		mov r12,r25
GAS LISTING C:\Users\Hexma\AppData\Local\Temp\cc7G6F1c.s 			page 95


 4090 0044 90E0      		ldi r25,hi8(_ZL7colPins)
 4091 0046 D92E      		mov r13,r25
1056:C:\Users\Hexma\Documents\Arduino\hardware\SMART-Response-XE-Low_level-master\avr\libraries\SmartResponseXE\SmartResponseXE.cpp **** 
1057:C:\Users\Hexma\Documents\Arduino\hardware\SMART-Response-XE-Low_level-master\avr\libraries\SmartResponseXE\SmartResponseXE.cpp ****   for (c = 0; c < COLS; c++)
1058:C:\Users\Hexma\Documents\Arduino\hardware\SMART-Response-XE-Low_level-master\avr\libraries\SmartResponseXE\SmartResponseXE.cpp ****   {
1059:C:\Users\Hexma\Documents\Arduino\hardware\SMART-Response-XE-Low_level-master\avr\libraries\SmartResponseXE\SmartResponseXE.cpp ****     bKeyMap[c] = 0;
1060:C:\Users\Hexma\Documents\Arduino\hardware\SMART-Response-XE-Low_level-master\avr\libraries\SmartResponseXE\SmartResponseXE.cpp ****     mypinMode(colPins[c], OUTPUT);
1061:C:\Users\Hexma\Documents\Arduino\hardware\SMART-Response-XE-Low_level-master\avr\libraries\SmartResponseXE\SmartResponseXE.cpp ****     mydigitalWrite(colPins[c], LOW); // test this column
1062:C:\Users\Hexma\Documents\Arduino\hardware\SMART-Response-XE-Low_level-master\avr\libraries\SmartResponseXE\SmartResponseXE.cpp ****     for (r = 0; r < ROWS; r++)
1063:C:\Users\Hexma\Documents\Arduino\hardware\SMART-Response-XE-Low_level-master\avr\libraries\SmartResponseXE\SmartResponseXE.cpp ****     {
1064:C:\Users\Hexma\Documents\Arduino\hardware\SMART-Response-XE-Low_level-master\avr\libraries\SmartResponseXE\SmartResponseXE.cpp ****       if (mydigitalRead(rowPins[r]) == LOW)
1065:C:\Users\Hexma\Documents\Arduino\hardware\SMART-Response-XE-Low_level-master\avr\libraries\SmartResponseXE\SmartResponseXE.cpp ****         bKeyMap[c] |= (1 << r); // set a bit for each pressed key
 4092               		.loc 1 1065 0
 4093 0048 8824      		clr r8
 4094 004a 8394      		inc r8
 4095 004c 912C      		mov r9,__zero_reg__
 4096               	.LVL418:
 4097               	.L182:
1059:C:\Users\Hexma\Documents\Arduino\hardware\SMART-Response-XE-Low_level-master\avr\libraries\SmartResponseXE\SmartResponseXE.cpp ****     mypinMode(colPins[c], OUTPUT);
 4098               		.loc 1 1059 0
 4099 004e 1882      		st Y,__zero_reg__
1060:C:\Users\Hexma\Documents\Arduino\hardware\SMART-Response-XE-Low_level-master\avr\libraries\SmartResponseXE\SmartResponseXE.cpp ****     mydigitalWrite(colPins[c], LOW); // test this column
 4100               		.loc 1 1060 0
 4101 0050 F601      		movw r30,r12
 4102 0052 1191      		ld r17,Z+
 4103 0054 6F01      		movw r12,r30
 4104 0056 61E0      		ldi r22,lo8(1)
 4105 0058 812F      		mov r24,r17
 4106 005a 0E94 0000 		call _Z9mypinModehh
 4107               	.LVL419:
1061:C:\Users\Hexma\Documents\Arduino\hardware\SMART-Response-XE-Low_level-master\avr\libraries\SmartResponseXE\SmartResponseXE.cpp ****     for (r = 0; r < ROWS; r++)
 4108               		.loc 1 1061 0
 4109 005e 60E0      		ldi r22,0
 4110 0060 812F      		mov r24,r17
 4111 0062 0E94 0000 		call _Z14mydigitalWritehh
 4112               	.LVL420:
 4113 0066 80E0      		ldi r24,lo8(_ZL7rowPins)
 4114 0068 A82E      		mov r10,r24
 4115 006a 80E0      		ldi r24,hi8(_ZL7rowPins)
 4116 006c B82E      		mov r11,r24
 4117 006e F12C      		mov r15,__zero_reg__
 4118 0070 E12C      		mov r14,__zero_reg__
 4119               	.LVL421:
 4120               	.L181:
1064:C:\Users\Hexma\Documents\Arduino\hardware\SMART-Response-XE-Low_level-master\avr\libraries\SmartResponseXE\SmartResponseXE.cpp ****         bKeyMap[c] |= (1 << r); // set a bit for each pressed key
 4121               		.loc 1 1064 0
 4122 0072 F501      		movw r30,r10
 4123 0074 8191      		ld r24,Z+
 4124 0076 5F01      		movw r10,r30
 4125 0078 0E94 0000 		call _Z13mydigitalReadh
 4126               	.LVL422:
 4127 007c 8111      		cpse r24,__zero_reg__
 4128 007e 00C0      		rjmp .L180
 4129               		.loc 1 1065 0
 4130 0080 8881      		ld r24,Y
 4131 0082 9401      		movw r18,r8
 4132 0084 0E2C      		mov r0,r14
GAS LISTING C:\Users\Hexma\AppData\Local\Temp\cc7G6F1c.s 			page 96


 4133 0086 00C0      		rjmp 2f
 4134               		1:
 4135 0088 220F      		lsl r18
 4136               		2:
 4137 008a 0A94      		dec r0
 4138 008c 02F4      		brpl 1b
 4139 008e 822B      		or r24,r18
 4140 0090 8883      		st Y,r24
 4141               	.L180:
 4142               	.LVL423:
 4143 0092 FFEF      		ldi r31,-1
 4144 0094 EF1A      		sub r14,r31
 4145 0096 FF0A      		sbc r15,r31
 4146               	.LVL424:
1062:C:\Users\Hexma\Documents\Arduino\hardware\SMART-Response-XE-Low_level-master\avr\libraries\SmartResponseXE\SmartResponseXE.cpp ****     {
 4147               		.loc 1 1062 0 discriminator 2
 4148 0098 86E0      		ldi r24,6
 4149 009a E816      		cp r14,r24
 4150 009c F104      		cpc r15,__zero_reg__
 4151 009e 01F4      		brne .L181
1066:C:\Users\Hexma\Documents\Arduino\hardware\SMART-Response-XE-Low_level-master\avr\libraries\SmartResponseXE\SmartResponseXE.cpp ****     } // for r
1067:C:\Users\Hexma\Documents\Arduino\hardware\SMART-Response-XE-Low_level-master\avr\libraries\SmartResponseXE\SmartResponseXE.cpp ****     mydigitalWrite(colPins[c], HIGH); // leave pin in high impedance state
 4152               		.loc 1 1067 0 discriminator 2
 4153 00a0 61E0      		ldi r22,lo8(1)
 4154 00a2 812F      		mov r24,r17
 4155 00a4 0E94 0000 		call _Z14mydigitalWritehh
 4156               	.LVL425:
1068:C:\Users\Hexma\Documents\Arduino\hardware\SMART-Response-XE-Low_level-master\avr\libraries\SmartResponseXE\SmartResponseXE.cpp ****     mypinMode(colPins[c], INPUT);
 4157               		.loc 1 1068 0 discriminator 2
 4158 00a8 60E0      		ldi r22,0
 4159 00aa 812F      		mov r24,r17
 4160 00ac 0E94 0000 		call _Z9mypinModehh
 4161               	.LVL426:
 4162 00b0 2196      		adiw r28,1
 4163               	.LVL427:
1057:C:\Users\Hexma\Documents\Arduino\hardware\SMART-Response-XE-Low_level-master\avr\libraries\SmartResponseXE\SmartResponseXE.cpp ****   {
 4164               		.loc 1 1057 0 discriminator 2
 4165 00b2 E0E0      		ldi r30,hi8(_ZL7bKeyMap+10)
 4166 00b4 C030      		cpi r28,lo8(_ZL7bKeyMap+10)
 4167 00b6 DE07      		cpc r29,r30
 4168 00b8 01F4      		brne .L182
 4169               	/* epilogue start */
1069:C:\Users\Hexma\Documents\Arduino\hardware\SMART-Response-XE-Low_level-master\avr\libraries\SmartResponseXE\SmartResponseXE.cpp ****   } // for c
1070:C:\Users\Hexma\Documents\Arduino\hardware\SMART-Response-XE-Low_level-master\avr\libraries\SmartResponseXE\SmartResponseXE.cpp **** } /* SRXEScanKeyboard() */
 4170               		.loc 1 1070 0
 4171 00ba DF91      		pop r29
 4172 00bc CF91      		pop r28
 4173               	.LVL428:
 4174 00be 1F91      		pop r17
 4175 00c0 FF90      		pop r15
 4176 00c2 EF90      		pop r14
 4177               	.LVL429:
 4178 00c4 DF90      		pop r13
 4179 00c6 CF90      		pop r12
 4180 00c8 BF90      		pop r11
 4181 00ca AF90      		pop r10
 4182 00cc 9F90      		pop r9
GAS LISTING C:\Users\Hexma\AppData\Local\Temp\cc7G6F1c.s 			page 97


 4183 00ce 8F90      		pop r8
 4184 00d0 0895      		ret
 4185               		.cfi_endproc
 4186               	.LFE141:
 4188               		.section	.text._Z13SRXEGetKeyMapv,"ax",@progbits
 4189               	.global	_Z13SRXEGetKeyMapv
 4191               	_Z13SRXEGetKeyMapv:
 4192               	.LFB142:
1071:C:\Users\Hexma\Documents\Arduino\hardware\SMART-Response-XE-Low_level-master\avr\libraries\SmartResponseXE\SmartResponseXE.cpp **** //
1072:C:\Users\Hexma\Documents\Arduino\hardware\SMART-Response-XE-Low_level-master\avr\libraries\SmartResponseXE\SmartResponseXE.cpp **** // Return a pointer to the internal key map
1073:C:\Users\Hexma\Documents\Arduino\hardware\SMART-Response-XE-Low_level-master\avr\libraries\SmartResponseXE\SmartResponseXE.cpp **** // (10 bytes with 6 bits each)
1074:C:\Users\Hexma\Documents\Arduino\hardware\SMART-Response-XE-Low_level-master\avr\libraries\SmartResponseXE\SmartResponseXE.cpp **** //
1075:C:\Users\Hexma\Documents\Arduino\hardware\SMART-Response-XE-Low_level-master\avr\libraries\SmartResponseXE\SmartResponseXE.cpp **** byte *SRXEGetKeyMap(void)
1076:C:\Users\Hexma\Documents\Arduino\hardware\SMART-Response-XE-Low_level-master\avr\libraries\SmartResponseXE\SmartResponseXE.cpp **** {
 4193               		.loc 1 1076 0
 4194               		.cfi_startproc
 4195               	/* prologue: function */
 4196               	/* frame size = 0 */
 4197               	/* stack size = 0 */
 4198               	.L__stack_usage = 0
1077:C:\Users\Hexma\Documents\Arduino\hardware\SMART-Response-XE-Low_level-master\avr\libraries\SmartResponseXE\SmartResponseXE.cpp ****   return bKeyMap;
1078:C:\Users\Hexma\Documents\Arduino\hardware\SMART-Response-XE-Low_level-master\avr\libraries\SmartResponseXE\SmartResponseXE.cpp **** }
 4199               		.loc 1 1078 0
 4200 0000 80E0      		ldi r24,lo8(_ZL7bKeyMap)
 4201 0002 90E0      		ldi r25,hi8(_ZL7bKeyMap)
 4202               	/* epilogue start */
 4203 0004 0895      		ret
 4204               		.cfi_endproc
 4205               	.LFE142:
 4207               		.section	.text._Z10SRXEGetKeyv,"ax",@progbits
 4208               	.global	_Z10SRXEGetKeyv
 4210               	_Z10SRXEGetKeyv:
 4211               	.LFB143:
1079:C:\Users\Hexma\Documents\Arduino\hardware\SMART-Response-XE-Low_level-master\avr\libraries\SmartResponseXE\SmartResponseXE.cpp **** //
1080:C:\Users\Hexma\Documents\Arduino\hardware\SMART-Response-XE-Low_level-master\avr\libraries\SmartResponseXE\SmartResponseXE.cpp **** // Return the current key pressed
1081:C:\Users\Hexma\Documents\Arduino\hardware\SMART-Response-XE-Low_level-master\avr\libraries\SmartResponseXE\SmartResponseXE.cpp **** // includes code to provide shift + sym adjusted output
1082:C:\Users\Hexma\Documents\Arduino\hardware\SMART-Response-XE-Low_level-master\avr\libraries\SmartResponseXE\SmartResponseXE.cpp **** //
1083:C:\Users\Hexma\Documents\Arduino\hardware\SMART-Response-XE-Low_level-master\avr\libraries\SmartResponseXE\SmartResponseXE.cpp **** byte SRXEGetKey(void)
1084:C:\Users\Hexma\Documents\Arduino\hardware\SMART-Response-XE-Low_level-master\avr\libraries\SmartResponseXE\SmartResponseXE.cpp **** {
 4212               		.loc 1 1084 0
 4213               		.cfi_startproc
 4214 0000 EF92      		push r14
 4215               	.LCFI173:
 4216               		.cfi_def_cfa_offset 3
 4217               		.cfi_offset 14, -2
 4218 0002 FF92      		push r15
 4219               	.LCFI174:
 4220               		.cfi_def_cfa_offset 4
 4221               		.cfi_offset 15, -3
 4222 0004 0F93      		push r16
 4223               	.LCFI175:
 4224               		.cfi_def_cfa_offset 5
 4225               		.cfi_offset 16, -4
 4226 0006 1F93      		push r17
 4227               	.LCFI176:
 4228               		.cfi_def_cfa_offset 6
 4229               		.cfi_offset 17, -5
GAS LISTING C:\Users\Hexma\AppData\Local\Temp\cc7G6F1c.s 			page 98


 4230 0008 CF93      		push r28
 4231               	.LCFI177:
 4232               		.cfi_def_cfa_offset 7
 4233               		.cfi_offset 28, -6
 4234 000a DF93      		push r29
 4235               	.LCFI178:
 4236               		.cfi_def_cfa_offset 8
 4237               		.cfi_offset 29, -7
 4238               	/* prologue: function */
 4239               	/* frame size = 0 */
 4240               	/* stack size = 6 */
 4241               	.L__stack_usage = 6
 4242               	.LVL430:
1085:C:\Users\Hexma\Documents\Arduino\hardware\SMART-Response-XE-Low_level-master\avr\libraries\SmartResponseXE\SmartResponseXE.cpp ****   byte bShift, bSym, *pKeys;
1086:C:\Users\Hexma\Documents\Arduino\hardware\SMART-Response-XE-Low_level-master\avr\libraries\SmartResponseXE\SmartResponseXE.cpp ****   byte iCol, iRow;
1087:C:\Users\Hexma\Documents\Arduino\hardware\SMART-Response-XE-Low_level-master\avr\libraries\SmartResponseXE\SmartResponseXE.cpp ****   byte bMask;
1088:C:\Users\Hexma\Documents\Arduino\hardware\SMART-Response-XE-Low_level-master\avr\libraries\SmartResponseXE\SmartResponseXE.cpp ****   byte bKey = 0;
1089:C:\Users\Hexma\Documents\Arduino\hardware\SMART-Response-XE-Low_level-master\avr\libraries\SmartResponseXE\SmartResponseXE.cpp **** 
1090:C:\Users\Hexma\Documents\Arduino\hardware\SMART-Response-XE-Low_level-master\avr\libraries\SmartResponseXE\SmartResponseXE.cpp ****   SRXEScanKeyboard();
 4243               		.loc 1 1090 0
 4244 000c 0E94 0000 		call _Z16SRXEScanKeyboardv
 4245               	.LVL431:
1091:C:\Users\Hexma\Documents\Arduino\hardware\SMART-Response-XE-Low_level-master\avr\libraries\SmartResponseXE\SmartResponseXE.cpp ****   bShift =  bKeyMap[0] & 0x08;
 4246               		.loc 1 1091 0
 4247 0010 7091 0000 		lds r23,_ZL7bKeyMap
 4248 0014 172F      		mov r17,r23
 4249 0016 1870      		andi r17,lo8(8)
 4250               	.LVL432:
1092:C:\Users\Hexma\Documents\Arduino\hardware\SMART-Response-XE-Low_level-master\avr\libraries\SmartResponseXE\SmartResponseXE.cpp ****   bSym = bKeyMap[0] & 0x10;
 4251               		.loc 1 1092 0
 4252 0018 7071      		andi r23,lo8(16)
 4253               	.LVL433:
 4254 001a C0E0      		ldi r28,lo8(_ZL7bKeyMap)
 4255 001c D0E0      		ldi r29,hi8(_ZL7bKeyMap)
 4256 001e A0E0      		ldi r26,lo8(_ZL10bOldKeyMap)
 4257 0020 B0E0      		ldi r27,hi8(_ZL10bOldKeyMap)
 4258 0022 30E0      		ldi r19,0
 4259 0024 20E0      		ldi r18,0
1088:C:\Users\Hexma\Documents\Arduino\hardware\SMART-Response-XE-Low_level-master\avr\libraries\SmartResponseXE\SmartResponseXE.cpp **** 
 4260               		.loc 1 1088 0
 4261 0026 80E0      		ldi r24,0
1093:C:\Users\Hexma\Documents\Arduino\hardware\SMART-Response-XE-Low_level-master\avr\libraries\SmartResponseXE\SmartResponseXE.cpp ****   for (iCol = 0; iCol < COLS; iCol++)
1094:C:\Users\Hexma\Documents\Arduino\hardware\SMART-Response-XE-Low_level-master\avr\libraries\SmartResponseXE\SmartResponseXE.cpp ****   {
1095:C:\Users\Hexma\Documents\Arduino\hardware\SMART-Response-XE-Low_level-master\avr\libraries\SmartResponseXE\SmartResponseXE.cpp ****     bMask = 1;
1096:C:\Users\Hexma\Documents\Arduino\hardware\SMART-Response-XE-Low_level-master\avr\libraries\SmartResponseXE\SmartResponseXE.cpp ****     for (iRow = 0; iRow < ROWS; iRow++, bMask <<= 1)
1097:C:\Users\Hexma\Documents\Arduino\hardware\SMART-Response-XE-Low_level-master\avr\libraries\SmartResponseXE\SmartResponseXE.cpp ****     {
1098:C:\Users\Hexma\Documents\Arduino\hardware\SMART-Response-XE-Low_level-master\avr\libraries\SmartResponseXE\SmartResponseXE.cpp ****       if ((bKeyMap[iCol] & bMask) == bMask && (bOldKeyMap[iCol] & bMask) == 0)
1099:C:\Users\Hexma\Documents\Arduino\hardware\SMART-Response-XE-Low_level-master\avr\libraries\SmartResponseXE\SmartResponseXE.cpp ****       {
1100:C:\Users\Hexma\Documents\Arduino\hardware\SMART-Response-XE-Low_level-master\avr\libraries\SmartResponseXE\SmartResponseXE.cpp ****         // make sure it's not shift/sym
1101:C:\Users\Hexma\Documents\Arduino\hardware\SMART-Response-XE-Low_level-master\avr\libraries\SmartResponseXE\SmartResponseXE.cpp ****         if (iCol == 0 && (iRow == 3 || iRow == 4)) // shift/sym, ignore
1102:C:\Users\Hexma\Documents\Arduino\hardware\SMART-Response-XE-Low_level-master\avr\libraries\SmartResponseXE\SmartResponseXE.cpp ****           continue;
1103:C:\Users\Hexma\Documents\Arduino\hardware\SMART-Response-XE-Low_level-master\avr\libraries\SmartResponseXE\SmartResponseXE.cpp ****         // valid key, adjust it and return
1104:C:\Users\Hexma\Documents\Arduino\hardware\SMART-Response-XE-Low_level-master\avr\libraries\SmartResponseXE\SmartResponseXE.cpp ****         pKeys = OriginalKeys;
1105:C:\Users\Hexma\Documents\Arduino\hardware\SMART-Response-XE-Low_level-master\avr\libraries\SmartResponseXE\SmartResponseXE.cpp ****         if (bShift) pKeys = ShiftedKeys;
1106:C:\Users\Hexma\Documents\Arduino\hardware\SMART-Response-XE-Low_level-master\avr\libraries\SmartResponseXE\SmartResponseXE.cpp ****         else if (bSym) pKeys = SymKeys;
1107:C:\Users\Hexma\Documents\Arduino\hardware\SMART-Response-XE-Low_level-master\avr\libraries\SmartResponseXE\SmartResponseXE.cpp ****         bKey = pKeys[(iRow * COLS) + iCol];
 4262               		.loc 1 1107 0
GAS LISTING C:\Users\Hexma\AppData\Local\Temp\cc7G6F1c.s 			page 99


 4263 0028 0AE0      		ldi r16,lo8(10)
 4264               	.LVL434:
 4265               	.L192:
1098:C:\Users\Hexma\Documents\Arduino\hardware\SMART-Response-XE-Low_level-master\avr\libraries\SmartResponseXE\SmartResponseXE.cpp ****       {
 4266               		.loc 1 1098 0
 4267 002a F990      		ld r15,Y+
 4268 002c 50E0      		ldi r21,0
 4269 002e 40E0      		ldi r20,0
1095:C:\Users\Hexma\Documents\Arduino\hardware\SMART-Response-XE-Low_level-master\avr\libraries\SmartResponseXE\SmartResponseXE.cpp ****     for (iRow = 0; iRow < ROWS; iRow++, bMask <<= 1)
 4270               		.loc 1 1095 0
 4271 0030 61E0      		ldi r22,lo8(1)
1101:C:\Users\Hexma\Documents\Arduino\hardware\SMART-Response-XE-Low_level-master\avr\libraries\SmartResponseXE\SmartResponseXE.cpp ****           continue;
 4272               		.loc 1 1101 0
 4273 0032 E22E      		mov r14,r18
 4274               	.LVL435:
 4275               	.L191:
1098:C:\Users\Hexma\Documents\Arduino\hardware\SMART-Response-XE-Low_level-master\avr\libraries\SmartResponseXE\SmartResponseXE.cpp ****       {
 4276               		.loc 1 1098 0
 4277 0034 9F2D      		mov r25,r15
 4278 0036 9623      		and r25,r22
 4279 0038 9613      		cpse r25,r22
 4280 003a 00C0      		rjmp .L188
1098:C:\Users\Hexma\Documents\Arduino\hardware\SMART-Response-XE-Low_level-master\avr\libraries\SmartResponseXE\SmartResponseXE.cpp ****       {
 4281               		.loc 1 1098 0 is_stmt 0 discriminator 1
 4282 003c 9C91      		ld r25,X
 4283 003e 9623      		and r25,r22
 4284 0040 01F4      		brne .L188
1101:C:\Users\Hexma\Documents\Arduino\hardware\SMART-Response-XE-Low_level-master\avr\libraries\SmartResponseXE\SmartResponseXE.cpp ****           continue;
 4285               		.loc 1 1101 0 is_stmt 1
 4286 0042 E110      		cpse r14,__zero_reg__
 4287 0044 00C0      		rjmp .L189
1101:C:\Users\Hexma\Documents\Arduino\hardware\SMART-Response-XE-Low_level-master\avr\libraries\SmartResponseXE\SmartResponseXE.cpp ****           continue;
 4288               		.loc 1 1101 0 is_stmt 0 discriminator 1
 4289 0046 9DEF      		ldi r25,lo8(-3)
 4290 0048 940F      		add r25,r20
 4291 004a 9230      		cpi r25,lo8(2)
 4292 004c 00F0      		brlo .L188
 4293               	.L189:
 4294               	.LVL436:
1105:C:\Users\Hexma\Documents\Arduino\hardware\SMART-Response-XE-Low_level-master\avr\libraries\SmartResponseXE\SmartResponseXE.cpp ****         else if (bSym) pKeys = SymKeys;
 4295               		.loc 1 1105 0 is_stmt 1
 4296 004e 80E0      		ldi r24,lo8(ShiftedKeys)
 4297 0050 90E0      		ldi r25,hi8(ShiftedKeys)
 4298               	.LVL437:
 4299 0052 1111      		cpse r17,__zero_reg__
 4300 0054 00C0      		rjmp .L190
1106:C:\Users\Hexma\Documents\Arduino\hardware\SMART-Response-XE-Low_level-master\avr\libraries\SmartResponseXE\SmartResponseXE.cpp ****         bKey = pKeys[(iRow * COLS) + iCol];
 4301               		.loc 1 1106 0
 4302 0056 80E0      		ldi r24,lo8(SymKeys)
 4303 0058 90E0      		ldi r25,hi8(SymKeys)
 4304 005a 7111      		cpse r23,__zero_reg__
 4305 005c 00C0      		rjmp .L190
1104:C:\Users\Hexma\Documents\Arduino\hardware\SMART-Response-XE-Low_level-master\avr\libraries\SmartResponseXE\SmartResponseXE.cpp ****         if (bShift) pKeys = ShiftedKeys;
 4306               		.loc 1 1104 0
 4307 005e 80E0      		ldi r24,lo8(OriginalKeys)
 4308 0060 90E0      		ldi r25,hi8(OriginalKeys)
 4309               	.L190:
GAS LISTING C:\Users\Hexma\AppData\Local\Temp\cc7G6F1c.s 			page 100


 4310               	.LVL438:
 4311               		.loc 1 1107 0
 4312 0062 049F      		mul r16,r20
 4313 0064 F001      		movw r30,r0
 4314 0066 059F      		mul r16,r21
 4315 0068 F00D      		add r31,r0
 4316 006a 1124      		clr __zero_reg__
 4317 006c E80F      		add r30,r24
 4318 006e F91F      		adc r31,r25
 4319 0070 E20F      		add r30,r18
 4320 0072 F31F      		adc r31,r19
 4321 0074 8081      		ld r24,Z
 4322               	.LVL439:
 4323               	.L188:
1096:C:\Users\Hexma\Documents\Arduino\hardware\SMART-Response-XE-Low_level-master\avr\libraries\SmartResponseXE\SmartResponseXE.cpp ****     {
 4324               		.loc 1 1096 0 discriminator 2
 4325 0076 660F      		lsl r22
 4326               	.LVL440:
 4327 0078 4F5F      		subi r20,-1
 4328 007a 5F4F      		sbci r21,-1
 4329               	.LVL441:
 4330 007c 4630      		cpi r20,6
 4331 007e 5105      		cpc r21,__zero_reg__
 4332 0080 01F4      		brne .L191
 4333               	.LVL442:
 4334 0082 2F5F      		subi r18,-1
 4335 0084 3F4F      		sbci r19,-1
 4336               	.LVL443:
 4337 0086 1196      		adiw r26,1
1093:C:\Users\Hexma\Documents\Arduino\hardware\SMART-Response-XE-Low_level-master\avr\libraries\SmartResponseXE\SmartResponseXE.cpp ****   {
 4338               		.loc 1 1093 0 discriminator 2
 4339 0088 2A30      		cpi r18,10
 4340 008a 3105      		cpc r19,__zero_reg__
 4341 008c 01F4      		brne .L192
 4342               	/* epilogue start */
1108:C:\Users\Hexma\Documents\Arduino\hardware\SMART-Response-XE-Low_level-master\avr\libraries\SmartResponseXE\SmartResponseXE.cpp ****       }
1109:C:\Users\Hexma\Documents\Arduino\hardware\SMART-Response-XE-Low_level-master\avr\libraries\SmartResponseXE\SmartResponseXE.cpp ****     } // for iRow
1110:C:\Users\Hexma\Documents\Arduino\hardware\SMART-Response-XE-Low_level-master\avr\libraries\SmartResponseXE\SmartResponseXE.cpp ****   } // for iCol
1111:C:\Users\Hexma\Documents\Arduino\hardware\SMART-Response-XE-Low_level-master\avr\libraries\SmartResponseXE\SmartResponseXE.cpp ****   return bKey; // 0 if no keys pressed
1112:C:\Users\Hexma\Documents\Arduino\hardware\SMART-Response-XE-Low_level-master\avr\libraries\SmartResponseXE\SmartResponseXE.cpp **** } /* SRXEGetKey() */
 4343               		.loc 1 1112 0
 4344 008e DF91      		pop r29
 4345 0090 CF91      		pop r28
 4346 0092 1F91      		pop r17
 4347               	.LVL444:
 4348 0094 0F91      		pop r16
 4349 0096 FF90      		pop r15
 4350 0098 EF90      		pop r14
 4351 009a 0895      		ret
 4352               		.cfi_endproc
 4353               	.LFE143:
 4355               		.section	.progmem.data._ZL11ucSmallFont,"a",@progbits
 4358               	_ZL11ucSmallFont:
 4359 0000 00        		.byte	0
 4360 0001 00        		.byte	0
 4361 0002 00        		.byte	0
 4362 0003 00        		.byte	0
GAS LISTING C:\Users\Hexma\AppData\Local\Temp\cc7G6F1c.s 			page 101


 4363 0004 00        		.byte	0
 4364 0005 00        		.byte	0
 4365 0006 00        		.byte	0
 4366 0007 00        		.byte	0
 4367 0008 06        		.byte	6
 4368 0009 5F        		.byte	95
 4369 000a 06        		.byte	6
 4370 000b 00        		.byte	0
 4371 000c 00        		.byte	0
 4372 000d 07        		.byte	7
 4373 000e 03        		.byte	3
 4374 000f 00        		.byte	0
 4375 0010 07        		.byte	7
 4376 0011 03        		.byte	3
 4377 0012 00        		.byte	0
 4378 0013 24        		.byte	36
 4379 0014 7E        		.byte	126
 4380 0015 24        		.byte	36
 4381 0016 7E        		.byte	126
 4382 0017 24        		.byte	36
 4383 0018 00        		.byte	0
 4384 0019 24        		.byte	36
 4385 001a 2B        		.byte	43
 4386 001b 6A        		.byte	106
 4387 001c 12        		.byte	18
 4388 001d 00        		.byte	0
 4389 001e 00        		.byte	0
 4390 001f 63        		.byte	99
 4391 0020 13        		.byte	19
 4392 0021 08        		.byte	8
 4393 0022 64        		.byte	100
 4394 0023 63        		.byte	99
 4395 0024 00        		.byte	0
 4396 0025 36        		.byte	54
 4397 0026 49        		.byte	73
 4398 0027 56        		.byte	86
 4399 0028 20        		.byte	32
 4400 0029 50        		.byte	80
 4401 002a 00        		.byte	0
 4402 002b 00        		.byte	0
 4403 002c 07        		.byte	7
 4404 002d 03        		.byte	3
 4405 002e 00        		.byte	0
 4406 002f 00        		.byte	0
 4407 0030 00        		.byte	0
 4408 0031 00        		.byte	0
 4409 0032 3E        		.byte	62
 4410 0033 41        		.byte	65
 4411 0034 00        		.byte	0
 4412 0035 00        		.byte	0
 4413 0036 00        		.byte	0
 4414 0037 00        		.byte	0
 4415 0038 41        		.byte	65
 4416 0039 3E        		.byte	62
 4417 003a 00        		.byte	0
 4418 003b 00        		.byte	0
 4419 003c 00        		.byte	0
GAS LISTING C:\Users\Hexma\AppData\Local\Temp\cc7G6F1c.s 			page 102


 4420 003d 08        		.byte	8
 4421 003e 3E        		.byte	62
 4422 003f 1C        		.byte	28
 4423 0040 3E        		.byte	62
 4424 0041 08        		.byte	8
 4425 0042 00        		.byte	0
 4426 0043 08        		.byte	8
 4427 0044 08        		.byte	8
 4428 0045 3E        		.byte	62
 4429 0046 08        		.byte	8
 4430 0047 08        		.byte	8
 4431 0048 00        		.byte	0
 4432 0049 00        		.byte	0
 4433 004a E0        		.byte	-32
 4434 004b 60        		.byte	96
 4435 004c 00        		.byte	0
 4436 004d 00        		.byte	0
 4437 004e 00        		.byte	0
 4438 004f 08        		.byte	8
 4439 0050 08        		.byte	8
 4440 0051 08        		.byte	8
 4441 0052 08        		.byte	8
 4442 0053 08        		.byte	8
 4443 0054 00        		.byte	0
 4444 0055 00        		.byte	0
 4445 0056 60        		.byte	96
 4446 0057 60        		.byte	96
 4447 0058 00        		.byte	0
 4448 0059 00        		.byte	0
 4449 005a 00        		.byte	0
 4450 005b 20        		.byte	32
 4451 005c 10        		.byte	16
 4452 005d 08        		.byte	8
 4453 005e 04        		.byte	4
 4454 005f 02        		.byte	2
 4455 0060 00        		.byte	0
 4456 0061 3E        		.byte	62
 4457 0062 51        		.byte	81
 4458 0063 49        		.byte	73
 4459 0064 45        		.byte	69
 4460 0065 3E        		.byte	62
 4461 0066 00        		.byte	0
 4462 0067 00        		.byte	0
 4463 0068 42        		.byte	66
 4464 0069 7F        		.byte	127
 4465 006a 40        		.byte	64
 4466 006b 00        		.byte	0
 4467 006c 00        		.byte	0
 4468 006d 62        		.byte	98
 4469 006e 51        		.byte	81
 4470 006f 49        		.byte	73
 4471 0070 49        		.byte	73
 4472 0071 46        		.byte	70
 4473 0072 00        		.byte	0
 4474 0073 22        		.byte	34
 4475 0074 49        		.byte	73
 4476 0075 49        		.byte	73
GAS LISTING C:\Users\Hexma\AppData\Local\Temp\cc7G6F1c.s 			page 103


 4477 0076 49        		.byte	73
 4478 0077 36        		.byte	54
 4479 0078 00        		.byte	0
 4480 0079 18        		.byte	24
 4481 007a 14        		.byte	20
 4482 007b 12        		.byte	18
 4483 007c 7F        		.byte	127
 4484 007d 10        		.byte	16
 4485 007e 00        		.byte	0
 4486 007f 2F        		.byte	47
 4487 0080 49        		.byte	73
 4488 0081 49        		.byte	73
 4489 0082 49        		.byte	73
 4490 0083 31        		.byte	49
 4491 0084 00        		.byte	0
 4492 0085 3C        		.byte	60
 4493 0086 4A        		.byte	74
 4494 0087 49        		.byte	73
 4495 0088 49        		.byte	73
 4496 0089 30        		.byte	48
 4497 008a 00        		.byte	0
 4498 008b 01        		.byte	1
 4499 008c 71        		.byte	113
 4500 008d 09        		.byte	9
 4501 008e 05        		.byte	5
 4502 008f 03        		.byte	3
 4503 0090 00        		.byte	0
 4504 0091 36        		.byte	54
 4505 0092 49        		.byte	73
 4506 0093 49        		.byte	73
 4507 0094 49        		.byte	73
 4508 0095 36        		.byte	54
 4509 0096 00        		.byte	0
 4510 0097 06        		.byte	6
 4511 0098 49        		.byte	73
 4512 0099 49        		.byte	73
 4513 009a 29        		.byte	41
 4514 009b 1E        		.byte	30
 4515 009c 00        		.byte	0
 4516 009d 00        		.byte	0
 4517 009e 6C        		.byte	108
 4518 009f 6C        		.byte	108
 4519 00a0 00        		.byte	0
 4520 00a1 00        		.byte	0
 4521 00a2 00        		.byte	0
 4522 00a3 00        		.byte	0
 4523 00a4 EC        		.byte	-20
 4524 00a5 6C        		.byte	108
 4525 00a6 00        		.byte	0
 4526 00a7 00        		.byte	0
 4527 00a8 00        		.byte	0
 4528 00a9 08        		.byte	8
 4529 00aa 14        		.byte	20
 4530 00ab 22        		.byte	34
 4531 00ac 41        		.byte	65
 4532 00ad 00        		.byte	0
 4533 00ae 00        		.byte	0
GAS LISTING C:\Users\Hexma\AppData\Local\Temp\cc7G6F1c.s 			page 104


 4534 00af 24        		.byte	36
 4535 00b0 24        		.byte	36
 4536 00b1 24        		.byte	36
 4537 00b2 24        		.byte	36
 4538 00b3 24        		.byte	36
 4539 00b4 00        		.byte	0
 4540 00b5 00        		.byte	0
 4541 00b6 41        		.byte	65
 4542 00b7 22        		.byte	34
 4543 00b8 14        		.byte	20
 4544 00b9 08        		.byte	8
 4545 00ba 00        		.byte	0
 4546 00bb 02        		.byte	2
 4547 00bc 01        		.byte	1
 4548 00bd 59        		.byte	89
 4549 00be 09        		.byte	9
 4550 00bf 06        		.byte	6
 4551 00c0 00        		.byte	0
 4552 00c1 3E        		.byte	62
 4553 00c2 41        		.byte	65
 4554 00c3 5D        		.byte	93
 4555 00c4 55        		.byte	85
 4556 00c5 1E        		.byte	30
 4557 00c6 00        		.byte	0
 4558 00c7 7E        		.byte	126
 4559 00c8 11        		.byte	17
 4560 00c9 11        		.byte	17
 4561 00ca 11        		.byte	17
 4562 00cb 7E        		.byte	126
 4563 00cc 00        		.byte	0
 4564 00cd 7F        		.byte	127
 4565 00ce 49        		.byte	73
 4566 00cf 49        		.byte	73
 4567 00d0 49        		.byte	73
 4568 00d1 36        		.byte	54
 4569 00d2 00        		.byte	0
 4570 00d3 3E        		.byte	62
 4571 00d4 41        		.byte	65
 4572 00d5 41        		.byte	65
 4573 00d6 41        		.byte	65
 4574 00d7 22        		.byte	34
 4575 00d8 00        		.byte	0
 4576 00d9 7F        		.byte	127
 4577 00da 41        		.byte	65
 4578 00db 41        		.byte	65
 4579 00dc 41        		.byte	65
 4580 00dd 3E        		.byte	62
 4581 00de 00        		.byte	0
 4582 00df 7F        		.byte	127
 4583 00e0 49        		.byte	73
 4584 00e1 49        		.byte	73
 4585 00e2 49        		.byte	73
 4586 00e3 41        		.byte	65
 4587 00e4 00        		.byte	0
 4588 00e5 7F        		.byte	127
 4589 00e6 09        		.byte	9
 4590 00e7 09        		.byte	9
GAS LISTING C:\Users\Hexma\AppData\Local\Temp\cc7G6F1c.s 			page 105


 4591 00e8 09        		.byte	9
 4592 00e9 01        		.byte	1
 4593 00ea 00        		.byte	0
 4594 00eb 3E        		.byte	62
 4595 00ec 41        		.byte	65
 4596 00ed 49        		.byte	73
 4597 00ee 49        		.byte	73
 4598 00ef 7A        		.byte	122
 4599 00f0 00        		.byte	0
 4600 00f1 7F        		.byte	127
 4601 00f2 08        		.byte	8
 4602 00f3 08        		.byte	8
 4603 00f4 08        		.byte	8
 4604 00f5 7F        		.byte	127
 4605 00f6 00        		.byte	0
 4606 00f7 00        		.byte	0
 4607 00f8 41        		.byte	65
 4608 00f9 7F        		.byte	127
 4609 00fa 41        		.byte	65
 4610 00fb 00        		.byte	0
 4611 00fc 00        		.byte	0
 4612 00fd 30        		.byte	48
 4613 00fe 40        		.byte	64
 4614 00ff 40        		.byte	64
 4615 0100 40        		.byte	64
 4616 0101 3F        		.byte	63
 4617 0102 00        		.byte	0
 4618 0103 7F        		.byte	127
 4619 0104 08        		.byte	8
 4620 0105 14        		.byte	20
 4621 0106 22        		.byte	34
 4622 0107 41        		.byte	65
 4623 0108 00        		.byte	0
 4624 0109 7F        		.byte	127
 4625 010a 40        		.byte	64
 4626 010b 40        		.byte	64
 4627 010c 40        		.byte	64
 4628 010d 40        		.byte	64
 4629 010e 00        		.byte	0
 4630 010f 7F        		.byte	127
 4631 0110 02        		.byte	2
 4632 0111 04        		.byte	4
 4633 0112 02        		.byte	2
 4634 0113 7F        		.byte	127
 4635 0114 00        		.byte	0
 4636 0115 7F        		.byte	127
 4637 0116 02        		.byte	2
 4638 0117 04        		.byte	4
 4639 0118 08        		.byte	8
 4640 0119 7F        		.byte	127
 4641 011a 00        		.byte	0
 4642 011b 3E        		.byte	62
 4643 011c 41        		.byte	65
 4644 011d 41        		.byte	65
 4645 011e 41        		.byte	65
 4646 011f 3E        		.byte	62
 4647 0120 00        		.byte	0
GAS LISTING C:\Users\Hexma\AppData\Local\Temp\cc7G6F1c.s 			page 106


 4648 0121 7F        		.byte	127
 4649 0122 09        		.byte	9
 4650 0123 09        		.byte	9
 4651 0124 09        		.byte	9
 4652 0125 06        		.byte	6
 4653 0126 00        		.byte	0
 4654 0127 3E        		.byte	62
 4655 0128 41        		.byte	65
 4656 0129 51        		.byte	81
 4657 012a 21        		.byte	33
 4658 012b 5E        		.byte	94
 4659 012c 00        		.byte	0
 4660 012d 7F        		.byte	127
 4661 012e 09        		.byte	9
 4662 012f 09        		.byte	9
 4663 0130 19        		.byte	25
 4664 0131 66        		.byte	102
 4665 0132 00        		.byte	0
 4666 0133 26        		.byte	38
 4667 0134 49        		.byte	73
 4668 0135 49        		.byte	73
 4669 0136 49        		.byte	73
 4670 0137 32        		.byte	50
 4671 0138 00        		.byte	0
 4672 0139 01        		.byte	1
 4673 013a 01        		.byte	1
 4674 013b 7F        		.byte	127
 4675 013c 01        		.byte	1
 4676 013d 01        		.byte	1
 4677 013e 00        		.byte	0
 4678 013f 3F        		.byte	63
 4679 0140 40        		.byte	64
 4680 0141 40        		.byte	64
 4681 0142 40        		.byte	64
 4682 0143 3F        		.byte	63
 4683 0144 00        		.byte	0
 4684 0145 1F        		.byte	31
 4685 0146 20        		.byte	32
 4686 0147 40        		.byte	64
 4687 0148 20        		.byte	32
 4688 0149 1F        		.byte	31
 4689 014a 00        		.byte	0
 4690 014b 3F        		.byte	63
 4691 014c 40        		.byte	64
 4692 014d 3C        		.byte	60
 4693 014e 40        		.byte	64
 4694 014f 3F        		.byte	63
 4695 0150 00        		.byte	0
 4696 0151 63        		.byte	99
 4697 0152 14        		.byte	20
 4698 0153 08        		.byte	8
 4699 0154 14        		.byte	20
 4700 0155 63        		.byte	99
 4701 0156 00        		.byte	0
 4702 0157 07        		.byte	7
 4703 0158 08        		.byte	8
 4704 0159 70        		.byte	112
GAS LISTING C:\Users\Hexma\AppData\Local\Temp\cc7G6F1c.s 			page 107


 4705 015a 08        		.byte	8
 4706 015b 07        		.byte	7
 4707 015c 00        		.byte	0
 4708 015d 71        		.byte	113
 4709 015e 49        		.byte	73
 4710 015f 45        		.byte	69
 4711 0160 43        		.byte	67
 4712 0161 00        		.byte	0
 4713 0162 00        		.byte	0
 4714 0163 00        		.byte	0
 4715 0164 7F        		.byte	127
 4716 0165 41        		.byte	65
 4717 0166 41        		.byte	65
 4718 0167 00        		.byte	0
 4719 0168 00        		.byte	0
 4720 0169 02        		.byte	2
 4721 016a 04        		.byte	4
 4722 016b 08        		.byte	8
 4723 016c 10        		.byte	16
 4724 016d 20        		.byte	32
 4725 016e 00        		.byte	0
 4726 016f 00        		.byte	0
 4727 0170 41        		.byte	65
 4728 0171 41        		.byte	65
 4729 0172 7F        		.byte	127
 4730 0173 00        		.byte	0
 4731 0174 00        		.byte	0
 4732 0175 04        		.byte	4
 4733 0176 02        		.byte	2
 4734 0177 01        		.byte	1
 4735 0178 02        		.byte	2
 4736 0179 04        		.byte	4
 4737 017a 00        		.byte	0
 4738 017b 80        		.byte	-128
 4739 017c 80        		.byte	-128
 4740 017d 80        		.byte	-128
 4741 017e 80        		.byte	-128
 4742 017f 80        		.byte	-128
 4743 0180 00        		.byte	0
 4744 0181 00        		.byte	0
 4745 0182 03        		.byte	3
 4746 0183 07        		.byte	7
 4747 0184 00        		.byte	0
 4748 0185 00        		.byte	0
 4749 0186 00        		.byte	0
 4750 0187 20        		.byte	32
 4751 0188 54        		.byte	84
 4752 0189 54        		.byte	84
 4753 018a 54        		.byte	84
 4754 018b 78        		.byte	120
 4755 018c 00        		.byte	0
 4756 018d 7F        		.byte	127
 4757 018e 44        		.byte	68
 4758 018f 44        		.byte	68
 4759 0190 44        		.byte	68
 4760 0191 38        		.byte	56
 4761 0192 00        		.byte	0
GAS LISTING C:\Users\Hexma\AppData\Local\Temp\cc7G6F1c.s 			page 108


 4762 0193 38        		.byte	56
 4763 0194 44        		.byte	68
 4764 0195 44        		.byte	68
 4765 0196 44        		.byte	68
 4766 0197 28        		.byte	40
 4767 0198 00        		.byte	0
 4768 0199 38        		.byte	56
 4769 019a 44        		.byte	68
 4770 019b 44        		.byte	68
 4771 019c 44        		.byte	68
 4772 019d 7F        		.byte	127
 4773 019e 00        		.byte	0
 4774 019f 38        		.byte	56
 4775 01a0 54        		.byte	84
 4776 01a1 54        		.byte	84
 4777 01a2 54        		.byte	84
 4778 01a3 08        		.byte	8
 4779 01a4 00        		.byte	0
 4780 01a5 08        		.byte	8
 4781 01a6 7E        		.byte	126
 4782 01a7 09        		.byte	9
 4783 01a8 09        		.byte	9
 4784 01a9 00        		.byte	0
 4785 01aa 00        		.byte	0
 4786 01ab 18        		.byte	24
 4787 01ac A4        		.byte	-92
 4788 01ad A4        		.byte	-92
 4789 01ae A4        		.byte	-92
 4790 01af 7C        		.byte	124
 4791 01b0 00        		.byte	0
 4792 01b1 7F        		.byte	127
 4793 01b2 04        		.byte	4
 4794 01b3 04        		.byte	4
 4795 01b4 78        		.byte	120
 4796 01b5 00        		.byte	0
 4797 01b6 00        		.byte	0
 4798 01b7 00        		.byte	0
 4799 01b8 00        		.byte	0
 4800 01b9 7D        		.byte	125
 4801 01ba 40        		.byte	64
 4802 01bb 00        		.byte	0
 4803 01bc 00        		.byte	0
 4804 01bd 40        		.byte	64
 4805 01be 80        		.byte	-128
 4806 01bf 84        		.byte	-124
 4807 01c0 7D        		.byte	125
 4808 01c1 00        		.byte	0
 4809 01c2 00        		.byte	0
 4810 01c3 7F        		.byte	127
 4811 01c4 10        		.byte	16
 4812 01c5 28        		.byte	40
 4813 01c6 44        		.byte	68
 4814 01c7 00        		.byte	0
 4815 01c8 00        		.byte	0
 4816 01c9 00        		.byte	0
 4817 01ca 00        		.byte	0
 4818 01cb 7F        		.byte	127
GAS LISTING C:\Users\Hexma\AppData\Local\Temp\cc7G6F1c.s 			page 109


 4819 01cc 40        		.byte	64
 4820 01cd 00        		.byte	0
 4821 01ce 00        		.byte	0
 4822 01cf 7C        		.byte	124
 4823 01d0 04        		.byte	4
 4824 01d1 18        		.byte	24
 4825 01d2 04        		.byte	4
 4826 01d3 78        		.byte	120
 4827 01d4 00        		.byte	0
 4828 01d5 7C        		.byte	124
 4829 01d6 04        		.byte	4
 4830 01d7 04        		.byte	4
 4831 01d8 78        		.byte	120
 4832 01d9 00        		.byte	0
 4833 01da 00        		.byte	0
 4834 01db 38        		.byte	56
 4835 01dc 44        		.byte	68
 4836 01dd 44        		.byte	68
 4837 01de 44        		.byte	68
 4838 01df 38        		.byte	56
 4839 01e0 00        		.byte	0
 4840 01e1 FC        		.byte	-4
 4841 01e2 44        		.byte	68
 4842 01e3 44        		.byte	68
 4843 01e4 44        		.byte	68
 4844 01e5 38        		.byte	56
 4845 01e6 00        		.byte	0
 4846 01e7 38        		.byte	56
 4847 01e8 44        		.byte	68
 4848 01e9 44        		.byte	68
 4849 01ea 44        		.byte	68
 4850 01eb FC        		.byte	-4
 4851 01ec 00        		.byte	0
 4852 01ed 44        		.byte	68
 4853 01ee 78        		.byte	120
 4854 01ef 44        		.byte	68
 4855 01f0 04        		.byte	4
 4856 01f1 08        		.byte	8
 4857 01f2 00        		.byte	0
 4858 01f3 08        		.byte	8
 4859 01f4 54        		.byte	84
 4860 01f5 54        		.byte	84
 4861 01f6 54        		.byte	84
 4862 01f7 20        		.byte	32
 4863 01f8 00        		.byte	0
 4864 01f9 04        		.byte	4
 4865 01fa 3E        		.byte	62
 4866 01fb 44        		.byte	68
 4867 01fc 24        		.byte	36
 4868 01fd 00        		.byte	0
 4869 01fe 00        		.byte	0
 4870 01ff 3C        		.byte	60
 4871 0200 40        		.byte	64
 4872 0201 20        		.byte	32
 4873 0202 7C        		.byte	124
 4874 0203 00        		.byte	0
 4875 0204 00        		.byte	0
GAS LISTING C:\Users\Hexma\AppData\Local\Temp\cc7G6F1c.s 			page 110


 4876 0205 1C        		.byte	28
 4877 0206 20        		.byte	32
 4878 0207 40        		.byte	64
 4879 0208 20        		.byte	32
 4880 0209 1C        		.byte	28
 4881 020a 00        		.byte	0
 4882 020b 3C        		.byte	60
 4883 020c 60        		.byte	96
 4884 020d 30        		.byte	48
 4885 020e 60        		.byte	96
 4886 020f 3C        		.byte	60
 4887 0210 00        		.byte	0
 4888 0211 6C        		.byte	108
 4889 0212 10        		.byte	16
 4890 0213 10        		.byte	16
 4891 0214 6C        		.byte	108
 4892 0215 00        		.byte	0
 4893 0216 00        		.byte	0
 4894 0217 9C        		.byte	-100
 4895 0218 A0        		.byte	-96
 4896 0219 60        		.byte	96
 4897 021a 3C        		.byte	60
 4898 021b 00        		.byte	0
 4899 021c 00        		.byte	0
 4900 021d 64        		.byte	100
 4901 021e 54        		.byte	84
 4902 021f 54        		.byte	84
 4903 0220 4C        		.byte	76
 4904 0221 00        		.byte	0
 4905 0222 00        		.byte	0
 4906 0223 08        		.byte	8
 4907 0224 3E        		.byte	62
 4908 0225 41        		.byte	65
 4909 0226 41        		.byte	65
 4910 0227 00        		.byte	0
 4911 0228 00        		.byte	0
 4912 0229 00        		.byte	0
 4913 022a 00        		.byte	0
 4914 022b 77        		.byte	119
 4915 022c 00        		.byte	0
 4916 022d 00        		.byte	0
 4917 022e 00        		.byte	0
 4918 022f 00        		.byte	0
 4919 0230 41        		.byte	65
 4920 0231 41        		.byte	65
 4921 0232 3E        		.byte	62
 4922 0233 08        		.byte	8
 4923 0234 00        		.byte	0
 4924 0235 02        		.byte	2
 4925 0236 01        		.byte	1
 4926 0237 02        		.byte	2
 4927 0238 01        		.byte	1
 4928 0239 00        		.byte	0
 4929 023a 00        		.byte	0
 4930 023b 3C        		.byte	60
 4931 023c 26        		.byte	38
 4932 023d 23        		.byte	35
GAS LISTING C:\Users\Hexma\AppData\Local\Temp\cc7G6F1c.s 			page 111


 4933 023e 26        		.byte	38
 4934 023f 3C        		.byte	60
 4935               		.section	.progmem.data._ZL6ucFont,"a",@progbits
 4938               	_ZL6ucFont:
 4939 0000 00        		.byte	0
 4940 0001 00        		.byte	0
 4941 0002 00        		.byte	0
 4942 0003 00        		.byte	0
 4943 0004 00        		.byte	0
 4944 0005 00        		.byte	0
 4945 0006 00        		.byte	0
 4946 0007 00        		.byte	0
 4947 0008 00        		.byte	0
 4948 0009 00        		.byte	0
 4949 000a 06        		.byte	6
 4950 000b 5F        		.byte	95
 4951 000c 5F        		.byte	95
 4952 000d 06        		.byte	6
 4953 000e 00        		.byte	0
 4954 000f 00        		.byte	0
 4955 0010 00        		.byte	0
 4956 0011 07        		.byte	7
 4957 0012 07        		.byte	7
 4958 0013 00        		.byte	0
 4959 0014 07        		.byte	7
 4960 0015 07        		.byte	7
 4961 0016 00        		.byte	0
 4962 0017 00        		.byte	0
 4963 0018 14        		.byte	20
 4964 0019 7F        		.byte	127
 4965 001a 7F        		.byte	127
 4966 001b 14        		.byte	20
 4967 001c 7F        		.byte	127
 4968 001d 7F        		.byte	127
 4969 001e 14        		.byte	20
 4970 001f 00        		.byte	0
 4971 0020 24        		.byte	36
 4972 0021 2E        		.byte	46
 4973 0022 2A        		.byte	42
 4974 0023 6B        		.byte	107
 4975 0024 6B        		.byte	107
 4976 0025 3A        		.byte	58
 4977 0026 12        		.byte	18
 4978 0027 00        		.byte	0
 4979 0028 46        		.byte	70
 4980 0029 66        		.byte	102
 4981 002a 30        		.byte	48
 4982 002b 18        		.byte	24
 4983 002c 0C        		.byte	12
 4984 002d 66        		.byte	102
 4985 002e 62        		.byte	98
 4986 002f 00        		.byte	0
 4987 0030 30        		.byte	48
 4988 0031 7A        		.byte	122
 4989 0032 4F        		.byte	79
 4990 0033 5D        		.byte	93
 4991 0034 37        		.byte	55
GAS LISTING C:\Users\Hexma\AppData\Local\Temp\cc7G6F1c.s 			page 112


 4992 0035 7A        		.byte	122
 4993 0036 48        		.byte	72
 4994 0037 00        		.byte	0
 4995 0038 00        		.byte	0
 4996 0039 04        		.byte	4
 4997 003a 07        		.byte	7
 4998 003b 03        		.byte	3
 4999 003c 00        		.byte	0
 5000 003d 00        		.byte	0
 5001 003e 00        		.byte	0
 5002 003f 00        		.byte	0
 5003 0040 00        		.byte	0
 5004 0041 1C        		.byte	28
 5005 0042 3E        		.byte	62
 5006 0043 63        		.byte	99
 5007 0044 41        		.byte	65
 5008 0045 00        		.byte	0
 5009 0046 00        		.byte	0
 5010 0047 00        		.byte	0
 5011 0048 00        		.byte	0
 5012 0049 41        		.byte	65
 5013 004a 63        		.byte	99
 5014 004b 3E        		.byte	62
 5015 004c 1C        		.byte	28
 5016 004d 00        		.byte	0
 5017 004e 00        		.byte	0
 5018 004f 00        		.byte	0
 5019 0050 08        		.byte	8
 5020 0051 2A        		.byte	42
 5021 0052 3E        		.byte	62
 5022 0053 1C        		.byte	28
 5023 0054 1C        		.byte	28
 5024 0055 3E        		.byte	62
 5025 0056 2A        		.byte	42
 5026 0057 08        		.byte	8
 5027 0058 00        		.byte	0
 5028 0059 08        		.byte	8
 5029 005a 08        		.byte	8
 5030 005b 3E        		.byte	62
 5031 005c 3E        		.byte	62
 5032 005d 08        		.byte	8
 5033 005e 08        		.byte	8
 5034 005f 00        		.byte	0
 5035 0060 00        		.byte	0
 5036 0061 00        		.byte	0
 5037 0062 80        		.byte	-128
 5038 0063 E0        		.byte	-32
 5039 0064 60        		.byte	96
 5040 0065 00        		.byte	0
 5041 0066 00        		.byte	0
 5042 0067 00        		.byte	0
 5043 0068 00        		.byte	0
 5044 0069 08        		.byte	8
 5045 006a 08        		.byte	8
 5046 006b 08        		.byte	8
 5047 006c 08        		.byte	8
 5048 006d 08        		.byte	8
GAS LISTING C:\Users\Hexma\AppData\Local\Temp\cc7G6F1c.s 			page 113


 5049 006e 08        		.byte	8
 5050 006f 00        		.byte	0
 5051 0070 00        		.byte	0
 5052 0071 00        		.byte	0
 5053 0072 00        		.byte	0
 5054 0073 60        		.byte	96
 5055 0074 60        		.byte	96
 5056 0075 00        		.byte	0
 5057 0076 00        		.byte	0
 5058 0077 00        		.byte	0
 5059 0078 60        		.byte	96
 5060 0079 30        		.byte	48
 5061 007a 18        		.byte	24
 5062 007b 0C        		.byte	12
 5063 007c 06        		.byte	6
 5064 007d 03        		.byte	3
 5065 007e 01        		.byte	1
 5066 007f 00        		.byte	0
 5067 0080 3E        		.byte	62
 5068 0081 7F        		.byte	127
 5069 0082 59        		.byte	89
 5070 0083 4D        		.byte	77
 5071 0084 47        		.byte	71
 5072 0085 7F        		.byte	127
 5073 0086 3E        		.byte	62
 5074 0087 00        		.byte	0
 5075 0088 40        		.byte	64
 5076 0089 42        		.byte	66
 5077 008a 7F        		.byte	127
 5078 008b 7F        		.byte	127
 5079 008c 40        		.byte	64
 5080 008d 40        		.byte	64
 5081 008e 00        		.byte	0
 5082 008f 00        		.byte	0
 5083 0090 62        		.byte	98
 5084 0091 73        		.byte	115
 5085 0092 59        		.byte	89
 5086 0093 49        		.byte	73
 5087 0094 6F        		.byte	111
 5088 0095 66        		.byte	102
 5089 0096 00        		.byte	0
 5090 0097 00        		.byte	0
 5091 0098 22        		.byte	34
 5092 0099 63        		.byte	99
 5093 009a 49        		.byte	73
 5094 009b 49        		.byte	73
 5095 009c 7F        		.byte	127
 5096 009d 36        		.byte	54
 5097 009e 00        		.byte	0
 5098 009f 00        		.byte	0
 5099 00a0 18        		.byte	24
 5100 00a1 1C        		.byte	28
 5101 00a2 16        		.byte	22
 5102 00a3 53        		.byte	83
 5103 00a4 7F        		.byte	127
 5104 00a5 7F        		.byte	127
 5105 00a6 50        		.byte	80
GAS LISTING C:\Users\Hexma\AppData\Local\Temp\cc7G6F1c.s 			page 114


 5106 00a7 00        		.byte	0
 5107 00a8 27        		.byte	39
 5108 00a9 67        		.byte	103
 5109 00aa 45        		.byte	69
 5110 00ab 45        		.byte	69
 5111 00ac 7D        		.byte	125
 5112 00ad 39        		.byte	57
 5113 00ae 00        		.byte	0
 5114 00af 00        		.byte	0
 5115 00b0 3C        		.byte	60
 5116 00b1 7E        		.byte	126
 5117 00b2 4B        		.byte	75
 5118 00b3 49        		.byte	73
 5119 00b4 79        		.byte	121
 5120 00b5 30        		.byte	48
 5121 00b6 00        		.byte	0
 5122 00b7 00        		.byte	0
 5123 00b8 03        		.byte	3
 5124 00b9 03        		.byte	3
 5125 00ba 71        		.byte	113
 5126 00bb 79        		.byte	121
 5127 00bc 0F        		.byte	15
 5128 00bd 07        		.byte	7
 5129 00be 00        		.byte	0
 5130 00bf 00        		.byte	0
 5131 00c0 36        		.byte	54
 5132 00c1 7F        		.byte	127
 5133 00c2 49        		.byte	73
 5134 00c3 49        		.byte	73
 5135 00c4 7F        		.byte	127
 5136 00c5 36        		.byte	54
 5137 00c6 00        		.byte	0
 5138 00c7 00        		.byte	0
 5139 00c8 06        		.byte	6
 5140 00c9 4F        		.byte	79
 5141 00ca 49        		.byte	73
 5142 00cb 69        		.byte	105
 5143 00cc 3F        		.byte	63
 5144 00cd 1E        		.byte	30
 5145 00ce 00        		.byte	0
 5146 00cf 00        		.byte	0
 5147 00d0 00        		.byte	0
 5148 00d1 00        		.byte	0
 5149 00d2 00        		.byte	0
 5150 00d3 66        		.byte	102
 5151 00d4 66        		.byte	102
 5152 00d5 00        		.byte	0
 5153 00d6 00        		.byte	0
 5154 00d7 00        		.byte	0
 5155 00d8 00        		.byte	0
 5156 00d9 00        		.byte	0
 5157 00da 80        		.byte	-128
 5158 00db E6        		.byte	-26
 5159 00dc 66        		.byte	102
 5160 00dd 00        		.byte	0
 5161 00de 00        		.byte	0
 5162 00df 00        		.byte	0
GAS LISTING C:\Users\Hexma\AppData\Local\Temp\cc7G6F1c.s 			page 115


 5163 00e0 08        		.byte	8
 5164 00e1 1C        		.byte	28
 5165 00e2 36        		.byte	54
 5166 00e3 63        		.byte	99
 5167 00e4 41        		.byte	65
 5168 00e5 00        		.byte	0
 5169 00e6 00        		.byte	0
 5170 00e7 00        		.byte	0
 5171 00e8 00        		.byte	0
 5172 00e9 14        		.byte	20
 5173 00ea 14        		.byte	20
 5174 00eb 14        		.byte	20
 5175 00ec 14        		.byte	20
 5176 00ed 14        		.byte	20
 5177 00ee 14        		.byte	20
 5178 00ef 00        		.byte	0
 5179 00f0 00        		.byte	0
 5180 00f1 41        		.byte	65
 5181 00f2 63        		.byte	99
 5182 00f3 36        		.byte	54
 5183 00f4 1C        		.byte	28
 5184 00f5 08        		.byte	8
 5185 00f6 00        		.byte	0
 5186 00f7 00        		.byte	0
 5187 00f8 00        		.byte	0
 5188 00f9 02        		.byte	2
 5189 00fa 03        		.byte	3
 5190 00fb 59        		.byte	89
 5191 00fc 5D        		.byte	93
 5192 00fd 07        		.byte	7
 5193 00fe 02        		.byte	2
 5194 00ff 00        		.byte	0
 5195 0100 3E        		.byte	62
 5196 0101 7F        		.byte	127
 5197 0102 41        		.byte	65
 5198 0103 5D        		.byte	93
 5199 0104 5D        		.byte	93
 5200 0105 5F        		.byte	95
 5201 0106 0E        		.byte	14
 5202 0107 00        		.byte	0
 5203 0108 7C        		.byte	124
 5204 0109 7E        		.byte	126
 5205 010a 13        		.byte	19
 5206 010b 13        		.byte	19
 5207 010c 7E        		.byte	126
 5208 010d 7C        		.byte	124
 5209 010e 00        		.byte	0
 5210 010f 00        		.byte	0
 5211 0110 41        		.byte	65
 5212 0111 7F        		.byte	127
 5213 0112 7F        		.byte	127
 5214 0113 49        		.byte	73
 5215 0114 49        		.byte	73
 5216 0115 7F        		.byte	127
 5217 0116 36        		.byte	54
 5218 0117 00        		.byte	0
 5219 0118 1C        		.byte	28
GAS LISTING C:\Users\Hexma\AppData\Local\Temp\cc7G6F1c.s 			page 116


 5220 0119 3E        		.byte	62
 5221 011a 63        		.byte	99
 5222 011b 41        		.byte	65
 5223 011c 41        		.byte	65
 5224 011d 63        		.byte	99
 5225 011e 22        		.byte	34
 5226 011f 00        		.byte	0
 5227 0120 41        		.byte	65
 5228 0121 7F        		.byte	127
 5229 0122 7F        		.byte	127
 5230 0123 41        		.byte	65
 5231 0124 63        		.byte	99
 5232 0125 3E        		.byte	62
 5233 0126 1C        		.byte	28
 5234 0127 00        		.byte	0
 5235 0128 41        		.byte	65
 5236 0129 7F        		.byte	127
 5237 012a 7F        		.byte	127
 5238 012b 49        		.byte	73
 5239 012c 5D        		.byte	93
 5240 012d 41        		.byte	65
 5241 012e 63        		.byte	99
 5242 012f 00        		.byte	0
 5243 0130 41        		.byte	65
 5244 0131 7F        		.byte	127
 5245 0132 7F        		.byte	127
 5246 0133 49        		.byte	73
 5247 0134 1D        		.byte	29
 5248 0135 01        		.byte	1
 5249 0136 03        		.byte	3
 5250 0137 00        		.byte	0
 5251 0138 1C        		.byte	28
 5252 0139 3E        		.byte	62
 5253 013a 63        		.byte	99
 5254 013b 41        		.byte	65
 5255 013c 51        		.byte	81
 5256 013d 33        		.byte	51
 5257 013e 72        		.byte	114
 5258 013f 00        		.byte	0
 5259 0140 7F        		.byte	127
 5260 0141 7F        		.byte	127
 5261 0142 08        		.byte	8
 5262 0143 08        		.byte	8
 5263 0144 7F        		.byte	127
 5264 0145 7F        		.byte	127
 5265 0146 00        		.byte	0
 5266 0147 00        		.byte	0
 5267 0148 00        		.byte	0
 5268 0149 41        		.byte	65
 5269 014a 7F        		.byte	127
 5270 014b 7F        		.byte	127
 5271 014c 41        		.byte	65
 5272 014d 00        		.byte	0
 5273 014e 00        		.byte	0
 5274 014f 00        		.byte	0
 5275 0150 30        		.byte	48
 5276 0151 70        		.byte	112
GAS LISTING C:\Users\Hexma\AppData\Local\Temp\cc7G6F1c.s 			page 117


 5277 0152 40        		.byte	64
 5278 0153 41        		.byte	65
 5279 0154 7F        		.byte	127
 5280 0155 3F        		.byte	63
 5281 0156 01        		.byte	1
 5282 0157 00        		.byte	0
 5283 0158 41        		.byte	65
 5284 0159 7F        		.byte	127
 5285 015a 7F        		.byte	127
 5286 015b 08        		.byte	8
 5287 015c 1C        		.byte	28
 5288 015d 77        		.byte	119
 5289 015e 63        		.byte	99
 5290 015f 00        		.byte	0
 5291 0160 41        		.byte	65
 5292 0161 7F        		.byte	127
 5293 0162 7F        		.byte	127
 5294 0163 41        		.byte	65
 5295 0164 40        		.byte	64
 5296 0165 60        		.byte	96
 5297 0166 70        		.byte	112
 5298 0167 00        		.byte	0
 5299 0168 7F        		.byte	127
 5300 0169 7F        		.byte	127
 5301 016a 0E        		.byte	14
 5302 016b 1C        		.byte	28
 5303 016c 0E        		.byte	14
 5304 016d 7F        		.byte	127
 5305 016e 7F        		.byte	127
 5306 016f 00        		.byte	0
 5307 0170 7F        		.byte	127
 5308 0171 7F        		.byte	127
 5309 0172 06        		.byte	6
 5310 0173 0C        		.byte	12
 5311 0174 18        		.byte	24
 5312 0175 7F        		.byte	127
 5313 0176 7F        		.byte	127
 5314 0177 00        		.byte	0
 5315 0178 1C        		.byte	28
 5316 0179 3E        		.byte	62
 5317 017a 63        		.byte	99
 5318 017b 41        		.byte	65
 5319 017c 63        		.byte	99
 5320 017d 3E        		.byte	62
 5321 017e 1C        		.byte	28
 5322 017f 00        		.byte	0
 5323 0180 41        		.byte	65
 5324 0181 7F        		.byte	127
 5325 0182 7F        		.byte	127
 5326 0183 49        		.byte	73
 5327 0184 09        		.byte	9
 5328 0185 0F        		.byte	15
 5329 0186 06        		.byte	6
 5330 0187 00        		.byte	0
 5331 0188 1E        		.byte	30
 5332 0189 3F        		.byte	63
 5333 018a 21        		.byte	33
GAS LISTING C:\Users\Hexma\AppData\Local\Temp\cc7G6F1c.s 			page 118


 5334 018b 31        		.byte	49
 5335 018c 61        		.byte	97
 5336 018d 7F        		.byte	127
 5337 018e 5E        		.byte	94
 5338 018f 00        		.byte	0
 5339 0190 41        		.byte	65
 5340 0191 7F        		.byte	127
 5341 0192 7F        		.byte	127
 5342 0193 09        		.byte	9
 5343 0194 19        		.byte	25
 5344 0195 7F        		.byte	127
 5345 0196 66        		.byte	102
 5346 0197 00        		.byte	0
 5347 0198 26        		.byte	38
 5348 0199 6F        		.byte	111
 5349 019a 4D        		.byte	77
 5350 019b 49        		.byte	73
 5351 019c 59        		.byte	89
 5352 019d 73        		.byte	115
 5353 019e 32        		.byte	50
 5354 019f 00        		.byte	0
 5355 01a0 03        		.byte	3
 5356 01a1 41        		.byte	65
 5357 01a2 7F        		.byte	127
 5358 01a3 7F        		.byte	127
 5359 01a4 41        		.byte	65
 5360 01a5 03        		.byte	3
 5361 01a6 00        		.byte	0
 5362 01a7 00        		.byte	0
 5363 01a8 7F        		.byte	127
 5364 01a9 7F        		.byte	127
 5365 01aa 40        		.byte	64
 5366 01ab 40        		.byte	64
 5367 01ac 7F        		.byte	127
 5368 01ad 7F        		.byte	127
 5369 01ae 00        		.byte	0
 5370 01af 00        		.byte	0
 5371 01b0 1F        		.byte	31
 5372 01b1 3F        		.byte	63
 5373 01b2 60        		.byte	96
 5374 01b3 60        		.byte	96
 5375 01b4 3F        		.byte	63
 5376 01b5 1F        		.byte	31
 5377 01b6 00        		.byte	0
 5378 01b7 00        		.byte	0
 5379 01b8 3F        		.byte	63
 5380 01b9 7F        		.byte	127
 5381 01ba 60        		.byte	96
 5382 01bb 30        		.byte	48
 5383 01bc 60        		.byte	96
 5384 01bd 7F        		.byte	127
 5385 01be 3F        		.byte	63
 5386 01bf 00        		.byte	0
 5387 01c0 63        		.byte	99
 5388 01c1 77        		.byte	119
 5389 01c2 1C        		.byte	28
 5390 01c3 08        		.byte	8
GAS LISTING C:\Users\Hexma\AppData\Local\Temp\cc7G6F1c.s 			page 119


 5391 01c4 1C        		.byte	28
 5392 01c5 77        		.byte	119
 5393 01c6 63        		.byte	99
 5394 01c7 00        		.byte	0
 5395 01c8 07        		.byte	7
 5396 01c9 4F        		.byte	79
 5397 01ca 78        		.byte	120
 5398 01cb 78        		.byte	120
 5399 01cc 4F        		.byte	79
 5400 01cd 07        		.byte	7
 5401 01ce 00        		.byte	0
 5402 01cf 00        		.byte	0
 5403 01d0 47        		.byte	71
 5404 01d1 63        		.byte	99
 5405 01d2 71        		.byte	113
 5406 01d3 59        		.byte	89
 5407 01d4 4D        		.byte	77
 5408 01d5 67        		.byte	103
 5409 01d6 73        		.byte	115
 5410 01d7 00        		.byte	0
 5411 01d8 00        		.byte	0
 5412 01d9 7F        		.byte	127
 5413 01da 7F        		.byte	127
 5414 01db 41        		.byte	65
 5415 01dc 41        		.byte	65
 5416 01dd 00        		.byte	0
 5417 01de 00        		.byte	0
 5418 01df 00        		.byte	0
 5419 01e0 01        		.byte	1
 5420 01e1 03        		.byte	3
 5421 01e2 06        		.byte	6
 5422 01e3 0C        		.byte	12
 5423 01e4 18        		.byte	24
 5424 01e5 30        		.byte	48
 5425 01e6 60        		.byte	96
 5426 01e7 00        		.byte	0
 5427 01e8 00        		.byte	0
 5428 01e9 41        		.byte	65
 5429 01ea 41        		.byte	65
 5430 01eb 7F        		.byte	127
 5431 01ec 7F        		.byte	127
 5432 01ed 00        		.byte	0
 5433 01ee 00        		.byte	0
 5434 01ef 00        		.byte	0
 5435 01f0 08        		.byte	8
 5436 01f1 0C        		.byte	12
 5437 01f2 06        		.byte	6
 5438 01f3 03        		.byte	3
 5439 01f4 06        		.byte	6
 5440 01f5 0C        		.byte	12
 5441 01f6 08        		.byte	8
 5442 01f7 00        		.byte	0
 5443 01f8 80        		.byte	-128
 5444 01f9 80        		.byte	-128
 5445 01fa 80        		.byte	-128
 5446 01fb 80        		.byte	-128
 5447 01fc 80        		.byte	-128
GAS LISTING C:\Users\Hexma\AppData\Local\Temp\cc7G6F1c.s 			page 120


 5448 01fd 80        		.byte	-128
 5449 01fe 80        		.byte	-128
 5450 01ff 80        		.byte	-128
 5451 0200 00        		.byte	0
 5452 0201 00        		.byte	0
 5453 0202 03        		.byte	3
 5454 0203 07        		.byte	7
 5455 0204 04        		.byte	4
 5456 0205 00        		.byte	0
 5457 0206 00        		.byte	0
 5458 0207 00        		.byte	0
 5459 0208 20        		.byte	32
 5460 0209 74        		.byte	116
 5461 020a 54        		.byte	84
 5462 020b 54        		.byte	84
 5463 020c 3C        		.byte	60
 5464 020d 78        		.byte	120
 5465 020e 40        		.byte	64
 5466 020f 00        		.byte	0
 5467 0210 41        		.byte	65
 5468 0211 7F        		.byte	127
 5469 0212 3F        		.byte	63
 5470 0213 48        		.byte	72
 5471 0214 48        		.byte	72
 5472 0215 78        		.byte	120
 5473 0216 30        		.byte	48
 5474 0217 00        		.byte	0
 5475 0218 38        		.byte	56
 5476 0219 7C        		.byte	124
 5477 021a 44        		.byte	68
 5478 021b 44        		.byte	68
 5479 021c 6C        		.byte	108
 5480 021d 28        		.byte	40
 5481 021e 00        		.byte	0
 5482 021f 00        		.byte	0
 5483 0220 30        		.byte	48
 5484 0221 78        		.byte	120
 5485 0222 48        		.byte	72
 5486 0223 49        		.byte	73
 5487 0224 3F        		.byte	63
 5488 0225 7F        		.byte	127
 5489 0226 40        		.byte	64
 5490 0227 00        		.byte	0
 5491 0228 38        		.byte	56
 5492 0229 7C        		.byte	124
 5493 022a 54        		.byte	84
 5494 022b 54        		.byte	84
 5495 022c 5C        		.byte	92
 5496 022d 18        		.byte	24
 5497 022e 00        		.byte	0
 5498 022f 00        		.byte	0
 5499 0230 48        		.byte	72
 5500 0231 7E        		.byte	126
 5501 0232 7F        		.byte	127
 5502 0233 49        		.byte	73
 5503 0234 03        		.byte	3
 5504 0235 06        		.byte	6
GAS LISTING C:\Users\Hexma\AppData\Local\Temp\cc7G6F1c.s 			page 121


 5505 0236 00        		.byte	0
 5506 0237 00        		.byte	0
 5507 0238 98        		.byte	-104
 5508 0239 BC        		.byte	-68
 5509 023a A4        		.byte	-92
 5510 023b A4        		.byte	-92
 5511 023c F8        		.byte	-8
 5512 023d 7C        		.byte	124
 5513 023e 04        		.byte	4
 5514 023f 00        		.byte	0
 5515 0240 41        		.byte	65
 5516 0241 7F        		.byte	127
 5517 0242 7F        		.byte	127
 5518 0243 08        		.byte	8
 5519 0244 04        		.byte	4
 5520 0245 7C        		.byte	124
 5521 0246 78        		.byte	120
 5522 0247 00        		.byte	0
 5523 0248 00        		.byte	0
 5524 0249 44        		.byte	68
 5525 024a 7D        		.byte	125
 5526 024b 7D        		.byte	125
 5527 024c 40        		.byte	64
 5528 024d 00        		.byte	0
 5529 024e 00        		.byte	0
 5530 024f 00        		.byte	0
 5531 0250 60        		.byte	96
 5532 0251 E0        		.byte	-32
 5533 0252 80        		.byte	-128
 5534 0253 84        		.byte	-124
 5535 0254 FD        		.byte	-3
 5536 0255 7D        		.byte	125
 5537 0256 00        		.byte	0
 5538 0257 00        		.byte	0
 5539 0258 41        		.byte	65
 5540 0259 7F        		.byte	127
 5541 025a 7F        		.byte	127
 5542 025b 10        		.byte	16
 5543 025c 38        		.byte	56
 5544 025d 6C        		.byte	108
 5545 025e 44        		.byte	68
 5546 025f 00        		.byte	0
 5547 0260 00        		.byte	0
 5548 0261 41        		.byte	65
 5549 0262 7F        		.byte	127
 5550 0263 7F        		.byte	127
 5551 0264 40        		.byte	64
 5552 0265 00        		.byte	0
 5553 0266 00        		.byte	0
 5554 0267 00        		.byte	0
 5555 0268 7C        		.byte	124
 5556 0269 7C        		.byte	124
 5557 026a 18        		.byte	24
 5558 026b 78        		.byte	120
 5559 026c 1C        		.byte	28
 5560 026d 7C        		.byte	124
 5561 026e 78        		.byte	120
GAS LISTING C:\Users\Hexma\AppData\Local\Temp\cc7G6F1c.s 			page 122


 5562 026f 00        		.byte	0
 5563 0270 7C        		.byte	124
 5564 0271 78        		.byte	120
 5565 0272 04        		.byte	4
 5566 0273 04        		.byte	4
 5567 0274 7C        		.byte	124
 5568 0275 78        		.byte	120
 5569 0276 00        		.byte	0
 5570 0277 00        		.byte	0
 5571 0278 38        		.byte	56
 5572 0279 7C        		.byte	124
 5573 027a 44        		.byte	68
 5574 027b 44        		.byte	68
 5575 027c 7C        		.byte	124
 5576 027d 38        		.byte	56
 5577 027e 00        		.byte	0
 5578 027f 00        		.byte	0
 5579 0280 84        		.byte	-124
 5580 0281 FC        		.byte	-4
 5581 0282 F8        		.byte	-8
 5582 0283 A4        		.byte	-92
 5583 0284 24        		.byte	36
 5584 0285 3C        		.byte	60
 5585 0286 18        		.byte	24
 5586 0287 00        		.byte	0
 5587 0288 18        		.byte	24
 5588 0289 3C        		.byte	60
 5589 028a 24        		.byte	36
 5590 028b A4        		.byte	-92
 5591 028c F8        		.byte	-8
 5592 028d FC        		.byte	-4
 5593 028e 84        		.byte	-124
 5594 028f 00        		.byte	0
 5595 0290 44        		.byte	68
 5596 0291 7C        		.byte	124
 5597 0292 78        		.byte	120
 5598 0293 4C        		.byte	76
 5599 0294 04        		.byte	4
 5600 0295 0C        		.byte	12
 5601 0296 18        		.byte	24
 5602 0297 00        		.byte	0
 5603 0298 48        		.byte	72
 5604 0299 5C        		.byte	92
 5605 029a 54        		.byte	84
 5606 029b 74        		.byte	116
 5607 029c 64        		.byte	100
 5608 029d 24        		.byte	36
 5609 029e 00        		.byte	0
 5610 029f 00        		.byte	0
 5611 02a0 04        		.byte	4
 5612 02a1 04        		.byte	4
 5613 02a2 3E        		.byte	62
 5614 02a3 7F        		.byte	127
 5615 02a4 44        		.byte	68
 5616 02a5 24        		.byte	36
 5617 02a6 00        		.byte	0
 5618 02a7 00        		.byte	0
GAS LISTING C:\Users\Hexma\AppData\Local\Temp\cc7G6F1c.s 			page 123


 5619 02a8 3C        		.byte	60
 5620 02a9 7C        		.byte	124
 5621 02aa 40        		.byte	64
 5622 02ab 40        		.byte	64
 5623 02ac 3C        		.byte	60
 5624 02ad 7C        		.byte	124
 5625 02ae 40        		.byte	64
 5626 02af 00        		.byte	0
 5627 02b0 1C        		.byte	28
 5628 02b1 3C        		.byte	60
 5629 02b2 60        		.byte	96
 5630 02b3 60        		.byte	96
 5631 02b4 3C        		.byte	60
 5632 02b5 1C        		.byte	28
 5633 02b6 00        		.byte	0
 5634 02b7 00        		.byte	0
 5635 02b8 3C        		.byte	60
 5636 02b9 7C        		.byte	124
 5637 02ba 60        		.byte	96
 5638 02bb 30        		.byte	48
 5639 02bc 60        		.byte	96
 5640 02bd 7C        		.byte	124
 5641 02be 3C        		.byte	60
 5642 02bf 00        		.byte	0
 5643 02c0 44        		.byte	68
 5644 02c1 6C        		.byte	108
 5645 02c2 38        		.byte	56
 5646 02c3 10        		.byte	16
 5647 02c4 38        		.byte	56
 5648 02c5 6C        		.byte	108
 5649 02c6 44        		.byte	68
 5650 02c7 00        		.byte	0
 5651 02c8 9C        		.byte	-100
 5652 02c9 BC        		.byte	-68
 5653 02ca A0        		.byte	-96
 5654 02cb A0        		.byte	-96
 5655 02cc FC        		.byte	-4
 5656 02cd 7C        		.byte	124
 5657 02ce 00        		.byte	0
 5658 02cf 00        		.byte	0
 5659 02d0 4C        		.byte	76
 5660 02d1 64        		.byte	100
 5661 02d2 74        		.byte	116
 5662 02d3 5C        		.byte	92
 5663 02d4 4C        		.byte	76
 5664 02d5 64        		.byte	100
 5665 02d6 00        		.byte	0
 5666 02d7 00        		.byte	0
 5667 02d8 08        		.byte	8
 5668 02d9 08        		.byte	8
 5669 02da 3E        		.byte	62
 5670 02db 77        		.byte	119
 5671 02dc 41        		.byte	65
 5672 02dd 41        		.byte	65
 5673 02de 00        		.byte	0
 5674 02df 00        		.byte	0
 5675 02e0 00        		.byte	0
GAS LISTING C:\Users\Hexma\AppData\Local\Temp\cc7G6F1c.s 			page 124


 5676 02e1 00        		.byte	0
 5677 02e2 00        		.byte	0
 5678 02e3 77        		.byte	119
 5679 02e4 77        		.byte	119
 5680 02e5 00        		.byte	0
 5681 02e6 00        		.byte	0
 5682 02e7 00        		.byte	0
 5683 02e8 41        		.byte	65
 5684 02e9 41        		.byte	65
 5685 02ea 77        		.byte	119
 5686 02eb 3E        		.byte	62
 5687 02ec 08        		.byte	8
 5688 02ed 08        		.byte	8
 5689 02ee 00        		.byte	0
 5690 02ef 00        		.byte	0
 5691 02f0 02        		.byte	2
 5692 02f1 03        		.byte	3
 5693 02f2 01        		.byte	1
 5694 02f3 03        		.byte	3
 5695 02f4 02        		.byte	2
 5696 02f5 03        		.byte	3
 5697 02f6 01        		.byte	1
 5698 02f7 00        		.byte	0
 5699 02f8 70        		.byte	112
 5700 02f9 78        		.byte	120
 5701 02fa 4C        		.byte	76
 5702 02fb 46        		.byte	70
 5703 02fc 4C        		.byte	76
 5704 02fd 78        		.byte	120
 5705 02fe 70        		.byte	112
 5706 02ff 00        		.byte	0
 5707               		.section	.progmem.data._ZL7powerup,"a",@progbits
 5710               	_ZL7powerup:
 5711 0000 01        		.byte	1
 5712 0001 01        		.byte	1
 5713 0002 63        		.byte	99
 5714 0003 78        		.byte	120
 5715 0004 01        		.byte	1
 5716 0005 11        		.byte	17
 5717 0006 01        		.byte	1
 5718 0007 28        		.byte	40
 5719 0008 63        		.byte	99
 5720 0009 32        		.byte	50
 5721 000a 03        		.byte	3
 5722 000b C0        		.byte	-64
 5723 000c F8        		.byte	-8
 5724 000d 00        		.byte	0
 5725 000e 02        		.byte	2
 5726 000f C3        		.byte	-61
 5727 0010 04        		.byte	4
 5728 0011 02        		.byte	2
 5729 0012 C4        		.byte	-60
 5730 0013 05        		.byte	5
 5731 0014 02        		.byte	2
 5732 0015 D0        		.byte	-48
 5733 0016 1D        		.byte	29
 5734 0017 02        		.byte	2
GAS LISTING C:\Users\Hexma\AppData\Local\Temp\cc7G6F1c.s 			page 125


 5735 0018 B3        		.byte	-77
 5736 0019 00        		.byte	0
 5737 001a 02        		.byte	2
 5738 001b B5        		.byte	-75
 5739 001c 8B        		.byte	-117
 5740 001d 01        		.byte	1
 5741 001e 38        		.byte	56
 5742 001f 02        		.byte	2
 5743 0020 3A        		.byte	58
 5744 0021 02        		.byte	2
 5745 0022 02        		.byte	2
 5746 0023 36        		.byte	54
 5747 0024 00        		.byte	0
 5748 0025 02        		.byte	2
 5749 0026 B0        		.byte	-80
 5750 0027 9F        		.byte	-97
 5751 0028 05        		.byte	5
 5752 0029 F0        		.byte	-16
 5753 002a 12        		.byte	18
 5754 002b 12        		.byte	18
 5755 002c 12        		.byte	18
 5756 002d 12        		.byte	18
 5757 002e 01        		.byte	1
 5758 002f 20        		.byte	32
 5759 0030 01        		.byte	1
 5760 0031 29        		.byte	41
 5761 0032 00        		.byte	0
 5762               	.global	SymKeys
 5763               		.section	.data.SymKeys,"aw",@progbits
 5766               	SymKeys:
 5767 0000 21        		.byte	33
 5768 0001 32        		.byte	50
 5769 0002 33        		.byte	51
 5770 0003 24        		.byte	36
 5771 0004 25        		.byte	37
 5772 0005 36        		.byte	54
 5773 0006 27        		.byte	39
 5774 0007 22        		.byte	34
 5775 0008 28        		.byte	40
 5776 0009 29        		.byte	41
 5777 000a 71        		.byte	113
 5778 000b 77        		.byte	119
 5779 000c 65        		.byte	101
 5780 000d 72        		.byte	114
 5781 000e 74        		.byte	116
 5782 000f 79        		.byte	121
 5783 0010 75        		.byte	117
 5784 0011 3B        		.byte	59
 5785 0012 5B        		.byte	91
 5786 0013 5D        		.byte	93
 5787 0014 3D        		.byte	61
 5788 0015 2B        		.byte	43
 5789 0016 2D        		.byte	45
 5790 0017 66        		.byte	102
 5791 0018 67        		.byte	103
 5792 0019 68        		.byte	104
 5793 001a 6A        		.byte	106
GAS LISTING C:\Users\Hexma\AppData\Local\Temp\cc7G6F1c.s 			page 126


 5794 001b 3A        		.byte	58
 5795 001c 3F        		.byte	63
 5796 001d 08        		.byte	8
 5797 001e 00        		.byte	0
 5798 001f 2A        		.byte	42
 5799 0020 2F        		.byte	47
 5800 0021 63        		.byte	99
 5801 0022 76        		.byte	118
 5802 0023 62        		.byte	98
 5803 0024 6E        		.byte	110
 5804 0025 05        		.byte	5
 5805 0026 00        		.byte	0
 5806 0027 04        		.byte	4
 5807 0028 00        		.byte	0
 5808 0029 0D        		.byte	13
 5809 002a 00        		.byte	0
 5810 002b 00        		.byte	0
 5811 002c 01        		.byte	1
 5812 002d 3C        		.byte	60
 5813 002e 3E        		.byte	62
 5814 002f 6D        		.byte	109
 5815 0030 02        		.byte	2
 5816 0031 03        		.byte	3
 5817 0032 F0        		.byte	-16
 5818 0033 F1        		.byte	-15
 5819 0034 F2        		.byte	-14
 5820 0035 F3        		.byte	-13
 5821 0036 F4        		.byte	-12
 5822 0037 F5        		.byte	-11
 5823 0038 F6        		.byte	-10
 5824 0039 F7        		.byte	-9
 5825 003a F8        		.byte	-8
 5826 003b F9        		.byte	-7
 5827               	.global	ShiftedKeys
 5828               		.section	.data.ShiftedKeys,"aw",@progbits
 5831               	ShiftedKeys:
 5832 0000 31        		.byte	49
 5833 0001 32        		.byte	50
 5834 0002 33        		.byte	51
 5835 0003 34        		.byte	52
 5836 0004 35        		.byte	53
 5837 0005 36        		.byte	54
 5838 0006 37        		.byte	55
 5839 0007 38        		.byte	56
 5840 0008 39        		.byte	57
 5841 0009 30        		.byte	48
 5842 000a 51        		.byte	81
 5843 000b 57        		.byte	87
 5844 000c 45        		.byte	69
 5845 000d 52        		.byte	82
 5846 000e 54        		.byte	84
 5847 000f 59        		.byte	89
 5848 0010 55        		.byte	85
 5849 0011 49        		.byte	73
 5850 0012 4F        		.byte	79
 5851 0013 50        		.byte	80
 5852 0014 41        		.byte	65
GAS LISTING C:\Users\Hexma\AppData\Local\Temp\cc7G6F1c.s 			page 127


 5853 0015 53        		.byte	83
 5854 0016 44        		.byte	68
 5855 0017 46        		.byte	70
 5856 0018 47        		.byte	71
 5857 0019 48        		.byte	72
 5858 001a 4A        		.byte	74
 5859 001b 4B        		.byte	75
 5860 001c 4C        		.byte	76
 5861 001d 08        		.byte	8
 5862 001e 00        		.byte	0
 5863 001f 5A        		.byte	90
 5864 0020 58        		.byte	88
 5865 0021 43        		.byte	67
 5866 0022 56        		.byte	86
 5867 0023 42        		.byte	66
 5868 0024 4E        		.byte	78
 5869 0025 05        		.byte	5
 5870 0026 00        		.byte	0
 5871 0027 04        		.byte	4
 5872 0028 00        		.byte	0
 5873 0029 0D        		.byte	13
 5874 002a 00        		.byte	0
 5875 002b 00        		.byte	0
 5876 002c 5F        		.byte	95
 5877 002d 2C        		.byte	44
 5878 002e 2E        		.byte	46
 5879 002f 4D        		.byte	77
 5880 0030 02        		.byte	2
 5881 0031 03        		.byte	3
 5882 0032 F0        		.byte	-16
 5883 0033 F1        		.byte	-15
 5884 0034 F2        		.byte	-14
 5885 0035 F3        		.byte	-13
 5886 0036 F4        		.byte	-12
 5887 0037 F5        		.byte	-11
 5888 0038 F6        		.byte	-10
 5889 0039 F7        		.byte	-9
 5890 003a F8        		.byte	-8
 5891 003b F9        		.byte	-7
 5892               	.global	OriginalKeys
 5893               		.section	.data.OriginalKeys,"aw",@progbits
 5896               	OriginalKeys:
 5897 0000 31        		.byte	49
 5898 0001 32        		.byte	50
 5899 0002 33        		.byte	51
 5900 0003 34        		.byte	52
 5901 0004 35        		.byte	53
 5902 0005 36        		.byte	54
 5903 0006 37        		.byte	55
 5904 0007 38        		.byte	56
 5905 0008 39        		.byte	57
 5906 0009 30        		.byte	48
 5907 000a 71        		.byte	113
 5908 000b 77        		.byte	119
 5909 000c 65        		.byte	101
 5910 000d 72        		.byte	114
 5911 000e 74        		.byte	116
GAS LISTING C:\Users\Hexma\AppData\Local\Temp\cc7G6F1c.s 			page 128


 5912 000f 79        		.byte	121
 5913 0010 75        		.byte	117
 5914 0011 69        		.byte	105
 5915 0012 6F        		.byte	111
 5916 0013 70        		.byte	112
 5917 0014 61        		.byte	97
 5918 0015 73        		.byte	115
 5919 0016 64        		.byte	100
 5920 0017 66        		.byte	102
 5921 0018 67        		.byte	103
 5922 0019 68        		.byte	104
 5923 001a 6A        		.byte	106
 5924 001b 6B        		.byte	107
 5925 001c 6C        		.byte	108
 5926 001d 0D        		.byte	13
 5927 001e 00        		.byte	0
 5928 001f 7A        		.byte	122
 5929 0020 78        		.byte	120
 5930 0021 63        		.byte	99
 5931 0022 76        		.byte	118
 5932 0023 62        		.byte	98
 5933 0024 6E        		.byte	110
 5934 0025 05        		.byte	5
 5935 0026 00        		.byte	0
 5936 0027 04        		.byte	4
 5937 0028 00        		.byte	0
 5938 0029 0D        		.byte	13
 5939 002a 1B        		.byte	27
 5940 002b 00        		.byte	0
 5941 002c 20        		.byte	32
 5942 002d 2C        		.byte	44
 5943 002e 2E        		.byte	46
 5944 002f 6D        		.byte	109
 5945 0030 02        		.byte	2
 5946 0031 03        		.byte	3
 5947 0032 F0        		.byte	-16
 5948 0033 F1        		.byte	-15
 5949 0034 F2        		.byte	-14
 5950 0035 F3        		.byte	-13
 5951 0036 F4        		.byte	-12
 5952 0037 F5        		.byte	-11
 5953 0038 F6        		.byte	-10
 5954 0039 F7        		.byte	-9
 5955 003a F8        		.byte	-8
 5956 003b F9        		.byte	-7
 5957               		.section	.data._ZL10scrollArea,"aw",@progbits
 5960               	_ZL10scrollArea:
 5961 0000 8800      		.word	136
 5962               		.section	.bss._ZL13iScrollOffset,"aw",@nobits
 5965               	_ZL13iScrollOffset:
 5966 0000 0000      		.zero	2
 5967               		.section	.bss._ZL9iResetPin,"aw",@nobits
 5970               	_ZL9iResetPin:
 5971 0000 00        		.zero	1
 5972               		.section	.bss._ZL6iDCPin,"aw",@nobits
 5975               	_ZL6iDCPin:
 5976 0000 00        		.zero	1
GAS LISTING C:\Users\Hexma\AppData\Local\Temp\cc7G6F1c.s 			page 129


 5977               		.section	.bss._ZL6iCSPin,"aw",@nobits
 5980               	_ZL6iCSPin:
 5981 0000 00        		.zero	1
 5982               		.section	.rodata._ZL12bColorToByte,"a",@progbits
 5985               	_ZL12bColorToByte:
 5986 0000 00        		.byte	0
 5987 0001 49        		.byte	73
 5988 0002 92        		.byte	-110
 5989 0003 FF        		.byte	-1
 5990               		.section	.bss._ZL10bOldKeyMap,"aw",@nobits
 5993               	_ZL10bOldKeyMap:
 5994 0000 0000 0000 		.zero	10
 5994      0000 0000 
 5994      0000 
 5995               		.section	.bss._ZL7bKeyMap,"aw",@nobits
 5998               	_ZL7bKeyMap:
 5999 0000 0000 0000 		.zero	10
 5999      0000 0000 
 5999      0000 
 6000               		.section	.rodata._ZL7colPins,"a",@progbits
 6003               	_ZL7colPins:
 6004 0000 E4        		.byte	-28
 6005 0001 F1        		.byte	-15
 6006 0002 F3        		.byte	-13
 6007 0003 E2        		.byte	-30
 6008 0004 E1        		.byte	-31
 6009 0005 D7        		.byte	-41
 6010 0006 A0        		.byte	-96
 6011 0007 A5        		.byte	-91
 6012 0008 D5        		.byte	-43
 6013 0009 D4        		.byte	-44
 6014               		.section	.rodata._ZL7rowPins,"a",@progbits
 6017               	_ZL7rowPins:
 6018 0000 E6        		.byte	-26
 6019 0001 B7        		.byte	-73
 6020 0002 B6        		.byte	-74
 6021 0003 B5        		.byte	-75
 6022 0004 B4        		.byte	-76
 6023 0005 E0        		.byte	-32
 6024               		.text
 6025               	.Letext0:
 6026               		.file 2 "c:\\users\\hexma\\appdata\\local\\arduino15\\packages\\arduino\\tools\\avr-gcc\\7.3.0-atm
 6027               		.file 3 "c:\\users\\hexma\\appdata\\local\\arduino15\\packages\\arduino\\tools\\avr-gcc\\7.3.0-atm
 6028               		.file 4 "c:\\users\\hexma\\appdata\\local\\arduino15\\packages\\arduino\\tools\\avr-gcc\\7.3.0-atm
 6029               		.file 5 "C:\\Users\\Hexma\\AppData\\Local\\Arduino15\\packages\\arduino\\hardware\\avr\\1.8.6\\cor
 6030               		.file 6 "c:\\users\\hexma\\appdata\\local\\arduino15\\packages\\arduino\\tools\\avr-gcc\\7.3.0-atm
 6031               		.file 7 "C:\\Users\\Hexma\\AppData\\Local\\Arduino15\\packages\\arduino\\hardware\\avr\\1.8.6\\cor
 6032               		.file 8 "C:\\Users\\Hexma\\Documents\\Arduino\\hardware\\SMART-Response-XE-Low_level-master\\avr\\
 6033               		.file 9 "c:\\users\\hexma\\appdata\\local\\arduino15\\packages\\arduino\\tools\\avr-gcc\\7.3.0-atm
 6034               		.file 10 "c:\\users\\hexma\\appdata\\local\\arduino15\\packages\\arduino\\tools\\avr-gcc\\7.3.0-at
 6035               		.file 11 "C:\\Users\\Hexma\\AppData\\Local\\Arduino15\\packages\\arduino\\hardware\\avr\\1.8.6\\co
 6036               		.file 12 "C:\\Users\\Hexma\\AppData\\Local\\Arduino15\\packages\\arduino\\hardware\\avr\\1.8.6\\co
