GAS LISTING C:\Users\Hexma\AppData\Local\Temp\cc7G6F1c.s 			page 1


   1               		.file	"SmartResponseXE.cpp"
   2               	__SP_H__ = 0x3e
   3               	__SP_L__ = 0x3d
   4               	__SREG__ = 0x3f
   5               	__RAMPZ__ = 0x3b
   6               	__tmp_reg__ = 0
   7               	__zero_reg__ = 1
   8               		.text
   9               	.Ltext0:
  10               		.cfi_sections	.debug_frame
  11               		.section	.text._Z10getPinInfohPPVhS1_i,"ax",@progbits
  12               	.global	_Z10getPinInfohPPVhS1_i
  14               	_Z10getPinInfohPPVhS1_i:
  15               	.LFB112:
  16               		.file 1 "C:\\Users\\Hexma\\Documents\\Arduino\\hardware\\SMART-Response-XE-Low_level-master\\avr\\
   1:C:\Users\Hexma\Documents\Arduino\hardware\SMART-Response-XE-Low_level-master\avr\libraries\SmartResponseXE\SmartResponseXE.cpp **** //
   2:C:\Users\Hexma\Documents\Arduino\hardware\SMART-Response-XE-Low_level-master\avr\libraries\SmartResponseXE\SmartResponseXE.cpp **** // SMART Response XE library
   3:C:\Users\Hexma\Documents\Arduino\hardware\SMART-Response-XE-Low_level-master\avr\libraries\SmartResponseXE\SmartResponseXE.cpp **** //
   4:C:\Users\Hexma\Documents\Arduino\hardware\SMART-Response-XE-Low_level-master\avr\libraries\SmartResponseXE\SmartResponseXE.cpp **** // LCD and keyboard routines for the SRXE handheld classroom communicator
   5:C:\Users\Hexma\Documents\Arduino\hardware\SMART-Response-XE-Low_level-master\avr\libraries\SmartResponseXE\SmartResponseXE.cpp **** //
   6:C:\Users\Hexma\Documents\Arduino\hardware\SMART-Response-XE-Low_level-master\avr\libraries\SmartResponseXE\SmartResponseXE.cpp **** // Copyright (c) 2018 BitBank Software, Inc.
   7:C:\Users\Hexma\Documents\Arduino\hardware\SMART-Response-XE-Low_level-master\avr\libraries\SmartResponseXE\SmartResponseXE.cpp **** // written by Larry Bank
   8:C:\Users\Hexma\Documents\Arduino\hardware\SMART-Response-XE-Low_level-master\avr\libraries\SmartResponseXE\SmartResponseXE.cpp **** // email: bitbank@pobox.com
   9:C:\Users\Hexma\Documents\Arduino\hardware\SMART-Response-XE-Low_level-master\avr\libraries\SmartResponseXE\SmartResponseXE.cpp **** // Project started 8/4/2018
  10:C:\Users\Hexma\Documents\Arduino\hardware\SMART-Response-XE-Low_level-master\avr\libraries\SmartResponseXE\SmartResponseXE.cpp **** //
  11:C:\Users\Hexma\Documents\Arduino\hardware\SMART-Response-XE-Low_level-master\avr\libraries\SmartResponseXE\SmartResponseXE.cpp **** // This program is free software: you can redistribute it and/or modify
  12:C:\Users\Hexma\Documents\Arduino\hardware\SMART-Response-XE-Low_level-master\avr\libraries\SmartResponseXE\SmartResponseXE.cpp **** // it under the terms of the GNU General Public License as published by
  13:C:\Users\Hexma\Documents\Arduino\hardware\SMART-Response-XE-Low_level-master\avr\libraries\SmartResponseXE\SmartResponseXE.cpp **** // the Free Software Foundation, either version 3 of the License, or
  14:C:\Users\Hexma\Documents\Arduino\hardware\SMART-Response-XE-Low_level-master\avr\libraries\SmartResponseXE\SmartResponseXE.cpp **** // (at your option) any later version.
  15:C:\Users\Hexma\Documents\Arduino\hardware\SMART-Response-XE-Low_level-master\avr\libraries\SmartResponseXE\SmartResponseXE.cpp **** //
  16:C:\Users\Hexma\Documents\Arduino\hardware\SMART-Response-XE-Low_level-master\avr\libraries\SmartResponseXE\SmartResponseXE.cpp **** // This program is distributed in the hope that it will be useful,
  17:C:\Users\Hexma\Documents\Arduino\hardware\SMART-Response-XE-Low_level-master\avr\libraries\SmartResponseXE\SmartResponseXE.cpp **** // but WITHOUT ANY WARRANTY; without even the implied warranty of
  18:C:\Users\Hexma\Documents\Arduino\hardware\SMART-Response-XE-Low_level-master\avr\libraries\SmartResponseXE\SmartResponseXE.cpp **** // MERCHANTABILITY or FITNESS FOR A PARTICULAR PURPOSE.  See the
  19:C:\Users\Hexma\Documents\Arduino\hardware\SMART-Response-XE-Low_level-master\avr\libraries\SmartResponseXE\SmartResponseXE.cpp **** // GNU General Public License for more details.
  20:C:\Users\Hexma\Documents\Arduino\hardware\SMART-Response-XE-Low_level-master\avr\libraries\SmartResponseXE\SmartResponseXE.cpp **** //
  21:C:\Users\Hexma\Documents\Arduino\hardware\SMART-Response-XE-Low_level-master\avr\libraries\SmartResponseXE\SmartResponseXE.cpp **** // You should have received a copy of the GNU General Public License
  22:C:\Users\Hexma\Documents\Arduino\hardware\SMART-Response-XE-Low_level-master\avr\libraries\SmartResponseXE\SmartResponseXE.cpp **** // along with this program.  If not, see <http://www.gnu.org/licenses/>.
  23:C:\Users\Hexma\Documents\Arduino\hardware\SMART-Response-XE-Low_level-master\avr\libraries\SmartResponseXE\SmartResponseXE.cpp **** //
  24:C:\Users\Hexma\Documents\Arduino\hardware\SMART-Response-XE-Low_level-master\avr\libraries\SmartResponseXE\SmartResponseXE.cpp **** 
  25:C:\Users\Hexma\Documents\Arduino\hardware\SMART-Response-XE-Low_level-master\avr\libraries\SmartResponseXE\SmartResponseXE.cpp **** // 18/11/2019 fdufnews keyboard map modification
  26:C:\Users\Hexma\Documents\Arduino\hardware\SMART-Response-XE-Low_level-master\avr\libraries\SmartResponseXE\SmartResponseXE.cpp **** // DEL          --> enter (0x0D) (more intuitive position)
  27:C:\Users\Hexma\Documents\Arduino\hardware\SMART-Response-XE-Low_level-master\avr\libraries\SmartResponseXE\SmartResponseXE.cpp **** // shift + DEL  --> backspace (0x08) 
  28:C:\Users\Hexma\Documents\Arduino\hardware\SMART-Response-XE-Low_level-master\avr\libraries\SmartResponseXE\SmartResponseXE.cpp **** // SYM + I      --> ;
  29:C:\Users\Hexma\Documents\Arduino\hardware\SMART-Response-XE-Low_level-master\avr\libraries\SmartResponseXE\SmartResponseXE.cpp **** // SYM + Z      --> *
  30:C:\Users\Hexma\Documents\Arduino\hardware\SMART-Response-XE-Low_level-master\avr\libraries\SmartResponseXE\SmartResponseXE.cpp **** // SYM + X      --> /
  31:C:\Users\Hexma\Documents\Arduino\hardware\SMART-Response-XE-Low_level-master\avr\libraries\SmartResponseXE\SmartResponseXE.cpp **** // square root  --> ESC
  32:C:\Users\Hexma\Documents\Arduino\hardware\SMART-Response-XE-Low_level-master\avr\libraries\SmartResponseXE\SmartResponseXE.cpp **** // 8/12/2019 fdufnews added function to define scroll area
  33:C:\Users\Hexma\Documents\Arduino\hardware\SMART-Response-XE-Low_level-master\avr\libraries\SmartResponseXE\SmartResponseXE.cpp **** //
  34:C:\Users\Hexma\Documents\Arduino\hardware\SMART-Response-XE-Low_level-master\avr\libraries\SmartResponseXE\SmartResponseXE.cpp **** #include <Arduino.h>
  35:C:\Users\Hexma\Documents\Arduino\hardware\SMART-Response-XE-Low_level-master\avr\libraries\SmartResponseXE\SmartResponseXE.cpp **** #include <avr/pgmspace.h>
  36:C:\Users\Hexma\Documents\Arduino\hardware\SMART-Response-XE-Low_level-master\avr\libraries\SmartResponseXE\SmartResponseXE.cpp **** #include <avr/sleep.h>
  37:C:\Users\Hexma\Documents\Arduino\hardware\SMART-Response-XE-Low_level-master\avr\libraries\SmartResponseXE\SmartResponseXE.cpp **** #include "SmartResponseXE.h"
  38:C:\Users\Hexma\Documents\Arduino\hardware\SMART-Response-XE-Low_level-master\avr\libraries\SmartResponseXE\SmartResponseXE.cpp **** //#include <SPI.h>
  39:C:\Users\Hexma\Documents\Arduino\hardware\SMART-Response-XE-Low_level-master\avr\libraries\SmartResponseXE\SmartResponseXE.cpp **** 
  40:C:\Users\Hexma\Documents\Arduino\hardware\SMART-Response-XE-Low_level-master\avr\libraries\SmartResponseXE\SmartResponseXE.cpp **** // Mapping of keyboard to GPIO pins
  41:C:\Users\Hexma\Documents\Arduino\hardware\SMART-Response-XE-Low_level-master\avr\libraries\SmartResponseXE\SmartResponseXE.cpp **** //static byte rowPins[ROWS] = {6,35,34,8,9,0};
  42:C:\Users\Hexma\Documents\Arduino\hardware\SMART-Response-XE-Low_level-master\avr\libraries\SmartResponseXE\SmartResponseXE.cpp **** //static byte colPins[COLS] = {4,A1,A3,2,1,25,16,19,23,22};
GAS LISTING C:\Users\Hexma\AppData\Local\Temp\cc7G6F1c.s 			page 2


  43:C:\Users\Hexma\Documents\Arduino\hardware\SMART-Response-XE-Low_level-master\avr\libraries\SmartResponseXE\SmartResponseXE.cpp **** const uint8_t rowPins[ROWS] = {0xe6, 0xb7, 0xb6, 0xb5, 0xb4, 0xe0};
  44:C:\Users\Hexma\Documents\Arduino\hardware\SMART-Response-XE-Low_level-master\avr\libraries\SmartResponseXE\SmartResponseXE.cpp **** const uint8_t colPins[COLS] = {0xe4, 0xf1, 0xf3, 0xe2, 0xe1, 0xd7, 0xa0, 0xa5, 0xd5, 0xd4};
  45:C:\Users\Hexma\Documents\Arduino\hardware\SMART-Response-XE-Low_level-master\avr\libraries\SmartResponseXE\SmartResponseXE.cpp **** static byte bKeyMap[COLS]; // bits indicating pressed keys
  46:C:\Users\Hexma\Documents\Arduino\hardware\SMART-Response-XE-Low_level-master\avr\libraries\SmartResponseXE\SmartResponseXE.cpp **** static byte bOldKeyMap[COLS]; // previous map to look for pressed/released keys
  47:C:\Users\Hexma\Documents\Arduino\hardware\SMART-Response-XE-Low_level-master\avr\libraries\SmartResponseXE\SmartResponseXE.cpp **** static byte bColorToByte[4] = {0, 0x49, 0x92, 0xff};
  48:C:\Users\Hexma\Documents\Arduino\hardware\SMART-Response-XE-Low_level-master\avr\libraries\SmartResponseXE\SmartResponseXE.cpp **** static byte iCSPin, iDCPin, iResetPin;
  49:C:\Users\Hexma\Documents\Arduino\hardware\SMART-Response-XE-Low_level-master\avr\libraries\SmartResponseXE\SmartResponseXE.cpp **** 
  50:C:\Users\Hexma\Documents\Arduino\hardware\SMART-Response-XE-Low_level-master\avr\libraries\SmartResponseXE\SmartResponseXE.cpp **** static int iScrollOffset;
  51:C:\Users\Hexma\Documents\Arduino\hardware\SMART-Response-XE-Low_level-master\avr\libraries\SmartResponseXE\SmartResponseXE.cpp **** static int scrollArea=LCD_HEIGHT;
  52:C:\Users\Hexma\Documents\Arduino\hardware\SMART-Response-XE-Low_level-master\avr\libraries\SmartResponseXE\SmartResponseXE.cpp **** void SRXEFill(byte ucData);
  53:C:\Users\Hexma\Documents\Arduino\hardware\SMART-Response-XE-Low_level-master\avr\libraries\SmartResponseXE\SmartResponseXE.cpp **** static void SRXEWriteCommand(unsigned char c);
  54:C:\Users\Hexma\Documents\Arduino\hardware\SMART-Response-XE-Low_level-master\avr\libraries\SmartResponseXE\SmartResponseXE.cpp **** 
  55:C:\Users\Hexma\Documents\Arduino\hardware\SMART-Response-XE-Low_level-master\avr\libraries\SmartResponseXE\SmartResponseXE.cpp **** typedef enum
  56:C:\Users\Hexma\Documents\Arduino\hardware\SMART-Response-XE-Low_level-master\avr\libraries\SmartResponseXE\SmartResponseXE.cpp **** {
  57:C:\Users\Hexma\Documents\Arduino\hardware\SMART-Response-XE-Low_level-master\avr\libraries\SmartResponseXE\SmartResponseXE.cpp ****   MODE_DATA = 0,
  58:C:\Users\Hexma\Documents\Arduino\hardware\SMART-Response-XE-Low_level-master\avr\libraries\SmartResponseXE\SmartResponseXE.cpp ****   MODE_COMMAND
  59:C:\Users\Hexma\Documents\Arduino\hardware\SMART-Response-XE-Low_level-master\avr\libraries\SmartResponseXE\SmartResponseXE.cpp **** } DC_MODE;
  60:C:\Users\Hexma\Documents\Arduino\hardware\SMART-Response-XE-Low_level-master\avr\libraries\SmartResponseXE\SmartResponseXE.cpp **** 
  61:C:\Users\Hexma\Documents\Arduino\hardware\SMART-Response-XE-Low_level-master\avr\libraries\SmartResponseXE\SmartResponseXE.cpp **** #ifndef HIGH
  62:C:\Users\Hexma\Documents\Arduino\hardware\SMART-Response-XE-Low_level-master\avr\libraries\SmartResponseXE\SmartResponseXE.cpp **** #define HIGH 1
  63:C:\Users\Hexma\Documents\Arduino\hardware\SMART-Response-XE-Low_level-master\avr\libraries\SmartResponseXE\SmartResponseXE.cpp **** #define LOW 0
  64:C:\Users\Hexma\Documents\Arduino\hardware\SMART-Response-XE-Low_level-master\avr\libraries\SmartResponseXE\SmartResponseXE.cpp **** #define INPUT 0
  65:C:\Users\Hexma\Documents\Arduino\hardware\SMART-Response-XE-Low_level-master\avr\libraries\SmartResponseXE\SmartResponseXE.cpp **** #define INPUT_PULLUP 1
  66:C:\Users\Hexma\Documents\Arduino\hardware\SMART-Response-XE-Low_level-master\avr\libraries\SmartResponseXE\SmartResponseXE.cpp **** #define OUTPUT 2
  67:C:\Users\Hexma\Documents\Arduino\hardware\SMART-Response-XE-Low_level-master\avr\libraries\SmartResponseXE\SmartResponseXE.cpp **** #endif
  68:C:\Users\Hexma\Documents\Arduino\hardware\SMART-Response-XE-Low_level-master\avr\libraries\SmartResponseXE\SmartResponseXE.cpp **** 
  69:C:\Users\Hexma\Documents\Arduino\hardware\SMART-Response-XE-Low_level-master\avr\libraries\SmartResponseXE\SmartResponseXE.cpp **** // Chip select for the external 1Mb flash module
  70:C:\Users\Hexma\Documents\Arduino\hardware\SMART-Response-XE-Low_level-master\avr\libraries\SmartResponseXE\SmartResponseXE.cpp **** #define CS_FLASH 0xd3
  71:C:\Users\Hexma\Documents\Arduino\hardware\SMART-Response-XE-Low_level-master\avr\libraries\SmartResponseXE\SmartResponseXE.cpp **** 
  72:C:\Users\Hexma\Documents\Arduino\hardware\SMART-Response-XE-Low_level-master\avr\libraries\SmartResponseXE\SmartResponseXE.cpp **** //Keyboard
  73:C:\Users\Hexma\Documents\Arduino\hardware\SMART-Response-XE-Low_level-master\avr\libraries\SmartResponseXE\SmartResponseXE.cpp **** //Logical Layout (SK# are screen keys: top to bottom 1-5 on left, 6-10 on right):
  74:C:\Users\Hexma\Documents\Arduino\hardware\SMART-Response-XE-Low_level-master\avr\libraries\SmartResponseXE\SmartResponseXE.cpp **** //                ROW1|ROW2|ROW3|ROW4|ROW5|ROW6|ROW7|ROW8|ROW9|ROW10
  75:C:\Users\Hexma\Documents\Arduino\hardware\SMART-Response-XE-Low_level-master\avr\libraries\SmartResponseXE\SmartResponseXE.cpp **** //           COL1    1|   2|   3|   4|   5|   6|   7|   8|   9|    0
  76:C:\Users\Hexma\Documents\Arduino\hardware\SMART-Response-XE-Low_level-master\avr\libraries\SmartResponseXE\SmartResponseXE.cpp **** //           COL2    Q|   W|   E|   R|   T|   Y|   U|   I|   O|    P
  77:C:\Users\Hexma\Documents\Arduino\hardware\SMART-Response-XE-Low_level-master\avr\libraries\SmartResponseXE\SmartResponseXE.cpp **** //           COL3    A|   S|   D|   F|   G|   H|   J|   K|   L| Bksp
  78:C:\Users\Hexma\Documents\Arduino\hardware\SMART-Response-XE-Low_level-master\avr\libraries\SmartResponseXE\SmartResponseXE.cpp **** //           COL4 Shft|   Z|   X|   C|   V|   B|   N|Down|Entr|   Up
  79:C:\Users\Hexma\Documents\Arduino\hardware\SMART-Response-XE-Low_level-master\avr\libraries\SmartResponseXE\SmartResponseXE.cpp **** //           COL5  Sym|Frac|Root| Exp| Spc|   ,|   .|   M|Left|Right
  80:C:\Users\Hexma\Documents\Arduino\hardware\SMART-Response-XE-Low_level-master\avr\libraries\SmartResponseXE\SmartResponseXE.cpp **** //           COL6  SK1| SK2| SK3| SK4| SK5| SK6| SK7| SK8| SK9| SK10
  81:C:\Users\Hexma\Documents\Arduino\hardware\SMART-Response-XE-Low_level-master\avr\libraries\SmartResponseXE\SmartResponseXE.cpp **** byte OriginalKeys[] = {'1', '2', '3', '4', '5', '6', '7', '8', '9', '0',
  82:C:\Users\Hexma\Documents\Arduino\hardware\SMART-Response-XE-Low_level-master\avr\libraries\SmartResponseXE\SmartResponseXE.cpp ****                        'q', 'w', 'e', 'r', 't', 'y', 'u', 'i', 'o', 'p',
  83:C:\Users\Hexma\Documents\Arduino\hardware\SMART-Response-XE-Low_level-master\avr\libraries\SmartResponseXE\SmartResponseXE.cpp ****                        'a', 's', 'd', 'f', 'g', 'h', 'j', 'k', 'l', 0xd, // enter (now del needs a 
  84:C:\Users\Hexma\Documents\Arduino\hardware\SMART-Response-XE-Low_level-master\avr\libraries\SmartResponseXE\SmartResponseXE.cpp ****                        0  , 'z', 'x', 'c', 'v', 'b', 'n', 0x5, 0, 0x4, // 5 = down, 4 = up
  85:C:\Users\Hexma\Documents\Arduino\hardware\SMART-Response-XE-Low_level-master\avr\libraries\SmartResponseXE\SmartResponseXE.cpp ****                        0  , 0xd,  0x1b,  0, ' ', ',', '.', 'm',  2,  3, // 2 = left, 3 = right, roo
  86:C:\Users\Hexma\Documents\Arduino\hardware\SMART-Response-XE-Low_level-master\avr\libraries\SmartResponseXE\SmartResponseXE.cpp ****                        0xf0, 0xf1, 0xf2, 0xf3, 0xf4, 0xf5, 0xf6, 0xf7, 0xf8, 0xf9
  87:C:\Users\Hexma\Documents\Arduino\hardware\SMART-Response-XE-Low_level-master\avr\libraries\SmartResponseXE\SmartResponseXE.cpp ****                       };
  88:C:\Users\Hexma\Documents\Arduino\hardware\SMART-Response-XE-Low_level-master\avr\libraries\SmartResponseXE\SmartResponseXE.cpp **** byte ShiftedKeys[] =  {'1', '2', '3', '4', '5', '6', '7', '8', '9', '0',
  89:C:\Users\Hexma\Documents\Arduino\hardware\SMART-Response-XE-Low_level-master\avr\libraries\SmartResponseXE\SmartResponseXE.cpp ****                        'Q', 'W', 'E', 'R', 'T', 'Y', 'U', 'I', 'O', 'P',
  90:C:\Users\Hexma\Documents\Arduino\hardware\SMART-Response-XE-Low_level-master\avr\libraries\SmartResponseXE\SmartResponseXE.cpp ****                        'A', 'S', 'D', 'F', 'G', 'H', 'J', 'K', 'L', 8,
  91:C:\Users\Hexma\Documents\Arduino\hardware\SMART-Response-XE-Low_level-master\avr\libraries\SmartResponseXE\SmartResponseXE.cpp ****                        0  , 'Z', 'X', 'C', 'V', 'B', 'N', 0x5, 0, 0x4, // 5 = down
  92:C:\Users\Hexma\Documents\Arduino\hardware\SMART-Response-XE-Low_level-master\avr\libraries\SmartResponseXE\SmartResponseXE.cpp ****                        0  , 0xd,  0,  0, '_', ',', '.', 'M',  2,  3,
  93:C:\Users\Hexma\Documents\Arduino\hardware\SMART-Response-XE-Low_level-master\avr\libraries\SmartResponseXE\SmartResponseXE.cpp ****                        0xf0, 0xf1, 0xf2, 0xf3, 0xf4, 0xf5, 0xf6, 0xf7, 0xf8, 0xf9
  94:C:\Users\Hexma\Documents\Arduino\hardware\SMART-Response-XE-Low_level-master\avr\libraries\SmartResponseXE\SmartResponseXE.cpp ****                       };
  95:C:\Users\Hexma\Documents\Arduino\hardware\SMART-Response-XE-Low_level-master\avr\libraries\SmartResponseXE\SmartResponseXE.cpp **** byte SymKeys[] =       {'!', '2', '3', '$', '%', '6', '\'', '\"', '(', ')',
  96:C:\Users\Hexma\Documents\Arduino\hardware\SMART-Response-XE-Low_level-master\avr\libraries\SmartResponseXE\SmartResponseXE.cpp ****                         'q', 'w', 'e', 'r', 't', 'y', 'u', ';', '[', ']', // i = ;
  97:C:\Users\Hexma\Documents\Arduino\hardware\SMART-Response-XE-Low_level-master\avr\libraries\SmartResponseXE\SmartResponseXE.cpp ****                         '=', '+', '-', 'f', 'g', 'h', 'j', ':', '?', 8,
  98:C:\Users\Hexma\Documents\Arduino\hardware\SMART-Response-XE-Low_level-master\avr\libraries\SmartResponseXE\SmartResponseXE.cpp ****                         0 , '*', '/', 'c', 'v', 'b', 'n', 0x5, 0, 0x4, // z = *, x = /
  99:C:\Users\Hexma\Documents\Arduino\hardware\SMART-Response-XE-Low_level-master\avr\libraries\SmartResponseXE\SmartResponseXE.cpp ****                         0 , 0xd, 0 , 0 , 0x1, '<', '>', 'm', 2, 3, // 1 = menu
GAS LISTING C:\Users\Hexma\AppData\Local\Temp\cc7G6F1c.s 			page 3


 100:C:\Users\Hexma\Documents\Arduino\hardware\SMART-Response-XE-Low_level-master\avr\libraries\SmartResponseXE\SmartResponseXE.cpp ****                         0xf0, 0xf1, 0xf2, 0xf3, 0xf4, 0xf5, 0xf6, 0xf7, 0xf8, 0xf9
 101:C:\Users\Hexma\Documents\Arduino\hardware\SMART-Response-XE-Low_level-master\avr\libraries\SmartResponseXE\SmartResponseXE.cpp ****                        };
 102:C:\Users\Hexma\Documents\Arduino\hardware\SMART-Response-XE-Low_level-master\avr\libraries\SmartResponseXE\SmartResponseXE.cpp **** 
 103:C:\Users\Hexma\Documents\Arduino\hardware\SMART-Response-XE-Low_level-master\avr\libraries\SmartResponseXE\SmartResponseXE.cpp **** //
 104:C:\Users\Hexma\Documents\Arduino\hardware\SMART-Response-XE-Low_level-master\avr\libraries\SmartResponseXE\SmartResponseXE.cpp **** // Power on the LCD
 105:C:\Users\Hexma\Documents\Arduino\hardware\SMART-Response-XE-Low_level-master\avr\libraries\SmartResponseXE\SmartResponseXE.cpp **** //
 106:C:\Users\Hexma\Documents\Arduino\hardware\SMART-Response-XE-Low_level-master\avr\libraries\SmartResponseXE\SmartResponseXE.cpp **** const char powerup[] PROGMEM = {
 107:C:\Users\Hexma\Documents\Arduino\hardware\SMART-Response-XE-Low_level-master\avr\libraries\SmartResponseXE\SmartResponseXE.cpp ****   1, 0x01, // soft reset
 108:C:\Users\Hexma\Documents\Arduino\hardware\SMART-Response-XE-Low_level-master\avr\libraries\SmartResponseXE\SmartResponseXE.cpp ****   99, 120, // 120ms delay
 109:C:\Users\Hexma\Documents\Arduino\hardware\SMART-Response-XE-Low_level-master\avr\libraries\SmartResponseXE\SmartResponseXE.cpp ****   1, 0x11,  // sleep out
 110:C:\Users\Hexma\Documents\Arduino\hardware\SMART-Response-XE-Low_level-master\avr\libraries\SmartResponseXE\SmartResponseXE.cpp ****   1, 0x28,  // display off
 111:C:\Users\Hexma\Documents\Arduino\hardware\SMART-Response-XE-Low_level-master\avr\libraries\SmartResponseXE\SmartResponseXE.cpp ****   99, 50, // 50ms delay
 112:C:\Users\Hexma\Documents\Arduino\hardware\SMART-Response-XE-Low_level-master\avr\libraries\SmartResponseXE\SmartResponseXE.cpp ****   3, 0xc0, 0xf8, 0x00, // Vop = 0xF0
 113:C:\Users\Hexma\Documents\Arduino\hardware\SMART-Response-XE-Low_level-master\avr\libraries\SmartResponseXE\SmartResponseXE.cpp ****   2, 0xc3, 0x04, // BIAS = 1/14
 114:C:\Users\Hexma\Documents\Arduino\hardware\SMART-Response-XE-Low_level-master\avr\libraries\SmartResponseXE\SmartResponseXE.cpp ****   2, 0xc4, 0x05, // Booster = x8
 115:C:\Users\Hexma\Documents\Arduino\hardware\SMART-Response-XE-Low_level-master\avr\libraries\SmartResponseXE\SmartResponseXE.cpp ****   2, 0xd0, 0x1d, // Enable analog circuit
 116:C:\Users\Hexma\Documents\Arduino\hardware\SMART-Response-XE-Low_level-master\avr\libraries\SmartResponseXE\SmartResponseXE.cpp ****   2, 0xb3, 0x00, // Set FOSC divider
 117:C:\Users\Hexma\Documents\Arduino\hardware\SMART-Response-XE-Low_level-master\avr\libraries\SmartResponseXE\SmartResponseXE.cpp ****   2, 0xb5, 0x8b, // N-Line = 0
 118:C:\Users\Hexma\Documents\Arduino\hardware\SMART-Response-XE-Low_level-master\avr\libraries\SmartResponseXE\SmartResponseXE.cpp ****   1, 0x38,       // Set grayscale mode (0x39 = monochrome mode)
 119:C:\Users\Hexma\Documents\Arduino\hardware\SMART-Response-XE-Low_level-master\avr\libraries\SmartResponseXE\SmartResponseXE.cpp ****   2, 0x3a, 0x02, // Enable DDRAM interface
 120:C:\Users\Hexma\Documents\Arduino\hardware\SMART-Response-XE-Low_level-master\avr\libraries\SmartResponseXE\SmartResponseXE.cpp ****   2, 0x36, 0x00, // Scan direction setting
 121:C:\Users\Hexma\Documents\Arduino\hardware\SMART-Response-XE-Low_level-master\avr\libraries\SmartResponseXE\SmartResponseXE.cpp ****   2, 0xB0, 0x9f, // Duty setting (0x87?)
 122:C:\Users\Hexma\Documents\Arduino\hardware\SMART-Response-XE-Low_level-master\avr\libraries\SmartResponseXE\SmartResponseXE.cpp ****   5, 0xf0, 0x12, 0x12, 0x12, 0x12, // 77Hz frame rate in all temperatures
 123:C:\Users\Hexma\Documents\Arduino\hardware\SMART-Response-XE-Low_level-master\avr\libraries\SmartResponseXE\SmartResponseXE.cpp ****   1, 0x20, // Display inversion off
 124:C:\Users\Hexma\Documents\Arduino\hardware\SMART-Response-XE-Low_level-master\avr\libraries\SmartResponseXE\SmartResponseXE.cpp ****   1, 0x29, // Display ON
 125:C:\Users\Hexma\Documents\Arduino\hardware\SMART-Response-XE-Low_level-master\avr\libraries\SmartResponseXE\SmartResponseXE.cpp ****   0
 126:C:\Users\Hexma\Documents\Arduino\hardware\SMART-Response-XE-Low_level-master\avr\libraries\SmartResponseXE\SmartResponseXE.cpp **** };
 127:C:\Users\Hexma\Documents\Arduino\hardware\SMART-Response-XE-Low_level-master\avr\libraries\SmartResponseXE\SmartResponseXE.cpp **** 
 128:C:\Users\Hexma\Documents\Arduino\hardware\SMART-Response-XE-Low_level-master\avr\libraries\SmartResponseXE\SmartResponseXE.cpp **** // small font
 129:C:\Users\Hexma\Documents\Arduino\hardware\SMART-Response-XE-Low_level-master\avr\libraries\SmartResponseXE\SmartResponseXE.cpp **** const byte ucFont[]PROGMEM = {
 130:C:\Users\Hexma\Documents\Arduino\hardware\SMART-Response-XE-Low_level-master\avr\libraries\SmartResponseXE\SmartResponseXE.cpp ****   0x00, 0x00, 0x00, 0x00, 0x00, 0x00, 0x00, 0x00, 0x00, 0x00, 0x06, 0x5f, 0x5f, 0x06, 0x00, 0x00,
 131:C:\Users\Hexma\Documents\Arduino\hardware\SMART-Response-XE-Low_level-master\avr\libraries\SmartResponseXE\SmartResponseXE.cpp ****   0x00, 0x07, 0x07, 0x00, 0x07, 0x07, 0x00, 0x00, 0x14, 0x7f, 0x7f, 0x14, 0x7f, 0x7f, 0x14, 0x00,
 132:C:\Users\Hexma\Documents\Arduino\hardware\SMART-Response-XE-Low_level-master\avr\libraries\SmartResponseXE\SmartResponseXE.cpp ****   0x24, 0x2e, 0x2a, 0x6b, 0x6b, 0x3a, 0x12, 0x00, 0x46, 0x66, 0x30, 0x18, 0x0c, 0x66, 0x62, 0x00,
 133:C:\Users\Hexma\Documents\Arduino\hardware\SMART-Response-XE-Low_level-master\avr\libraries\SmartResponseXE\SmartResponseXE.cpp ****   0x30, 0x7a, 0x4f, 0x5d, 0x37, 0x7a, 0x48, 0x00, 0x00, 0x04, 0x07, 0x03, 0x00, 0x00, 0x00, 0x00,
 134:C:\Users\Hexma\Documents\Arduino\hardware\SMART-Response-XE-Low_level-master\avr\libraries\SmartResponseXE\SmartResponseXE.cpp ****   0x00, 0x1c, 0x3e, 0x63, 0x41, 0x00, 0x00, 0x00, 0x00, 0x41, 0x63, 0x3e, 0x1c, 0x00, 0x00, 0x00,
 135:C:\Users\Hexma\Documents\Arduino\hardware\SMART-Response-XE-Low_level-master\avr\libraries\SmartResponseXE\SmartResponseXE.cpp ****   0x08, 0x2a, 0x3e, 0x1c, 0x1c, 0x3e, 0x2a, 0x08, 0x00, 0x08, 0x08, 0x3e, 0x3e, 0x08, 0x08, 0x00,
 136:C:\Users\Hexma\Documents\Arduino\hardware\SMART-Response-XE-Low_level-master\avr\libraries\SmartResponseXE\SmartResponseXE.cpp ****   0x00, 0x00, 0x80, 0xe0, 0x60, 0x00, 0x00, 0x00, 0x00, 0x08, 0x08, 0x08, 0x08, 0x08, 0x08, 0x00,
 137:C:\Users\Hexma\Documents\Arduino\hardware\SMART-Response-XE-Low_level-master\avr\libraries\SmartResponseXE\SmartResponseXE.cpp ****   0x00, 0x00, 0x00, 0x60, 0x60, 0x00, 0x00, 0x00, 0x60, 0x30, 0x18, 0x0c, 0x06, 0x03, 0x01, 0x00,
 138:C:\Users\Hexma\Documents\Arduino\hardware\SMART-Response-XE-Low_level-master\avr\libraries\SmartResponseXE\SmartResponseXE.cpp ****   0x3e, 0x7f, 0x59, 0x4d, 0x47, 0x7f, 0x3e, 0x00, 0x40, 0x42, 0x7f, 0x7f, 0x40, 0x40, 0x00, 0x00,
 139:C:\Users\Hexma\Documents\Arduino\hardware\SMART-Response-XE-Low_level-master\avr\libraries\SmartResponseXE\SmartResponseXE.cpp ****   0x62, 0x73, 0x59, 0x49, 0x6f, 0x66, 0x00, 0x00, 0x22, 0x63, 0x49, 0x49, 0x7f, 0x36, 0x00, 0x00,
 140:C:\Users\Hexma\Documents\Arduino\hardware\SMART-Response-XE-Low_level-master\avr\libraries\SmartResponseXE\SmartResponseXE.cpp ****   0x18, 0x1c, 0x16, 0x53, 0x7f, 0x7f, 0x50, 0x00, 0x27, 0x67, 0x45, 0x45, 0x7d, 0x39, 0x00, 0x00,
 141:C:\Users\Hexma\Documents\Arduino\hardware\SMART-Response-XE-Low_level-master\avr\libraries\SmartResponseXE\SmartResponseXE.cpp ****   0x3c, 0x7e, 0x4b, 0x49, 0x79, 0x30, 0x00, 0x00, 0x03, 0x03, 0x71, 0x79, 0x0f, 0x07, 0x00, 0x00,
 142:C:\Users\Hexma\Documents\Arduino\hardware\SMART-Response-XE-Low_level-master\avr\libraries\SmartResponseXE\SmartResponseXE.cpp ****   0x36, 0x7f, 0x49, 0x49, 0x7f, 0x36, 0x00, 0x00, 0x06, 0x4f, 0x49, 0x69, 0x3f, 0x1e, 0x00, 0x00,
 143:C:\Users\Hexma\Documents\Arduino\hardware\SMART-Response-XE-Low_level-master\avr\libraries\SmartResponseXE\SmartResponseXE.cpp ****   0x00, 0x00, 0x00, 0x66, 0x66, 0x00, 0x00, 0x00, 0x00, 0x00, 0x80, 0xe6, 0x66, 0x00, 0x00, 0x00,
 144:C:\Users\Hexma\Documents\Arduino\hardware\SMART-Response-XE-Low_level-master\avr\libraries\SmartResponseXE\SmartResponseXE.cpp ****   0x08, 0x1c, 0x36, 0x63, 0x41, 0x00, 0x00, 0x00, 0x00, 0x14, 0x14, 0x14, 0x14, 0x14, 0x14, 0x00,
 145:C:\Users\Hexma\Documents\Arduino\hardware\SMART-Response-XE-Low_level-master\avr\libraries\SmartResponseXE\SmartResponseXE.cpp ****   0x00, 0x41, 0x63, 0x36, 0x1c, 0x08, 0x00, 0x00, 0x00, 0x02, 0x03, 0x59, 0x5d, 0x07, 0x02, 0x00,
 146:C:\Users\Hexma\Documents\Arduino\hardware\SMART-Response-XE-Low_level-master\avr\libraries\SmartResponseXE\SmartResponseXE.cpp ****   0x3e, 0x7f, 0x41, 0x5d, 0x5d, 0x5f, 0x0e, 0x00, 0x7c, 0x7e, 0x13, 0x13, 0x7e, 0x7c, 0x00, 0x00,
 147:C:\Users\Hexma\Documents\Arduino\hardware\SMART-Response-XE-Low_level-master\avr\libraries\SmartResponseXE\SmartResponseXE.cpp ****   0x41, 0x7f, 0x7f, 0x49, 0x49, 0x7f, 0x36, 0x00, 0x1c, 0x3e, 0x63, 0x41, 0x41, 0x63, 0x22, 0x00,
 148:C:\Users\Hexma\Documents\Arduino\hardware\SMART-Response-XE-Low_level-master\avr\libraries\SmartResponseXE\SmartResponseXE.cpp ****   0x41, 0x7f, 0x7f, 0x41, 0x63, 0x3e, 0x1c, 0x00, 0x41, 0x7f, 0x7f, 0x49, 0x5d, 0x41, 0x63, 0x00,
 149:C:\Users\Hexma\Documents\Arduino\hardware\SMART-Response-XE-Low_level-master\avr\libraries\SmartResponseXE\SmartResponseXE.cpp ****   0x41, 0x7f, 0x7f, 0x49, 0x1d, 0x01, 0x03, 0x00, 0x1c, 0x3e, 0x63, 0x41, 0x51, 0x33, 0x72, 0x00,
 150:C:\Users\Hexma\Documents\Arduino\hardware\SMART-Response-XE-Low_level-master\avr\libraries\SmartResponseXE\SmartResponseXE.cpp ****   0x7f, 0x7f, 0x08, 0x08, 0x7f, 0x7f, 0x00, 0x00, 0x00, 0x41, 0x7f, 0x7f, 0x41, 0x00, 0x00, 0x00,
 151:C:\Users\Hexma\Documents\Arduino\hardware\SMART-Response-XE-Low_level-master\avr\libraries\SmartResponseXE\SmartResponseXE.cpp ****   0x30, 0x70, 0x40, 0x41, 0x7f, 0x3f, 0x01, 0x00, 0x41, 0x7f, 0x7f, 0x08, 0x1c, 0x77, 0x63, 0x00,
 152:C:\Users\Hexma\Documents\Arduino\hardware\SMART-Response-XE-Low_level-master\avr\libraries\SmartResponseXE\SmartResponseXE.cpp ****   0x41, 0x7f, 0x7f, 0x41, 0x40, 0x60, 0x70, 0x00, 0x7f, 0x7f, 0x0e, 0x1c, 0x0e, 0x7f, 0x7f, 0x00,
 153:C:\Users\Hexma\Documents\Arduino\hardware\SMART-Response-XE-Low_level-master\avr\libraries\SmartResponseXE\SmartResponseXE.cpp ****   0x7f, 0x7f, 0x06, 0x0c, 0x18, 0x7f, 0x7f, 0x00, 0x1c, 0x3e, 0x63, 0x41, 0x63, 0x3e, 0x1c, 0x00,
 154:C:\Users\Hexma\Documents\Arduino\hardware\SMART-Response-XE-Low_level-master\avr\libraries\SmartResponseXE\SmartResponseXE.cpp ****   0x41, 0x7f, 0x7f, 0x49, 0x09, 0x0f, 0x06, 0x00, 0x1e, 0x3f, 0x21, 0x31, 0x61, 0x7f, 0x5e, 0x00,
 155:C:\Users\Hexma\Documents\Arduino\hardware\SMART-Response-XE-Low_level-master\avr\libraries\SmartResponseXE\SmartResponseXE.cpp ****   0x41, 0x7f, 0x7f, 0x09, 0x19, 0x7f, 0x66, 0x00, 0x26, 0x6f, 0x4d, 0x49, 0x59, 0x73, 0x32, 0x00,
 156:C:\Users\Hexma\Documents\Arduino\hardware\SMART-Response-XE-Low_level-master\avr\libraries\SmartResponseXE\SmartResponseXE.cpp ****   0x03, 0x41, 0x7f, 0x7f, 0x41, 0x03, 0x00, 0x00, 0x7f, 0x7f, 0x40, 0x40, 0x7f, 0x7f, 0x00, 0x00,
GAS LISTING C:\Users\Hexma\AppData\Local\Temp\cc7G6F1c.s 			page 4


 157:C:\Users\Hexma\Documents\Arduino\hardware\SMART-Response-XE-Low_level-master\avr\libraries\SmartResponseXE\SmartResponseXE.cpp ****   0x1f, 0x3f, 0x60, 0x60, 0x3f, 0x1f, 0x00, 0x00, 0x3f, 0x7f, 0x60, 0x30, 0x60, 0x7f, 0x3f, 0x00,
 158:C:\Users\Hexma\Documents\Arduino\hardware\SMART-Response-XE-Low_level-master\avr\libraries\SmartResponseXE\SmartResponseXE.cpp ****   0x63, 0x77, 0x1c, 0x08, 0x1c, 0x77, 0x63, 0x00, 0x07, 0x4f, 0x78, 0x78, 0x4f, 0x07, 0x00, 0x00,
 159:C:\Users\Hexma\Documents\Arduino\hardware\SMART-Response-XE-Low_level-master\avr\libraries\SmartResponseXE\SmartResponseXE.cpp ****   0x47, 0x63, 0x71, 0x59, 0x4d, 0x67, 0x73, 0x00, 0x00, 0x7f, 0x7f, 0x41, 0x41, 0x00, 0x00, 0x00,
 160:C:\Users\Hexma\Documents\Arduino\hardware\SMART-Response-XE-Low_level-master\avr\libraries\SmartResponseXE\SmartResponseXE.cpp ****   0x01, 0x03, 0x06, 0x0c, 0x18, 0x30, 0x60, 0x00, 0x00, 0x41, 0x41, 0x7f, 0x7f, 0x00, 0x00, 0x00,
 161:C:\Users\Hexma\Documents\Arduino\hardware\SMART-Response-XE-Low_level-master\avr\libraries\SmartResponseXE\SmartResponseXE.cpp ****   0x08, 0x0c, 0x06, 0x03, 0x06, 0x0c, 0x08, 0x00, 0x80, 0x80, 0x80, 0x80, 0x80, 0x80, 0x80, 0x80,
 162:C:\Users\Hexma\Documents\Arduino\hardware\SMART-Response-XE-Low_level-master\avr\libraries\SmartResponseXE\SmartResponseXE.cpp ****   0x00, 0x00, 0x03, 0x07, 0x04, 0x00, 0x00, 0x00, 0x20, 0x74, 0x54, 0x54, 0x3c, 0x78, 0x40, 0x00,
 163:C:\Users\Hexma\Documents\Arduino\hardware\SMART-Response-XE-Low_level-master\avr\libraries\SmartResponseXE\SmartResponseXE.cpp ****   0x41, 0x7f, 0x3f, 0x48, 0x48, 0x78, 0x30, 0x00, 0x38, 0x7c, 0x44, 0x44, 0x6c, 0x28, 0x00, 0x00,
 164:C:\Users\Hexma\Documents\Arduino\hardware\SMART-Response-XE-Low_level-master\avr\libraries\SmartResponseXE\SmartResponseXE.cpp ****   0x30, 0x78, 0x48, 0x49, 0x3f, 0x7f, 0x40, 0x00, 0x38, 0x7c, 0x54, 0x54, 0x5c, 0x18, 0x00, 0x00,
 165:C:\Users\Hexma\Documents\Arduino\hardware\SMART-Response-XE-Low_level-master\avr\libraries\SmartResponseXE\SmartResponseXE.cpp ****   0x48, 0x7e, 0x7f, 0x49, 0x03, 0x06, 0x00, 0x00, 0x98, 0xbc, 0xa4, 0xa4, 0xf8, 0x7c, 0x04, 0x00,
 166:C:\Users\Hexma\Documents\Arduino\hardware\SMART-Response-XE-Low_level-master\avr\libraries\SmartResponseXE\SmartResponseXE.cpp ****   0x41, 0x7f, 0x7f, 0x08, 0x04, 0x7c, 0x78, 0x00, 0x00, 0x44, 0x7d, 0x7d, 0x40, 0x00, 0x00, 0x00,
 167:C:\Users\Hexma\Documents\Arduino\hardware\SMART-Response-XE-Low_level-master\avr\libraries\SmartResponseXE\SmartResponseXE.cpp ****   0x60, 0xe0, 0x80, 0x84, 0xfd, 0x7d, 0x00, 0x00, 0x41, 0x7f, 0x7f, 0x10, 0x38, 0x6c, 0x44, 0x00,
 168:C:\Users\Hexma\Documents\Arduino\hardware\SMART-Response-XE-Low_level-master\avr\libraries\SmartResponseXE\SmartResponseXE.cpp ****   0x00, 0x41, 0x7f, 0x7f, 0x40, 0x00, 0x00, 0x00, 0x7c, 0x7c, 0x18, 0x78, 0x1c, 0x7c, 0x78, 0x00,
 169:C:\Users\Hexma\Documents\Arduino\hardware\SMART-Response-XE-Low_level-master\avr\libraries\SmartResponseXE\SmartResponseXE.cpp ****   0x7c, 0x78, 0x04, 0x04, 0x7c, 0x78, 0x00, 0x00, 0x38, 0x7c, 0x44, 0x44, 0x7c, 0x38, 0x00, 0x00,
 170:C:\Users\Hexma\Documents\Arduino\hardware\SMART-Response-XE-Low_level-master\avr\libraries\SmartResponseXE\SmartResponseXE.cpp ****   0x84, 0xfc, 0xf8, 0xa4, 0x24, 0x3c, 0x18, 0x00, 0x18, 0x3c, 0x24, 0xa4, 0xf8, 0xfc, 0x84, 0x00,
 171:C:\Users\Hexma\Documents\Arduino\hardware\SMART-Response-XE-Low_level-master\avr\libraries\SmartResponseXE\SmartResponseXE.cpp ****   0x44, 0x7c, 0x78, 0x4c, 0x04, 0x0c, 0x18, 0x00, 0x48, 0x5c, 0x54, 0x74, 0x64, 0x24, 0x00, 0x00,
 172:C:\Users\Hexma\Documents\Arduino\hardware\SMART-Response-XE-Low_level-master\avr\libraries\SmartResponseXE\SmartResponseXE.cpp ****   0x04, 0x04, 0x3e, 0x7f, 0x44, 0x24, 0x00, 0x00, 0x3c, 0x7c, 0x40, 0x40, 0x3c, 0x7c, 0x40, 0x00,
 173:C:\Users\Hexma\Documents\Arduino\hardware\SMART-Response-XE-Low_level-master\avr\libraries\SmartResponseXE\SmartResponseXE.cpp ****   0x1c, 0x3c, 0x60, 0x60, 0x3c, 0x1c, 0x00, 0x00, 0x3c, 0x7c, 0x60, 0x30, 0x60, 0x7c, 0x3c, 0x00,
 174:C:\Users\Hexma\Documents\Arduino\hardware\SMART-Response-XE-Low_level-master\avr\libraries\SmartResponseXE\SmartResponseXE.cpp ****   0x44, 0x6c, 0x38, 0x10, 0x38, 0x6c, 0x44, 0x00, 0x9c, 0xbc, 0xa0, 0xa0, 0xfc, 0x7c, 0x00, 0x00,
 175:C:\Users\Hexma\Documents\Arduino\hardware\SMART-Response-XE-Low_level-master\avr\libraries\SmartResponseXE\SmartResponseXE.cpp ****   0x4c, 0x64, 0x74, 0x5c, 0x4c, 0x64, 0x00, 0x00, 0x08, 0x08, 0x3e, 0x77, 0x41, 0x41, 0x00, 0x00,
 176:C:\Users\Hexma\Documents\Arduino\hardware\SMART-Response-XE-Low_level-master\avr\libraries\SmartResponseXE\SmartResponseXE.cpp ****   0x00, 0x00, 0x00, 0x77, 0x77, 0x00, 0x00, 0x00, 0x41, 0x41, 0x77, 0x3e, 0x08, 0x08, 0x00, 0x00,
 177:C:\Users\Hexma\Documents\Arduino\hardware\SMART-Response-XE-Low_level-master\avr\libraries\SmartResponseXE\SmartResponseXE.cpp ****   0x02, 0x03, 0x01, 0x03, 0x02, 0x03, 0x01, 0x00, 0x70, 0x78, 0x4c, 0x46, 0x4c, 0x78, 0x70, 0x00
 178:C:\Users\Hexma\Documents\Arduino\hardware\SMART-Response-XE-Low_level-master\avr\libraries\SmartResponseXE\SmartResponseXE.cpp **** };
 179:C:\Users\Hexma\Documents\Arduino\hardware\SMART-Response-XE-Low_level-master\avr\libraries\SmartResponseXE\SmartResponseXE.cpp **** 
 180:C:\Users\Hexma\Documents\Arduino\hardware\SMART-Response-XE-Low_level-master\avr\libraries\SmartResponseXE\SmartResponseXE.cpp **** // 5x7 font (in 6x8 cell)
 181:C:\Users\Hexma\Documents\Arduino\hardware\SMART-Response-XE-Low_level-master\avr\libraries\SmartResponseXE\SmartResponseXE.cpp **** const unsigned char ucSmallFont[]PROGMEM = {
 182:C:\Users\Hexma\Documents\Arduino\hardware\SMART-Response-XE-Low_level-master\avr\libraries\SmartResponseXE\SmartResponseXE.cpp ****   0x00, 0x00, 0x00, 0x00, 0x00, 0x00, 0x00, 0x00, 0x06, 0x5f, 0x06, 0x00, 0x00, 0x07, 0x03, 0x00,
 183:C:\Users\Hexma\Documents\Arduino\hardware\SMART-Response-XE-Low_level-master\avr\libraries\SmartResponseXE\SmartResponseXE.cpp ****   0x07, 0x03, 0x00, 0x24, 0x7e, 0x24, 0x7e, 0x24, 0x00, 0x24, 0x2b, 0x6a, 0x12, 0x00, 0x00, 0x63,
 184:C:\Users\Hexma\Documents\Arduino\hardware\SMART-Response-XE-Low_level-master\avr\libraries\SmartResponseXE\SmartResponseXE.cpp ****   0x13, 0x08, 0x64, 0x63, 0x00, 0x36, 0x49, 0x56, 0x20, 0x50, 0x00, 0x00, 0x07, 0x03, 0x00, 0x00,
 185:C:\Users\Hexma\Documents\Arduino\hardware\SMART-Response-XE-Low_level-master\avr\libraries\SmartResponseXE\SmartResponseXE.cpp ****   0x00, 0x00, 0x3e, 0x41, 0x00, 0x00, 0x00, 0x00, 0x41, 0x3e, 0x00, 0x00, 0x00, 0x08, 0x3e, 0x1c,
 186:C:\Users\Hexma\Documents\Arduino\hardware\SMART-Response-XE-Low_level-master\avr\libraries\SmartResponseXE\SmartResponseXE.cpp ****   0x3e, 0x08, 0x00, 0x08, 0x08, 0x3e, 0x08, 0x08, 0x00, 0x00, 0xe0, 0x60, 0x00, 0x00, 0x00, 0x08,
 187:C:\Users\Hexma\Documents\Arduino\hardware\SMART-Response-XE-Low_level-master\avr\libraries\SmartResponseXE\SmartResponseXE.cpp ****   0x08, 0x08, 0x08, 0x08, 0x00, 0x00, 0x60, 0x60, 0x00, 0x00, 0x00, 0x20, 0x10, 0x08, 0x04, 0x02,
 188:C:\Users\Hexma\Documents\Arduino\hardware\SMART-Response-XE-Low_level-master\avr\libraries\SmartResponseXE\SmartResponseXE.cpp ****   0x00, 0x3e, 0x51, 0x49, 0x45, 0x3e, 0x00, 0x00, 0x42, 0x7f, 0x40, 0x00, 0x00, 0x62, 0x51, 0x49,
 189:C:\Users\Hexma\Documents\Arduino\hardware\SMART-Response-XE-Low_level-master\avr\libraries\SmartResponseXE\SmartResponseXE.cpp ****   0x49, 0x46, 0x00, 0x22, 0x49, 0x49, 0x49, 0x36, 0x00, 0x18, 0x14, 0x12, 0x7f, 0x10, 0x00, 0x2f,
 190:C:\Users\Hexma\Documents\Arduino\hardware\SMART-Response-XE-Low_level-master\avr\libraries\SmartResponseXE\SmartResponseXE.cpp ****   0x49, 0x49, 0x49, 0x31, 0x00, 0x3c, 0x4a, 0x49, 0x49, 0x30, 0x00, 0x01, 0x71, 0x09, 0x05, 0x03,
 191:C:\Users\Hexma\Documents\Arduino\hardware\SMART-Response-XE-Low_level-master\avr\libraries\SmartResponseXE\SmartResponseXE.cpp ****   0x00, 0x36, 0x49, 0x49, 0x49, 0x36, 0x00, 0x06, 0x49, 0x49, 0x29, 0x1e, 0x00, 0x00, 0x6c, 0x6c,
 192:C:\Users\Hexma\Documents\Arduino\hardware\SMART-Response-XE-Low_level-master\avr\libraries\SmartResponseXE\SmartResponseXE.cpp ****   0x00, 0x00, 0x00, 0x00, 0xec, 0x6c, 0x00, 0x00, 0x00, 0x08, 0x14, 0x22, 0x41, 0x00, 0x00, 0x24,
 193:C:\Users\Hexma\Documents\Arduino\hardware\SMART-Response-XE-Low_level-master\avr\libraries\SmartResponseXE\SmartResponseXE.cpp ****   0x24, 0x24, 0x24, 0x24, 0x00, 0x00, 0x41, 0x22, 0x14, 0x08, 0x00, 0x02, 0x01, 0x59, 0x09, 0x06,
 194:C:\Users\Hexma\Documents\Arduino\hardware\SMART-Response-XE-Low_level-master\avr\libraries\SmartResponseXE\SmartResponseXE.cpp ****   0x00, 0x3e, 0x41, 0x5d, 0x55, 0x1e, 0x00, 0x7e, 0x11, 0x11, 0x11, 0x7e, 0x00, 0x7f, 0x49, 0x49,
 195:C:\Users\Hexma\Documents\Arduino\hardware\SMART-Response-XE-Low_level-master\avr\libraries\SmartResponseXE\SmartResponseXE.cpp ****   0x49, 0x36, 0x00, 0x3e, 0x41, 0x41, 0x41, 0x22, 0x00, 0x7f, 0x41, 0x41, 0x41, 0x3e, 0x00, 0x7f,
 196:C:\Users\Hexma\Documents\Arduino\hardware\SMART-Response-XE-Low_level-master\avr\libraries\SmartResponseXE\SmartResponseXE.cpp ****   0x49, 0x49, 0x49, 0x41, 0x00, 0x7f, 0x09, 0x09, 0x09, 0x01, 0x00, 0x3e, 0x41, 0x49, 0x49, 0x7a,
 197:C:\Users\Hexma\Documents\Arduino\hardware\SMART-Response-XE-Low_level-master\avr\libraries\SmartResponseXE\SmartResponseXE.cpp ****   0x00, 0x7f, 0x08, 0x08, 0x08, 0x7f, 0x00, 0x00, 0x41, 0x7f, 0x41, 0x00, 0x00, 0x30, 0x40, 0x40,
 198:C:\Users\Hexma\Documents\Arduino\hardware\SMART-Response-XE-Low_level-master\avr\libraries\SmartResponseXE\SmartResponseXE.cpp ****   0x40, 0x3f, 0x00, 0x7f, 0x08, 0x14, 0x22, 0x41, 0x00, 0x7f, 0x40, 0x40, 0x40, 0x40, 0x00, 0x7f,
 199:C:\Users\Hexma\Documents\Arduino\hardware\SMART-Response-XE-Low_level-master\avr\libraries\SmartResponseXE\SmartResponseXE.cpp ****   0x02, 0x04, 0x02, 0x7f, 0x00, 0x7f, 0x02, 0x04, 0x08, 0x7f, 0x00, 0x3e, 0x41, 0x41, 0x41, 0x3e,
 200:C:\Users\Hexma\Documents\Arduino\hardware\SMART-Response-XE-Low_level-master\avr\libraries\SmartResponseXE\SmartResponseXE.cpp ****   0x00, 0x7f, 0x09, 0x09, 0x09, 0x06, 0x00, 0x3e, 0x41, 0x51, 0x21, 0x5e, 0x00, 0x7f, 0x09, 0x09,
 201:C:\Users\Hexma\Documents\Arduino\hardware\SMART-Response-XE-Low_level-master\avr\libraries\SmartResponseXE\SmartResponseXE.cpp ****   0x19, 0x66, 0x00, 0x26, 0x49, 0x49, 0x49, 0x32, 0x00, 0x01, 0x01, 0x7f, 0x01, 0x01, 0x00, 0x3f,
 202:C:\Users\Hexma\Documents\Arduino\hardware\SMART-Response-XE-Low_level-master\avr\libraries\SmartResponseXE\SmartResponseXE.cpp ****   0x40, 0x40, 0x40, 0x3f, 0x00, 0x1f, 0x20, 0x40, 0x20, 0x1f, 0x00, 0x3f, 0x40, 0x3c, 0x40, 0x3f,
 203:C:\Users\Hexma\Documents\Arduino\hardware\SMART-Response-XE-Low_level-master\avr\libraries\SmartResponseXE\SmartResponseXE.cpp ****   0x00, 0x63, 0x14, 0x08, 0x14, 0x63, 0x00, 0x07, 0x08, 0x70, 0x08, 0x07, 0x00, 0x71, 0x49, 0x45,
 204:C:\Users\Hexma\Documents\Arduino\hardware\SMART-Response-XE-Low_level-master\avr\libraries\SmartResponseXE\SmartResponseXE.cpp ****   0x43, 0x00, 0x00, 0x00, 0x7f, 0x41, 0x41, 0x00, 0x00, 0x02, 0x04, 0x08, 0x10, 0x20, 0x00, 0x00,
 205:C:\Users\Hexma\Documents\Arduino\hardware\SMART-Response-XE-Low_level-master\avr\libraries\SmartResponseXE\SmartResponseXE.cpp ****   0x41, 0x41, 0x7f, 0x00, 0x00, 0x04, 0x02, 0x01, 0x02, 0x04, 0x00, 0x80, 0x80, 0x80, 0x80, 0x80,
 206:C:\Users\Hexma\Documents\Arduino\hardware\SMART-Response-XE-Low_level-master\avr\libraries\SmartResponseXE\SmartResponseXE.cpp ****   0x00, 0x00, 0x03, 0x07, 0x00, 0x00, 0x00, 0x20, 0x54, 0x54, 0x54, 0x78, 0x00, 0x7f, 0x44, 0x44,
 207:C:\Users\Hexma\Documents\Arduino\hardware\SMART-Response-XE-Low_level-master\avr\libraries\SmartResponseXE\SmartResponseXE.cpp ****   0x44, 0x38, 0x00, 0x38, 0x44, 0x44, 0x44, 0x28, 0x00, 0x38, 0x44, 0x44, 0x44, 0x7f, 0x00, 0x38,
 208:C:\Users\Hexma\Documents\Arduino\hardware\SMART-Response-XE-Low_level-master\avr\libraries\SmartResponseXE\SmartResponseXE.cpp ****   0x54, 0x54, 0x54, 0x08, 0x00, 0x08, 0x7e, 0x09, 0x09, 0x00, 0x00, 0x18, 0xa4, 0xa4, 0xa4, 0x7c,
 209:C:\Users\Hexma\Documents\Arduino\hardware\SMART-Response-XE-Low_level-master\avr\libraries\SmartResponseXE\SmartResponseXE.cpp ****   0x00, 0x7f, 0x04, 0x04, 0x78, 0x00, 0x00, 0x00, 0x00, 0x7d, 0x40, 0x00, 0x00, 0x40, 0x80, 0x84,
 210:C:\Users\Hexma\Documents\Arduino\hardware\SMART-Response-XE-Low_level-master\avr\libraries\SmartResponseXE\SmartResponseXE.cpp ****   0x7d, 0x00, 0x00, 0x7f, 0x10, 0x28, 0x44, 0x00, 0x00, 0x00, 0x00, 0x7f, 0x40, 0x00, 0x00, 0x7c,
 211:C:\Users\Hexma\Documents\Arduino\hardware\SMART-Response-XE-Low_level-master\avr\libraries\SmartResponseXE\SmartResponseXE.cpp ****   0x04, 0x18, 0x04, 0x78, 0x00, 0x7c, 0x04, 0x04, 0x78, 0x00, 0x00, 0x38, 0x44, 0x44, 0x44, 0x38,
 212:C:\Users\Hexma\Documents\Arduino\hardware\SMART-Response-XE-Low_level-master\avr\libraries\SmartResponseXE\SmartResponseXE.cpp ****   0x00, 0xfc, 0x44, 0x44, 0x44, 0x38, 0x00, 0x38, 0x44, 0x44, 0x44, 0xfc, 0x00, 0x44, 0x78, 0x44,
 213:C:\Users\Hexma\Documents\Arduino\hardware\SMART-Response-XE-Low_level-master\avr\libraries\SmartResponseXE\SmartResponseXE.cpp ****   0x04, 0x08, 0x00, 0x08, 0x54, 0x54, 0x54, 0x20, 0x00, 0x04, 0x3e, 0x44, 0x24, 0x00, 0x00, 0x3c,
GAS LISTING C:\Users\Hexma\AppData\Local\Temp\cc7G6F1c.s 			page 5


 214:C:\Users\Hexma\Documents\Arduino\hardware\SMART-Response-XE-Low_level-master\avr\libraries\SmartResponseXE\SmartResponseXE.cpp ****   0x40, 0x20, 0x7c, 0x00, 0x00, 0x1c, 0x20, 0x40, 0x20, 0x1c, 0x00, 0x3c, 0x60, 0x30, 0x60, 0x3c,
 215:C:\Users\Hexma\Documents\Arduino\hardware\SMART-Response-XE-Low_level-master\avr\libraries\SmartResponseXE\SmartResponseXE.cpp ****   0x00, 0x6c, 0x10, 0x10, 0x6c, 0x00, 0x00, 0x9c, 0xa0, 0x60, 0x3c, 0x00, 0x00, 0x64, 0x54, 0x54,
 216:C:\Users\Hexma\Documents\Arduino\hardware\SMART-Response-XE-Low_level-master\avr\libraries\SmartResponseXE\SmartResponseXE.cpp ****   0x4c, 0x00, 0x00, 0x08, 0x3e, 0x41, 0x41, 0x00, 0x00, 0x00, 0x00, 0x77, 0x00, 0x00, 0x00, 0x00,
 217:C:\Users\Hexma\Documents\Arduino\hardware\SMART-Response-XE-Low_level-master\avr\libraries\SmartResponseXE\SmartResponseXE.cpp ****   0x41, 0x41, 0x3e, 0x08, 0x00, 0x02, 0x01, 0x02, 0x01, 0x00, 0x00, 0x3c, 0x26, 0x23, 0x26, 0x3c
 218:C:\Users\Hexma\Documents\Arduino\hardware\SMART-Response-XE-Low_level-master\avr\libraries\SmartResponseXE\SmartResponseXE.cpp **** };
 219:C:\Users\Hexma\Documents\Arduino\hardware\SMART-Response-XE-Low_level-master\avr\libraries\SmartResponseXE\SmartResponseXE.cpp **** 
 220:C:\Users\Hexma\Documents\Arduino\hardware\SMART-Response-XE-Low_level-master\avr\libraries\SmartResponseXE\SmartResponseXE.cpp **** uint8_t getPinInfo(uint8_t pin, volatile uint8_t **iDDR, volatile uint8_t **iPort, int bInput)
 221:C:\Users\Hexma\Documents\Arduino\hardware\SMART-Response-XE-Low_level-master\avr\libraries\SmartResponseXE\SmartResponseXE.cpp **** {
  17               		.loc 1 221 0
  18               		.cfi_startproc
  19               	.LVL0:
  20               	/* prologue: function */
  21               	/* frame size = 0 */
  22               	/* stack size = 0 */
  23               	.L__stack_usage = 0
  24 0000 982F      		mov r25,r24
  25 0002 FB01      		movw r30,r22
  26 0004 DA01      		movw r26,r20
  27               	.LVL1:
 222:C:\Users\Hexma\Documents\Arduino\hardware\SMART-Response-XE-Low_level-master\avr\libraries\SmartResponseXE\SmartResponseXE.cpp ****   uint8_t port, bit;
 223:C:\Users\Hexma\Documents\Arduino\hardware\SMART-Response-XE-Low_level-master\avr\libraries\SmartResponseXE\SmartResponseXE.cpp **** 
 224:C:\Users\Hexma\Documents\Arduino\hardware\SMART-Response-XE-Low_level-master\avr\libraries\SmartResponseXE\SmartResponseXE.cpp ****   port = (pin & 0xf0); // hex port (A,B,D,E,F)
 225:C:\Users\Hexma\Documents\Arduino\hardware\SMART-Response-XE-Low_level-master\avr\libraries\SmartResponseXE\SmartResponseXE.cpp ****   bit = pin & 0x7;
  28               		.loc 1 225 0
  29 0006 8770      		andi r24,lo8(7)
  30               	.LVL2:
 224:C:\Users\Hexma\Documents\Arduino\hardware\SMART-Response-XE-Low_level-master\avr\libraries\SmartResponseXE\SmartResponseXE.cpp ****   bit = pin & 0x7;
  31               		.loc 1 224 0
  32 0008 907F      		andi r25,lo8(-16)
  33               	.LVL3:
 226:C:\Users\Hexma\Documents\Arduino\hardware\SMART-Response-XE-Low_level-master\avr\libraries\SmartResponseXE\SmartResponseXE.cpp ****   switch (port)
  34               		.loc 1 226 0
  35 000a 903D      		cpi r25,lo8(-48)
  36 000c 01F0      		breq .L3
  37 000e 00F4      		brsh .L4
  38 0010 903A      		cpi r25,lo8(-96)
  39 0012 01F0      		breq .L5
  40 0014 903B      		cpi r25,lo8(-80)
  41 0016 01F0      		breq .L6
  42 0018 0895      		ret
  43               	.L4:
  44 001a 903E      		cpi r25,lo8(-32)
  45 001c 01F0      		breq .L7
  46 001e 903F      		cpi r25,lo8(-16)
  47 0020 01F0      		breq .L8
  48 0022 0895      		ret
  49               	.L5:
 227:C:\Users\Hexma\Documents\Arduino\hardware\SMART-Response-XE-Low_level-master\avr\libraries\SmartResponseXE\SmartResponseXE.cpp ****   {
 228:C:\Users\Hexma\Documents\Arduino\hardware\SMART-Response-XE-Low_level-master\avr\libraries\SmartResponseXE\SmartResponseXE.cpp ****     case 0xA0: // really port G
 229:C:\Users\Hexma\Documents\Arduino\hardware\SMART-Response-XE-Low_level-master\avr\libraries\SmartResponseXE\SmartResponseXE.cpp ****       *iPort = (bInput) ? &PING : &PORTG;
  50               		.loc 1 229 0
  51 0024 232B      		or r18,r19
  52 0026 01F4      		brne .L14
  53 0028 24E3      		ldi r18,lo8(52)
  54 002a 30E0      		ldi r19,0
  55               	.LVL4:
  56               	.L9:
GAS LISTING C:\Users\Hexma\AppData\Local\Temp\cc7G6F1c.s 			page 6


  57               		.loc 1 229 0 is_stmt 0 discriminator 4
  58 002c 2D93      		st X+,r18
  59 002e 3C93      		st X,r19
 230:C:\Users\Hexma\Documents\Arduino\hardware\SMART-Response-XE-Low_level-master\avr\libraries\SmartResponseXE\SmartResponseXE.cpp ****       *iDDR = &DDRG;
  60               		.loc 1 230 0 is_stmt 1 discriminator 4
  61 0030 23E3      		ldi r18,lo8(51)
  62 0032 30E0      		ldi r19,0
  63               	.L19:
 231:C:\Users\Hexma\Documents\Arduino\hardware\SMART-Response-XE-Low_level-master\avr\libraries\SmartResponseXE\SmartResponseXE.cpp ****       break;
 232:C:\Users\Hexma\Documents\Arduino\hardware\SMART-Response-XE-Low_level-master\avr\libraries\SmartResponseXE\SmartResponseXE.cpp ****     case 0xB0:
 233:C:\Users\Hexma\Documents\Arduino\hardware\SMART-Response-XE-Low_level-master\avr\libraries\SmartResponseXE\SmartResponseXE.cpp ****       *iPort = (bInput) ? &PINB : &PORTB;
 234:C:\Users\Hexma\Documents\Arduino\hardware\SMART-Response-XE-Low_level-master\avr\libraries\SmartResponseXE\SmartResponseXE.cpp ****       *iDDR = &DDRB;
 235:C:\Users\Hexma\Documents\Arduino\hardware\SMART-Response-XE-Low_level-master\avr\libraries\SmartResponseXE\SmartResponseXE.cpp ****       break;
 236:C:\Users\Hexma\Documents\Arduino\hardware\SMART-Response-XE-Low_level-master\avr\libraries\SmartResponseXE\SmartResponseXE.cpp ****     case 0xD0:
 237:C:\Users\Hexma\Documents\Arduino\hardware\SMART-Response-XE-Low_level-master\avr\libraries\SmartResponseXE\SmartResponseXE.cpp ****       *iPort = (bInput) ? &PIND : &PORTD;
 238:C:\Users\Hexma\Documents\Arduino\hardware\SMART-Response-XE-Low_level-master\avr\libraries\SmartResponseXE\SmartResponseXE.cpp ****       *iDDR = &DDRD;
 239:C:\Users\Hexma\Documents\Arduino\hardware\SMART-Response-XE-Low_level-master\avr\libraries\SmartResponseXE\SmartResponseXE.cpp ****       break;
 240:C:\Users\Hexma\Documents\Arduino\hardware\SMART-Response-XE-Low_level-master\avr\libraries\SmartResponseXE\SmartResponseXE.cpp ****     case 0xE0:
 241:C:\Users\Hexma\Documents\Arduino\hardware\SMART-Response-XE-Low_level-master\avr\libraries\SmartResponseXE\SmartResponseXE.cpp ****       *iPort = (bInput) ? &PINE : &PORTE;
 242:C:\Users\Hexma\Documents\Arduino\hardware\SMART-Response-XE-Low_level-master\avr\libraries\SmartResponseXE\SmartResponseXE.cpp ****       *iDDR = &DDRE;
 243:C:\Users\Hexma\Documents\Arduino\hardware\SMART-Response-XE-Low_level-master\avr\libraries\SmartResponseXE\SmartResponseXE.cpp ****       break;
 244:C:\Users\Hexma\Documents\Arduino\hardware\SMART-Response-XE-Low_level-master\avr\libraries\SmartResponseXE\SmartResponseXE.cpp ****     case 0xF0:
 245:C:\Users\Hexma\Documents\Arduino\hardware\SMART-Response-XE-Low_level-master\avr\libraries\SmartResponseXE\SmartResponseXE.cpp ****       *iPort = (bInput) ? &PINF : &PORTF;
 246:C:\Users\Hexma\Documents\Arduino\hardware\SMART-Response-XE-Low_level-master\avr\libraries\SmartResponseXE\SmartResponseXE.cpp ****       *iDDR = &DDRF;
  64               		.loc 1 246 0 discriminator 4
  65 0034 3183      		std Z+1,r19
  66 0036 2083      		st Z,r18
  67               	/* epilogue start */
 247:C:\Users\Hexma\Documents\Arduino\hardware\SMART-Response-XE-Low_level-master\avr\libraries\SmartResponseXE\SmartResponseXE.cpp ****       break;
 248:C:\Users\Hexma\Documents\Arduino\hardware\SMART-Response-XE-Low_level-master\avr\libraries\SmartResponseXE\SmartResponseXE.cpp ****   }
 249:C:\Users\Hexma\Documents\Arduino\hardware\SMART-Response-XE-Low_level-master\avr\libraries\SmartResponseXE\SmartResponseXE.cpp ****   return bit;
 250:C:\Users\Hexma\Documents\Arduino\hardware\SMART-Response-XE-Low_level-master\avr\libraries\SmartResponseXE\SmartResponseXE.cpp **** } /* getPinInfo() */
  68               		.loc 1 250 0 discriminator 4
  69 0038 0895      		ret
  70               	.LVL5:
  71               	.L14:
 229:C:\Users\Hexma\Documents\Arduino\hardware\SMART-Response-XE-Low_level-master\avr\libraries\SmartResponseXE\SmartResponseXE.cpp ****       *iDDR = &DDRG;
  72               		.loc 1 229 0
  73 003a 22E3      		ldi r18,lo8(50)
  74 003c 30E0      		ldi r19,0
  75               	.LVL6:
  76 003e 00C0      		rjmp .L9
  77               	.LVL7:
  78               	.L6:
 233:C:\Users\Hexma\Documents\Arduino\hardware\SMART-Response-XE-Low_level-master\avr\libraries\SmartResponseXE\SmartResponseXE.cpp ****       *iDDR = &DDRB;
  79               		.loc 1 233 0
  80 0040 232B      		or r18,r19
  81 0042 01F4      		brne .L15
  82 0044 25E2      		ldi r18,lo8(37)
  83 0046 30E0      		ldi r19,0
  84               	.LVL8:
  85               	.L10:
 233:C:\Users\Hexma\Documents\Arduino\hardware\SMART-Response-XE-Low_level-master\avr\libraries\SmartResponseXE\SmartResponseXE.cpp ****       *iDDR = &DDRB;
  86               		.loc 1 233 0 is_stmt 0 discriminator 4
  87 0048 2D93      		st X+,r18
  88 004a 3C93      		st X,r19
 234:C:\Users\Hexma\Documents\Arduino\hardware\SMART-Response-XE-Low_level-master\avr\libraries\SmartResponseXE\SmartResponseXE.cpp ****       break;
GAS LISTING C:\Users\Hexma\AppData\Local\Temp\cc7G6F1c.s 			page 7


  89               		.loc 1 234 0 is_stmt 1 discriminator 4
  90 004c 24E2      		ldi r18,lo8(36)
  91 004e 30E0      		ldi r19,0
  92 0050 00C0      		rjmp .L19
  93               	.LVL9:
  94               	.L15:
 233:C:\Users\Hexma\Documents\Arduino\hardware\SMART-Response-XE-Low_level-master\avr\libraries\SmartResponseXE\SmartResponseXE.cpp ****       *iDDR = &DDRB;
  95               		.loc 1 233 0
  96 0052 23E2      		ldi r18,lo8(35)
  97 0054 30E0      		ldi r19,0
  98               	.LVL10:
  99 0056 00C0      		rjmp .L10
 100               	.LVL11:
 101               	.L3:
 237:C:\Users\Hexma\Documents\Arduino\hardware\SMART-Response-XE-Low_level-master\avr\libraries\SmartResponseXE\SmartResponseXE.cpp ****       *iDDR = &DDRD;
 102               		.loc 1 237 0
 103 0058 232B      		or r18,r19
 104 005a 01F4      		brne .L16
 105 005c 2BE2      		ldi r18,lo8(43)
 106 005e 30E0      		ldi r19,0
 107               	.LVL12:
 108               	.L11:
 237:C:\Users\Hexma\Documents\Arduino\hardware\SMART-Response-XE-Low_level-master\avr\libraries\SmartResponseXE\SmartResponseXE.cpp ****       *iDDR = &DDRD;
 109               		.loc 1 237 0 is_stmt 0 discriminator 4
 110 0060 2D93      		st X+,r18
 111 0062 3C93      		st X,r19
 238:C:\Users\Hexma\Documents\Arduino\hardware\SMART-Response-XE-Low_level-master\avr\libraries\SmartResponseXE\SmartResponseXE.cpp ****       break;
 112               		.loc 1 238 0 is_stmt 1 discriminator 4
 113 0064 2AE2      		ldi r18,lo8(42)
 114 0066 30E0      		ldi r19,0
 115 0068 00C0      		rjmp .L19
 116               	.LVL13:
 117               	.L16:
 237:C:\Users\Hexma\Documents\Arduino\hardware\SMART-Response-XE-Low_level-master\avr\libraries\SmartResponseXE\SmartResponseXE.cpp ****       *iDDR = &DDRD;
 118               		.loc 1 237 0
 119 006a 29E2      		ldi r18,lo8(41)
 120 006c 30E0      		ldi r19,0
 121               	.LVL14:
 122 006e 00C0      		rjmp .L11
 123               	.LVL15:
 124               	.L7:
 241:C:\Users\Hexma\Documents\Arduino\hardware\SMART-Response-XE-Low_level-master\avr\libraries\SmartResponseXE\SmartResponseXE.cpp ****       *iDDR = &DDRE;
 125               		.loc 1 241 0
 126 0070 232B      		or r18,r19
 127 0072 01F4      		brne .L17
 128 0074 2EE2      		ldi r18,lo8(46)
 129 0076 30E0      		ldi r19,0
 130               	.LVL16:
 131               	.L12:
 241:C:\Users\Hexma\Documents\Arduino\hardware\SMART-Response-XE-Low_level-master\avr\libraries\SmartResponseXE\SmartResponseXE.cpp ****       *iDDR = &DDRE;
 132               		.loc 1 241 0 is_stmt 0 discriminator 4
 133 0078 2D93      		st X+,r18
 134 007a 3C93      		st X,r19
 242:C:\Users\Hexma\Documents\Arduino\hardware\SMART-Response-XE-Low_level-master\avr\libraries\SmartResponseXE\SmartResponseXE.cpp ****       break;
 135               		.loc 1 242 0 is_stmt 1 discriminator 4
 136 007c 2DE2      		ldi r18,lo8(45)
 137 007e 30E0      		ldi r19,0
GAS LISTING C:\Users\Hexma\AppData\Local\Temp\cc7G6F1c.s 			page 8


 138 0080 00C0      		rjmp .L19
 139               	.LVL17:
 140               	.L17:
 241:C:\Users\Hexma\Documents\Arduino\hardware\SMART-Response-XE-Low_level-master\avr\libraries\SmartResponseXE\SmartResponseXE.cpp ****       *iDDR = &DDRE;
 141               		.loc 1 241 0
 142 0082 2CE2      		ldi r18,lo8(44)
 143 0084 30E0      		ldi r19,0
 144               	.LVL18:
 145 0086 00C0      		rjmp .L12
 146               	.LVL19:
 147               	.L8:
 245:C:\Users\Hexma\Documents\Arduino\hardware\SMART-Response-XE-Low_level-master\avr\libraries\SmartResponseXE\SmartResponseXE.cpp ****       *iDDR = &DDRF;
 148               		.loc 1 245 0
 149 0088 232B      		or r18,r19
 150 008a 01F4      		brne .L18
 151 008c 21E3      		ldi r18,lo8(49)
 152 008e 30E0      		ldi r19,0
 153               	.LVL20:
 154               	.L13:
 245:C:\Users\Hexma\Documents\Arduino\hardware\SMART-Response-XE-Low_level-master\avr\libraries\SmartResponseXE\SmartResponseXE.cpp ****       *iDDR = &DDRF;
 155               		.loc 1 245 0 is_stmt 0 discriminator 4
 156 0090 2D93      		st X+,r18
 157 0092 3C93      		st X,r19
 246:C:\Users\Hexma\Documents\Arduino\hardware\SMART-Response-XE-Low_level-master\avr\libraries\SmartResponseXE\SmartResponseXE.cpp ****       break;
 158               		.loc 1 246 0 is_stmt 1 discriminator 4
 159 0094 20E3      		ldi r18,lo8(48)
 160 0096 30E0      		ldi r19,0
 161 0098 00C0      		rjmp .L19
 162               	.LVL21:
 163               	.L18:
 245:C:\Users\Hexma\Documents\Arduino\hardware\SMART-Response-XE-Low_level-master\avr\libraries\SmartResponseXE\SmartResponseXE.cpp ****       *iDDR = &DDRF;
 164               		.loc 1 245 0
 165 009a 2FE2      		ldi r18,lo8(47)
 166 009c 30E0      		ldi r19,0
 167               	.LVL22:
 168 009e 00C0      		rjmp .L13
 169               		.cfi_endproc
 170               	.LFE112:
 172               		.section	.text._Z9mypinModehh,"ax",@progbits
 173               	.global	_Z9mypinModehh
 175               	_Z9mypinModehh:
 176               	.LFB113:
 251:C:\Users\Hexma\Documents\Arduino\hardware\SMART-Response-XE-Low_level-master\avr\libraries\SmartResponseXE\SmartResponseXE.cpp **** 
 252:C:\Users\Hexma\Documents\Arduino\hardware\SMART-Response-XE-Low_level-master\avr\libraries\SmartResponseXE\SmartResponseXE.cpp **** 
 253:C:\Users\Hexma\Documents\Arduino\hardware\SMART-Response-XE-Low_level-master\avr\libraries\SmartResponseXE\SmartResponseXE.cpp **** //
 254:C:\Users\Hexma\Documents\Arduino\hardware\SMART-Response-XE-Low_level-master\avr\libraries\SmartResponseXE\SmartResponseXE.cpp **** // Simplified pin numbering scheme uses a hex number to specify the port number
 255:C:\Users\Hexma\Documents\Arduino\hardware\SMART-Response-XE-Low_level-master\avr\libraries\SmartResponseXE\SmartResponseXE.cpp **** // and bit. Top 4 bits = port (B/D/E/F/G), bottom 3 bits specify the bit of the port
 256:C:\Users\Hexma\Documents\Arduino\hardware\SMART-Response-XE-Low_level-master\avr\libraries\SmartResponseXE\SmartResponseXE.cpp **** // e.g. 0xB4 = PORTB, bit 4, 0Ax is for port G
 257:C:\Users\Hexma\Documents\Arduino\hardware\SMART-Response-XE-Low_level-master\avr\libraries\SmartResponseXE\SmartResponseXE.cpp **** //
 258:C:\Users\Hexma\Documents\Arduino\hardware\SMART-Response-XE-Low_level-master\avr\libraries\SmartResponseXE\SmartResponseXE.cpp **** void mypinMode(uint8_t pin, uint8_t mode)
 259:C:\Users\Hexma\Documents\Arduino\hardware\SMART-Response-XE-Low_level-master\avr\libraries\SmartResponseXE\SmartResponseXE.cpp **** {
 177               		.loc 1 259 0
 178               		.cfi_startproc
 179               	.LVL23:
 180 0000 1F93      		push r17
 181               	.LCFI0:
 182               		.cfi_def_cfa_offset 3
GAS LISTING C:\Users\Hexma\AppData\Local\Temp\cc7G6F1c.s 			page 9


 183               		.cfi_offset 17, -2
 184 0002 CF93      		push r28
 185               	.LCFI1:
 186               		.cfi_def_cfa_offset 4
 187               		.cfi_offset 28, -3
 188 0004 DF93      		push r29
 189               	.LCFI2:
 190               		.cfi_def_cfa_offset 5
 191               		.cfi_offset 29, -4
 192 0006 00D0      		rcall .
 193 0008 00D0      		rcall .
 194               	.LCFI3:
 195               		.cfi_def_cfa_offset 9
 196 000a CDB7      		in r28,__SP_L__
 197 000c DEB7      		in r29,__SP_H__
 198               	.LCFI4:
 199               		.cfi_def_cfa_register 28
 200               	/* prologue: function */
 201               	/* frame size = 4 */
 202               	/* stack size = 7 */
 203               	.L__stack_usage = 7
 204 000e 162F      		mov r17,r22
 260:C:\Users\Hexma\Documents\Arduino\hardware\SMART-Response-XE-Low_level-master\avr\libraries\SmartResponseXE\SmartResponseXE.cpp ****   uint8_t bit;
 261:C:\Users\Hexma\Documents\Arduino\hardware\SMART-Response-XE-Low_level-master\avr\libraries\SmartResponseXE\SmartResponseXE.cpp ****   volatile uint8_t *iPort, *iDDR;
 262:C:\Users\Hexma\Documents\Arduino\hardware\SMART-Response-XE-Low_level-master\avr\libraries\SmartResponseXE\SmartResponseXE.cpp **** 
 263:C:\Users\Hexma\Documents\Arduino\hardware\SMART-Response-XE-Low_level-master\avr\libraries\SmartResponseXE\SmartResponseXE.cpp ****   bit = getPinInfo(pin, &iDDR, &iPort, 0);
 205               		.loc 1 263 0
 206 0010 30E0      		ldi r19,0
 207 0012 20E0      		ldi r18,0
 208 0014 AE01      		movw r20,r28
 209 0016 4D5F      		subi r20,-3
 210 0018 5F4F      		sbci r21,-1
 211 001a BE01      		movw r22,r28
 212               	.LVL24:
 213 001c 6F5F      		subi r22,-1
 214 001e 7F4F      		sbci r23,-1
 215 0020 0E94 0000 		call _Z10getPinInfohPPVhS1_i
 216               	.LVL25:
 264:C:\Users\Hexma\Documents\Arduino\hardware\SMART-Response-XE-Low_level-master\avr\libraries\SmartResponseXE\SmartResponseXE.cpp ****   switch (mode)
 217               		.loc 1 264 0
 218 0024 1130      		cpi r17,lo8(1)
 219 0026 01F0      		breq .L22
 220 0028 00F0      		brlo .L23
 221 002a 1230      		cpi r17,lo8(2)
 222 002c 01F0      		breq .L24
 223               	.LVL26:
 224               	.L20:
 225               	/* epilogue start */
 265:C:\Users\Hexma\Documents\Arduino\hardware\SMART-Response-XE-Low_level-master\avr\libraries\SmartResponseXE\SmartResponseXE.cpp ****   {
 266:C:\Users\Hexma\Documents\Arduino\hardware\SMART-Response-XE-Low_level-master\avr\libraries\SmartResponseXE\SmartResponseXE.cpp ****     case INPUT:
 267:C:\Users\Hexma\Documents\Arduino\hardware\SMART-Response-XE-Low_level-master\avr\libraries\SmartResponseXE\SmartResponseXE.cpp ****       *iDDR &= ~(1 << bit);
 268:C:\Users\Hexma\Documents\Arduino\hardware\SMART-Response-XE-Low_level-master\avr\libraries\SmartResponseXE\SmartResponseXE.cpp ****       break;
 269:C:\Users\Hexma\Documents\Arduino\hardware\SMART-Response-XE-Low_level-master\avr\libraries\SmartResponseXE\SmartResponseXE.cpp ****     case INPUT_PULLUP:
 270:C:\Users\Hexma\Documents\Arduino\hardware\SMART-Response-XE-Low_level-master\avr\libraries\SmartResponseXE\SmartResponseXE.cpp ****       *iDDR |= (1 << bit);
 271:C:\Users\Hexma\Documents\Arduino\hardware\SMART-Response-XE-Low_level-master\avr\libraries\SmartResponseXE\SmartResponseXE.cpp ****       *iPort |= (1 << bit); // set the output high, then set it as an input
 272:C:\Users\Hexma\Documents\Arduino\hardware\SMART-Response-XE-Low_level-master\avr\libraries\SmartResponseXE\SmartResponseXE.cpp ****       *iDDR &= ~(1 << bit);
 273:C:\Users\Hexma\Documents\Arduino\hardware\SMART-Response-XE-Low_level-master\avr\libraries\SmartResponseXE\SmartResponseXE.cpp ****       break;
GAS LISTING C:\Users\Hexma\AppData\Local\Temp\cc7G6F1c.s 			page 10


 274:C:\Users\Hexma\Documents\Arduino\hardware\SMART-Response-XE-Low_level-master\avr\libraries\SmartResponseXE\SmartResponseXE.cpp ****     case OUTPUT:
 275:C:\Users\Hexma\Documents\Arduino\hardware\SMART-Response-XE-Low_level-master\avr\libraries\SmartResponseXE\SmartResponseXE.cpp ****       *iDDR |= (1 << bit);
 276:C:\Users\Hexma\Documents\Arduino\hardware\SMART-Response-XE-Low_level-master\avr\libraries\SmartResponseXE\SmartResponseXE.cpp ****       break;
 277:C:\Users\Hexma\Documents\Arduino\hardware\SMART-Response-XE-Low_level-master\avr\libraries\SmartResponseXE\SmartResponseXE.cpp ****   }
 278:C:\Users\Hexma\Documents\Arduino\hardware\SMART-Response-XE-Low_level-master\avr\libraries\SmartResponseXE\SmartResponseXE.cpp **** } /* mypinMode() */
 226               		.loc 1 278 0
 227 002e 0F90      		pop __tmp_reg__
 228 0030 0F90      		pop __tmp_reg__
 229 0032 0F90      		pop __tmp_reg__
 230 0034 0F90      		pop __tmp_reg__
 231 0036 DF91      		pop r29
 232 0038 CF91      		pop r28
 233 003a 1F91      		pop r17
 234               	.LVL27:
 235 003c 0895      		ret
 236               	.LVL28:
 237               	.L23:
 267:C:\Users\Hexma\Documents\Arduino\hardware\SMART-Response-XE-Low_level-master\avr\libraries\SmartResponseXE\SmartResponseXE.cpp ****       break;
 238               		.loc 1 267 0
 239 003e E981      		ldd r30,Y+1
 240 0040 FA81      		ldd r31,Y+2
 241 0042 4081      		ld r20,Z
 242 0044 21E0      		ldi r18,lo8(1)
 243 0046 30E0      		ldi r19,0
 244 0048 B901      		movw r22,r18
 245 004a 00C0      		rjmp 2f
 246               		1:
 247 004c 660F      		lsl r22
 248 004e 771F      		rol r23
 249               		2:
 250 0050 8A95      		dec r24
 251 0052 02F4      		brpl 1b
 252 0054 CB01      		movw r24,r22
 253               	.LVL29:
 254 0056 8095      		com r24
 255 0058 8423      		and r24,r20
 256               	.L25:
 275:C:\Users\Hexma\Documents\Arduino\hardware\SMART-Response-XE-Low_level-master\avr\libraries\SmartResponseXE\SmartResponseXE.cpp ****       break;
 257               		.loc 1 275 0
 258 005a 8083      		st Z,r24
 259               		.loc 1 278 0
 260 005c 00C0      		rjmp .L20
 261               	.LVL30:
 262               	.L24:
 270:C:\Users\Hexma\Documents\Arduino\hardware\SMART-Response-XE-Low_level-master\avr\libraries\SmartResponseXE\SmartResponseXE.cpp ****       *iPort |= (1 << bit); // set the output high, then set it as an input
 263               		.loc 1 270 0
 264 005e E981      		ldd r30,Y+1
 265 0060 FA81      		ldd r31,Y+2
 266 0062 4081      		ld r20,Z
 267 0064 21E0      		ldi r18,lo8(1)
 268 0066 30E0      		ldi r19,0
 269 0068 B901      		movw r22,r18
 270 006a 00C0      		rjmp 2f
 271               		1:
 272 006c 660F      		lsl r22
 273 006e 771F      		rol r23
 274               		2:
GAS LISTING C:\Users\Hexma\AppData\Local\Temp\cc7G6F1c.s 			page 11


 275 0070 8A95      		dec r24
 276 0072 02F4      		brpl 1b
 277 0074 CB01      		movw r24,r22
 278               	.LVL31:
 279 0076 942F      		mov r25,r20
 280 0078 982B      		or r25,r24
 281 007a 9083      		st Z,r25
 271:C:\Users\Hexma\Documents\Arduino\hardware\SMART-Response-XE-Low_level-master\avr\libraries\SmartResponseXE\SmartResponseXE.cpp ****       *iDDR &= ~(1 << bit);
 282               		.loc 1 271 0
 283 007c EB81      		ldd r30,Y+3
 284 007e FC81      		ldd r31,Y+4
 285 0080 9081      		ld r25,Z
 286 0082 982B      		or r25,r24
 287 0084 9083      		st Z,r25
 272:C:\Users\Hexma\Documents\Arduino\hardware\SMART-Response-XE-Low_level-master\avr\libraries\SmartResponseXE\SmartResponseXE.cpp ****       break;
 288               		.loc 1 272 0
 289 0086 E981      		ldd r30,Y+1
 290 0088 FA81      		ldd r31,Y+2
 291 008a 9081      		ld r25,Z
 292 008c 8095      		com r24
 293 008e 8923      		and r24,r25
 294 0090 00C0      		rjmp .L25
 295               	.LVL32:
 296               	.L22:
 275:C:\Users\Hexma\Documents\Arduino\hardware\SMART-Response-XE-Low_level-master\avr\libraries\SmartResponseXE\SmartResponseXE.cpp ****       break;
 297               		.loc 1 275 0
 298 0092 E981      		ldd r30,Y+1
 299 0094 FA81      		ldd r31,Y+2
 300 0096 9081      		ld r25,Z
 301 0098 21E0      		ldi r18,lo8(1)
 302 009a 30E0      		ldi r19,0
 303 009c 00C0      		rjmp 2f
 304               		1:
 305 009e 220F      		lsl r18
 306               		2:
 307 00a0 8A95      		dec r24
 308 00a2 02F4      		brpl 1b
 309 00a4 892F      		mov r24,r25
 310               	.LVL33:
 311 00a6 822B      		or r24,r18
 312 00a8 00C0      		rjmp .L25
 313               		.cfi_endproc
 314               	.LFE113:
 316               		.section	.text._Z14mydigitalWritehh,"ax",@progbits
 317               	.global	_Z14mydigitalWritehh
 319               	_Z14mydigitalWritehh:
 320               	.LFB114:
 279:C:\Users\Hexma\Documents\Arduino\hardware\SMART-Response-XE-Low_level-master\avr\libraries\SmartResponseXE\SmartResponseXE.cpp **** 
 280:C:\Users\Hexma\Documents\Arduino\hardware\SMART-Response-XE-Low_level-master\avr\libraries\SmartResponseXE\SmartResponseXE.cpp **** 
 281:C:\Users\Hexma\Documents\Arduino\hardware\SMART-Response-XE-Low_level-master\avr\libraries\SmartResponseXE\SmartResponseXE.cpp **** void mydigitalWrite(uint8_t pin, uint8_t value)
 282:C:\Users\Hexma\Documents\Arduino\hardware\SMART-Response-XE-Low_level-master\avr\libraries\SmartResponseXE\SmartResponseXE.cpp **** {
 321               		.loc 1 282 0
 322               		.cfi_startproc
 323               	.LVL34:
 324 0000 1F93      		push r17
 325               	.LCFI5:
 326               		.cfi_def_cfa_offset 3
GAS LISTING C:\Users\Hexma\AppData\Local\Temp\cc7G6F1c.s 			page 12


 327               		.cfi_offset 17, -2
 328 0002 CF93      		push r28
 329               	.LCFI6:
 330               		.cfi_def_cfa_offset 4
 331               		.cfi_offset 28, -3
 332 0004 DF93      		push r29
 333               	.LCFI7:
 334               		.cfi_def_cfa_offset 5
 335               		.cfi_offset 29, -4
 336 0006 00D0      		rcall .
 337 0008 00D0      		rcall .
 338               	.LCFI8:
 339               		.cfi_def_cfa_offset 9
 340 000a CDB7      		in r28,__SP_L__
 341 000c DEB7      		in r29,__SP_H__
 342               	.LCFI9:
 343               		.cfi_def_cfa_register 28
 344               	/* prologue: function */
 345               	/* frame size = 4 */
 346               	/* stack size = 7 */
 347               	.L__stack_usage = 7
 348 000e 162F      		mov r17,r22
 283:C:\Users\Hexma\Documents\Arduino\hardware\SMART-Response-XE-Low_level-master\avr\libraries\SmartResponseXE\SmartResponseXE.cpp ****   uint8_t bit;
 284:C:\Users\Hexma\Documents\Arduino\hardware\SMART-Response-XE-Low_level-master\avr\libraries\SmartResponseXE\SmartResponseXE.cpp ****   volatile uint8_t *iPort, *iDDR;
 285:C:\Users\Hexma\Documents\Arduino\hardware\SMART-Response-XE-Low_level-master\avr\libraries\SmartResponseXE\SmartResponseXE.cpp **** 
 286:C:\Users\Hexma\Documents\Arduino\hardware\SMART-Response-XE-Low_level-master\avr\libraries\SmartResponseXE\SmartResponseXE.cpp ****   bit = getPinInfo(pin, &iDDR, &iPort, 0);
 349               		.loc 1 286 0
 350 0010 30E0      		ldi r19,0
 351 0012 20E0      		ldi r18,0
 352 0014 AE01      		movw r20,r28
 353 0016 4D5F      		subi r20,-3
 354 0018 5F4F      		sbci r21,-1
 355 001a BE01      		movw r22,r28
 356               	.LVL35:
 357 001c 6F5F      		subi r22,-1
 358 001e 7F4F      		sbci r23,-1
 359 0020 0E94 0000 		call _Z10getPinInfohPPVhS1_i
 360               	.LVL36:
 361 0024 EB81      		ldd r30,Y+3
 362 0026 FC81      		ldd r31,Y+4
 287:C:\Users\Hexma\Documents\Arduino\hardware\SMART-Response-XE-Low_level-master\avr\libraries\SmartResponseXE\SmartResponseXE.cpp ****   if (value == LOW)
 363               		.loc 1 287 0
 364 0028 1111      		cpse r17,__zero_reg__
 365 002a 00C0      		rjmp .L27
 288:C:\Users\Hexma\Documents\Arduino\hardware\SMART-Response-XE-Low_level-master\avr\libraries\SmartResponseXE\SmartResponseXE.cpp ****   {
 289:C:\Users\Hexma\Documents\Arduino\hardware\SMART-Response-XE-Low_level-master\avr\libraries\SmartResponseXE\SmartResponseXE.cpp ****     *iPort &= ~(1 << bit);
 366               		.loc 1 289 0
 367 002c 4081      		ld r20,Z
 368 002e 21E0      		ldi r18,lo8(1)
 369 0030 30E0      		ldi r19,0
 370 0032 B901      		movw r22,r18
 371 0034 00C0      		rjmp 2f
 372               		1:
 373 0036 660F      		lsl r22
 374 0038 771F      		rol r23
 375               		2:
 376 003a 8A95      		dec r24
GAS LISTING C:\Users\Hexma\AppData\Local\Temp\cc7G6F1c.s 			page 13


 377 003c 02F4      		brpl 1b
 378 003e CB01      		movw r24,r22
 379               	.LVL37:
 380 0040 8095      		com r24
 381 0042 8423      		and r24,r20
 382               	.L29:
 290:C:\Users\Hexma\Documents\Arduino\hardware\SMART-Response-XE-Low_level-master\avr\libraries\SmartResponseXE\SmartResponseXE.cpp ****   }
 291:C:\Users\Hexma\Documents\Arduino\hardware\SMART-Response-XE-Low_level-master\avr\libraries\SmartResponseXE\SmartResponseXE.cpp ****   else
 292:C:\Users\Hexma\Documents\Arduino\hardware\SMART-Response-XE-Low_level-master\avr\libraries\SmartResponseXE\SmartResponseXE.cpp ****   {
 293:C:\Users\Hexma\Documents\Arduino\hardware\SMART-Response-XE-Low_level-master\avr\libraries\SmartResponseXE\SmartResponseXE.cpp ****     *iPort |= (1 << bit);
 383               		.loc 1 293 0
 384 0044 8083      		st Z,r24
 385               	/* epilogue start */
 294:C:\Users\Hexma\Documents\Arduino\hardware\SMART-Response-XE-Low_level-master\avr\libraries\SmartResponseXE\SmartResponseXE.cpp ****   }
 295:C:\Users\Hexma\Documents\Arduino\hardware\SMART-Response-XE-Low_level-master\avr\libraries\SmartResponseXE\SmartResponseXE.cpp **** } /* mydigitalWrite() */
 386               		.loc 1 295 0
 387 0046 0F90      		pop __tmp_reg__
 388 0048 0F90      		pop __tmp_reg__
 389 004a 0F90      		pop __tmp_reg__
 390 004c 0F90      		pop __tmp_reg__
 391 004e DF91      		pop r29
 392 0050 CF91      		pop r28
 393 0052 1F91      		pop r17
 394               	.LVL38:
 395 0054 0895      		ret
 396               	.LVL39:
 397               	.L27:
 293:C:\Users\Hexma\Documents\Arduino\hardware\SMART-Response-XE-Low_level-master\avr\libraries\SmartResponseXE\SmartResponseXE.cpp ****   }
 398               		.loc 1 293 0
 399 0056 9081      		ld r25,Z
 400 0058 21E0      		ldi r18,lo8(1)
 401 005a 30E0      		ldi r19,0
 402 005c 00C0      		rjmp 2f
 403               		1:
 404 005e 220F      		lsl r18
 405               		2:
 406 0060 8A95      		dec r24
 407 0062 02F4      		brpl 1b
 408 0064 892F      		mov r24,r25
 409               	.LVL40:
 410 0066 822B      		or r24,r18
 411 0068 00C0      		rjmp .L29
 412               		.cfi_endproc
 413               	.LFE114:
 415               		.section	.text._Z13mydigitalReadh,"ax",@progbits
 416               	.global	_Z13mydigitalReadh
 418               	_Z13mydigitalReadh:
 419               	.LFB115:
 296:C:\Users\Hexma\Documents\Arduino\hardware\SMART-Response-XE-Low_level-master\avr\libraries\SmartResponseXE\SmartResponseXE.cpp **** 
 297:C:\Users\Hexma\Documents\Arduino\hardware\SMART-Response-XE-Low_level-master\avr\libraries\SmartResponseXE\SmartResponseXE.cpp **** 
 298:C:\Users\Hexma\Documents\Arduino\hardware\SMART-Response-XE-Low_level-master\avr\libraries\SmartResponseXE\SmartResponseXE.cpp **** uint8_t mydigitalRead(uint8_t pin)
 299:C:\Users\Hexma\Documents\Arduino\hardware\SMART-Response-XE-Low_level-master\avr\libraries\SmartResponseXE\SmartResponseXE.cpp **** {
 420               		.loc 1 299 0
 421               		.cfi_startproc
 422               	.LVL41:
 423 0000 CF93      		push r28
 424               	.LCFI10:
GAS LISTING C:\Users\Hexma\AppData\Local\Temp\cc7G6F1c.s 			page 14


 425               		.cfi_def_cfa_offset 3
 426               		.cfi_offset 28, -2
 427 0002 DF93      		push r29
 428               	.LCFI11:
 429               		.cfi_def_cfa_offset 4
 430               		.cfi_offset 29, -3
 431 0004 00D0      		rcall .
 432 0006 00D0      		rcall .
 433               	.LCFI12:
 434               		.cfi_def_cfa_offset 8
 435 0008 CDB7      		in r28,__SP_L__
 436 000a DEB7      		in r29,__SP_H__
 437               	.LCFI13:
 438               		.cfi_def_cfa_register 28
 439               	/* prologue: function */
 440               	/* frame size = 4 */
 441               	/* stack size = 6 */
 442               	.L__stack_usage = 6
 300:C:\Users\Hexma\Documents\Arduino\hardware\SMART-Response-XE-Low_level-master\avr\libraries\SmartResponseXE\SmartResponseXE.cpp ****   uint8_t bit;
 301:C:\Users\Hexma\Documents\Arduino\hardware\SMART-Response-XE-Low_level-master\avr\libraries\SmartResponseXE\SmartResponseXE.cpp ****   volatile uint8_t *iPort, *iDDR;
 302:C:\Users\Hexma\Documents\Arduino\hardware\SMART-Response-XE-Low_level-master\avr\libraries\SmartResponseXE\SmartResponseXE.cpp **** 
 303:C:\Users\Hexma\Documents\Arduino\hardware\SMART-Response-XE-Low_level-master\avr\libraries\SmartResponseXE\SmartResponseXE.cpp ****   bit = getPinInfo(pin, &iDDR, &iPort, 1);
 443               		.loc 1 303 0
 444 000c 21E0      		ldi r18,lo8(1)
 445 000e 30E0      		ldi r19,0
 446 0010 AE01      		movw r20,r28
 447 0012 4D5F      		subi r20,-3
 448 0014 5F4F      		sbci r21,-1
 449 0016 BE01      		movw r22,r28
 450 0018 6F5F      		subi r22,-1
 451 001a 7F4F      		sbci r23,-1
 452 001c 0E94 0000 		call _Z10getPinInfohPPVhS1_i
 453               	.LVL42:
 304:C:\Users\Hexma\Documents\Arduino\hardware\SMART-Response-XE-Low_level-master\avr\libraries\SmartResponseXE\SmartResponseXE.cpp ****   if (*iPort & (1 << bit))
 454               		.loc 1 304 0
 455 0020 EB81      		ldd r30,Y+3
 456 0022 FC81      		ldd r31,Y+4
 457 0024 2081      		ld r18,Z
 458 0026 30E0      		ldi r19,0
 459 0028 A901      		movw r20,r18
 460 002a 00C0      		rjmp 2f
 461               		1:
 462 002c 5595      		asr r21
 463 002e 4795      		ror r20
 464               		2:
 465 0030 8A95      		dec r24
 466 0032 02F4      		brpl 1b
 467 0034 CA01      		movw r24,r20
 468               	.LVL43:
 305:C:\Users\Hexma\Documents\Arduino\hardware\SMART-Response-XE-Low_level-master\avr\libraries\SmartResponseXE\SmartResponseXE.cpp ****     return HIGH;
 306:C:\Users\Hexma\Documents\Arduino\hardware\SMART-Response-XE-Low_level-master\avr\libraries\SmartResponseXE\SmartResponseXE.cpp ****   else
 307:C:\Users\Hexma\Documents\Arduino\hardware\SMART-Response-XE-Low_level-master\avr\libraries\SmartResponseXE\SmartResponseXE.cpp ****     return LOW;
 308:C:\Users\Hexma\Documents\Arduino\hardware\SMART-Response-XE-Low_level-master\avr\libraries\SmartResponseXE\SmartResponseXE.cpp **** } /* mydigitalRead() */
 469               		.loc 1 308 0
 470 0036 8170      		andi r24,lo8(1)
 471               	/* epilogue start */
 472 0038 0F90      		pop __tmp_reg__
GAS LISTING C:\Users\Hexma\AppData\Local\Temp\cc7G6F1c.s 			page 15


 473 003a 0F90      		pop __tmp_reg__
 474 003c 0F90      		pop __tmp_reg__
 475 003e 0F90      		pop __tmp_reg__
 476 0040 DF91      		pop r29
 477 0042 CF91      		pop r28
 478 0044 0895      		ret
 479               		.cfi_endproc
 480               	.LFE115:
 482               		.section	.text.__vector_3,"ax",@progbits
 483               	.global	__vector_3
 485               	__vector_3:
 486               	.LFB116:
 309:C:\Users\Hexma\Documents\Arduino\hardware\SMART-Response-XE-Low_level-master\avr\libraries\SmartResponseXE\SmartResponseXE.cpp **** 
 310:C:\Users\Hexma\Documents\Arduino\hardware\SMART-Response-XE-Low_level-master\avr\libraries\SmartResponseXE\SmartResponseXE.cpp **** 
 311:C:\Users\Hexma\Documents\Arduino\hardware\SMART-Response-XE-Low_level-master\avr\libraries\SmartResponseXE\SmartResponseXE.cpp **** //
 312:C:\Users\Hexma\Documents\Arduino\hardware\SMART-Response-XE-Low_level-master\avr\libraries\SmartResponseXE\SmartResponseXE.cpp **** // Called when the power button is pressed to wake up the system
 313:C:\Users\Hexma\Documents\Arduino\hardware\SMART-Response-XE-Low_level-master\avr\libraries\SmartResponseXE\SmartResponseXE.cpp **** // Power up the display
 314:C:\Users\Hexma\Documents\Arduino\hardware\SMART-Response-XE-Low_level-master\avr\libraries\SmartResponseXE\SmartResponseXE.cpp **** //
 315:C:\Users\Hexma\Documents\Arduino\hardware\SMART-Response-XE-Low_level-master\avr\libraries\SmartResponseXE\SmartResponseXE.cpp **** ISR (INT2_vect)
 316:C:\Users\Hexma\Documents\Arduino\hardware\SMART-Response-XE-Low_level-master\avr\libraries\SmartResponseXE\SmartResponseXE.cpp **** {
 487               		.loc 1 316 0
 488               		.cfi_startproc
 489 0000 1F92      		push r1
 490               	.LCFI14:
 491               		.cfi_def_cfa_offset 3
 492               		.cfi_offset 1, -2
 493 0002 0F92      		push r0
 494               	.LCFI15:
 495               		.cfi_def_cfa_offset 4
 496               		.cfi_offset 0, -3
 497 0004 0FB6      		in r0,__SREG__
 498 0006 0F92      		push r0
 499 0008 1124      		clr __zero_reg__
 500 000a 8F93      		push r24
 501               	.LCFI16:
 502               		.cfi_def_cfa_offset 5
 503               		.cfi_offset 24, -4
 504               	/* prologue: Signal */
 505               	/* frame size = 0 */
 506               	/* stack size = 4 */
 507               	.L__stack_usage = 4
 317:C:\Users\Hexma\Documents\Arduino\hardware\SMART-Response-XE-Low_level-master\avr\libraries\SmartResponseXE\SmartResponseXE.cpp ****   // cancel sleep as a precaution
 318:C:\Users\Hexma\Documents\Arduino\hardware\SMART-Response-XE-Low_level-master\avr\libraries\SmartResponseXE\SmartResponseXE.cpp ****   sleep_disable();
 508               		.loc 1 318 0
 509 000c 83B7      		in r24,0x33
 510 000e 8E7F      		andi r24,lo8(-2)
 511 0010 83BF      		out 0x33,r24
 512               	/* epilogue start */
 319:C:\Users\Hexma\Documents\Arduino\hardware\SMART-Response-XE-Low_level-master\avr\libraries\SmartResponseXE\SmartResponseXE.cpp **** }
 513               		.loc 1 319 0
 514 0012 8F91      		pop r24
 515 0014 0F90      		pop r0
 516 0016 0FBE      		out __SREG__,r0
 517 0018 0F90      		pop r0
 518 001a 1F90      		pop r1
 519 001c 1895      		reti
 520               		.cfi_endproc
GAS LISTING C:\Users\Hexma\AppData\Local\Temp\cc7G6F1c.s 			page 16


 521               	.LFE116:
 523               		.section	.text._Z8SPI_Initv,"ax",@progbits
 524               	.global	_Z8SPI_Initv
 526               	_Z8SPI_Initv:
 527               	.LFB118:
 320:C:\Users\Hexma\Documents\Arduino\hardware\SMART-Response-XE-Low_level-master\avr\libraries\SmartResponseXE\SmartResponseXE.cpp **** 
 321:C:\Users\Hexma\Documents\Arduino\hardware\SMART-Response-XE-Low_level-master\avr\libraries\SmartResponseXE\SmartResponseXE.cpp **** 
 322:C:\Users\Hexma\Documents\Arduino\hardware\SMART-Response-XE-Low_level-master\avr\libraries\SmartResponseXE\SmartResponseXE.cpp **** //
 323:C:\Users\Hexma\Documents\Arduino\hardware\SMART-Response-XE-Low_level-master\avr\libraries\SmartResponseXE\SmartResponseXE.cpp **** // Put the device in a deep sleep to save power
 324:C:\Users\Hexma\Documents\Arduino\hardware\SMART-Response-XE-Low_level-master\avr\libraries\SmartResponseXE\SmartResponseXE.cpp **** // Wakes up when pressing the "power" button
 325:C:\Users\Hexma\Documents\Arduino\hardware\SMART-Response-XE-Low_level-master\avr\libraries\SmartResponseXE\SmartResponseXE.cpp **** //
 326:C:\Users\Hexma\Documents\Arduino\hardware\SMART-Response-XE-Low_level-master\avr\libraries\SmartResponseXE\SmartResponseXE.cpp **** void SRXESleep(void)
 327:C:\Users\Hexma\Documents\Arduino\hardware\SMART-Response-XE-Low_level-master\avr\libraries\SmartResponseXE\SmartResponseXE.cpp **** {
 328:C:\Users\Hexma\Documents\Arduino\hardware\SMART-Response-XE-Low_level-master\avr\libraries\SmartResponseXE\SmartResponseXE.cpp ****   // Turn off the LCD
 329:C:\Users\Hexma\Documents\Arduino\hardware\SMART-Response-XE-Low_level-master\avr\libraries\SmartResponseXE\SmartResponseXE.cpp ****   SRXEPowerDown();
 330:C:\Users\Hexma\Documents\Arduino\hardware\SMART-Response-XE-Low_level-master\avr\libraries\SmartResponseXE\SmartResponseXE.cpp **** 
 331:C:\Users\Hexma\Documents\Arduino\hardware\SMART-Response-XE-Low_level-master\avr\libraries\SmartResponseXE\SmartResponseXE.cpp ****   TRXPR = 1 << SLPTR; // send transceiver to sleep
 332:C:\Users\Hexma\Documents\Arduino\hardware\SMART-Response-XE-Low_level-master\avr\libraries\SmartResponseXE\SmartResponseXE.cpp **** 
 333:C:\Users\Hexma\Documents\Arduino\hardware\SMART-Response-XE-Low_level-master\avr\libraries\SmartResponseXE\SmartResponseXE.cpp ****   // disable ADC
 334:C:\Users\Hexma\Documents\Arduino\hardware\SMART-Response-XE-Low_level-master\avr\libraries\SmartResponseXE\SmartResponseXE.cpp ****   ADCSRA = 0;
 335:C:\Users\Hexma\Documents\Arduino\hardware\SMART-Response-XE-Low_level-master\avr\libraries\SmartResponseXE\SmartResponseXE.cpp ****   DDRD &= ~(1 << PORTD2); //PIN INT2 as input
 336:C:\Users\Hexma\Documents\Arduino\hardware\SMART-Response-XE-Low_level-master\avr\libraries\SmartResponseXE\SmartResponseXE.cpp ****   PORTD |= (1 << PORTD2); // pull-up resistor, the pin is forced to 1 if nothing is connected
 337:C:\Users\Hexma\Documents\Arduino\hardware\SMART-Response-XE-Low_level-master\avr\libraries\SmartResponseXE\SmartResponseXE.cpp ****   EIMSK &= ~(1 << INT2); //disabling interrupt on INT2
 338:C:\Users\Hexma\Documents\Arduino\hardware\SMART-Response-XE-Low_level-master\avr\libraries\SmartResponseXE\SmartResponseXE.cpp ****   EICRA &= ~((1 << ISC21) | (1 << ISC20)); // low level triggers interrupt
 339:C:\Users\Hexma\Documents\Arduino\hardware\SMART-Response-XE-Low_level-master\avr\libraries\SmartResponseXE\SmartResponseXE.cpp ****   EIFR |= (1 << INTF2); //clear interrupt flag
 340:C:\Users\Hexma\Documents\Arduino\hardware\SMART-Response-XE-Low_level-master\avr\libraries\SmartResponseXE\SmartResponseXE.cpp ****   EIMSK |= (1 << INT2); //enabling interrupt flag on INT2
 341:C:\Users\Hexma\Documents\Arduino\hardware\SMART-Response-XE-Low_level-master\avr\libraries\SmartResponseXE\SmartResponseXE.cpp **** 
 342:C:\Users\Hexma\Documents\Arduino\hardware\SMART-Response-XE-Low_level-master\avr\libraries\SmartResponseXE\SmartResponseXE.cpp ****   set_sleep_mode (SLEEP_MODE_PWR_DOWN);
 343:C:\Users\Hexma\Documents\Arduino\hardware\SMART-Response-XE-Low_level-master\avr\libraries\SmartResponseXE\SmartResponseXE.cpp ****   sleep_enable();
 344:C:\Users\Hexma\Documents\Arduino\hardware\SMART-Response-XE-Low_level-master\avr\libraries\SmartResponseXE\SmartResponseXE.cpp **** 
 345:C:\Users\Hexma\Documents\Arduino\hardware\SMART-Response-XE-Low_level-master\avr\libraries\SmartResponseXE\SmartResponseXE.cpp ****   // turn off brown-out enable in software
 346:C:\Users\Hexma\Documents\Arduino\hardware\SMART-Response-XE-Low_level-master\avr\libraries\SmartResponseXE\SmartResponseXE.cpp ****   // BODS must be set to one and BODSE must be set to zero within four clock cycles
 347:C:\Users\Hexma\Documents\Arduino\hardware\SMART-Response-XE-Low_level-master\avr\libraries\SmartResponseXE\SmartResponseXE.cpp ****   //  MCUCR = bit (BODS) | bit (BODSE);
 348:C:\Users\Hexma\Documents\Arduino\hardware\SMART-Response-XE-Low_level-master\avr\libraries\SmartResponseXE\SmartResponseXE.cpp ****   // The BODS bit is automatically cleared after three clock cycles
 349:C:\Users\Hexma\Documents\Arduino\hardware\SMART-Response-XE-Low_level-master\avr\libraries\SmartResponseXE\SmartResponseXE.cpp ****   //  MCUCR = bit (BODS);
 350:C:\Users\Hexma\Documents\Arduino\hardware\SMART-Response-XE-Low_level-master\avr\libraries\SmartResponseXE\SmartResponseXE.cpp **** 
 351:C:\Users\Hexma\Documents\Arduino\hardware\SMART-Response-XE-Low_level-master\avr\libraries\SmartResponseXE\SmartResponseXE.cpp ****   // We are guaranteed that the sleep_cpu call will be done
 352:C:\Users\Hexma\Documents\Arduino\hardware\SMART-Response-XE-Low_level-master\avr\libraries\SmartResponseXE\SmartResponseXE.cpp ****   // as the processor executes the next instruction after
 353:C:\Users\Hexma\Documents\Arduino\hardware\SMART-Response-XE-Low_level-master\avr\libraries\SmartResponseXE\SmartResponseXE.cpp ****   // interrupts are turned on.
 354:C:\Users\Hexma\Documents\Arduino\hardware\SMART-Response-XE-Low_level-master\avr\libraries\SmartResponseXE\SmartResponseXE.cpp ****   sleep_cpu ();   // one cycle
 355:C:\Users\Hexma\Documents\Arduino\hardware\SMART-Response-XE-Low_level-master\avr\libraries\SmartResponseXE\SmartResponseXE.cpp ****   SRXEPowerUp();
 356:C:\Users\Hexma\Documents\Arduino\hardware\SMART-Response-XE-Low_level-master\avr\libraries\SmartResponseXE\SmartResponseXE.cpp **** } /* SRXESleep() */
 357:C:\Users\Hexma\Documents\Arduino\hardware\SMART-Response-XE-Low_level-master\avr\libraries\SmartResponseXE\SmartResponseXE.cpp **** 
 358:C:\Users\Hexma\Documents\Arduino\hardware\SMART-Response-XE-Low_level-master\avr\libraries\SmartResponseXE\SmartResponseXE.cpp **** 
 359:C:\Users\Hexma\Documents\Arduino\hardware\SMART-Response-XE-Low_level-master\avr\libraries\SmartResponseXE\SmartResponseXE.cpp **** //
 360:C:\Users\Hexma\Documents\Arduino\hardware\SMART-Response-XE-Low_level-master\avr\libraries\SmartResponseXE\SmartResponseXE.cpp **** // Initialize SPI using direct register access
 361:C:\Users\Hexma\Documents\Arduino\hardware\SMART-Response-XE-Low_level-master\avr\libraries\SmartResponseXE\SmartResponseXE.cpp **** //
 362:C:\Users\Hexma\Documents\Arduino\hardware\SMART-Response-XE-Low_level-master\avr\libraries\SmartResponseXE\SmartResponseXE.cpp **** void SPI_Init(void)
 363:C:\Users\Hexma\Documents\Arduino\hardware\SMART-Response-XE-Low_level-master\avr\libraries\SmartResponseXE\SmartResponseXE.cpp **** {
 528               		.loc 1 363 0
 529               		.cfi_startproc
 530               	/* prologue: function */
 531               	/* frame size = 0 */
 532               	/* stack size = 0 */
 533               	.L__stack_usage = 0
 364:C:\Users\Hexma\Documents\Arduino\hardware\SMART-Response-XE-Low_level-master\avr\libraries\SmartResponseXE\SmartResponseXE.cpp ****   uint8_t temp;
 365:C:\Users\Hexma\Documents\Arduino\hardware\SMART-Response-XE-Low_level-master\avr\libraries\SmartResponseXE\SmartResponseXE.cpp ****   // Initialize SPI
GAS LISTING C:\Users\Hexma\AppData\Local\Temp\cc7G6F1c.s 			page 17


 366:C:\Users\Hexma\Documents\Arduino\hardware\SMART-Response-XE-Low_level-master\avr\libraries\SmartResponseXE\SmartResponseXE.cpp ****   // Set SS to high so a connected chip will be "deselected" by default
 367:C:\Users\Hexma\Documents\Arduino\hardware\SMART-Response-XE-Low_level-master\avr\libraries\SmartResponseXE\SmartResponseXE.cpp ****   //  digitalWrite(SS, HIGH);
 368:C:\Users\Hexma\Documents\Arduino\hardware\SMART-Response-XE-Low_level-master\avr\libraries\SmartResponseXE\SmartResponseXE.cpp ****   mydigitalWrite(0xb0, HIGH);
 534               		.loc 1 368 0
 535 0000 61E0      		ldi r22,lo8(1)
 536 0002 80EB      		ldi r24,lo8(-80)
 537 0004 0E94 0000 		call _Z14mydigitalWritehh
 538               	.LVL44:
 369:C:\Users\Hexma\Documents\Arduino\hardware\SMART-Response-XE-Low_level-master\avr\libraries\SmartResponseXE\SmartResponseXE.cpp **** 
 370:C:\Users\Hexma\Documents\Arduino\hardware\SMART-Response-XE-Low_level-master\avr\libraries\SmartResponseXE\SmartResponseXE.cpp ****   // When the SS pin is set as OUTPUT, it can be used as
 371:C:\Users\Hexma\Documents\Arduino\hardware\SMART-Response-XE-Low_level-master\avr\libraries\SmartResponseXE\SmartResponseXE.cpp ****   // a general purpose output port (it doesn't influence
 372:C:\Users\Hexma\Documents\Arduino\hardware\SMART-Response-XE-Low_level-master\avr\libraries\SmartResponseXE\SmartResponseXE.cpp ****   // SPI operations).
 373:C:\Users\Hexma\Documents\Arduino\hardware\SMART-Response-XE-Low_level-master\avr\libraries\SmartResponseXE\SmartResponseXE.cpp ****   //  pinMode(SS, OUTPUT);
 374:C:\Users\Hexma\Documents\Arduino\hardware\SMART-Response-XE-Low_level-master\avr\libraries\SmartResponseXE\SmartResponseXE.cpp ****   mypinMode(0xb0, OUTPUT);
 539               		.loc 1 374 0
 540 0008 61E0      		ldi r22,lo8(1)
 541 000a 80EB      		ldi r24,lo8(-80)
 542 000c 0E94 0000 		call _Z9mypinModehh
 543               	.LVL45:
 375:C:\Users\Hexma\Documents\Arduino\hardware\SMART-Response-XE-Low_level-master\avr\libraries\SmartResponseXE\SmartResponseXE.cpp **** 
 376:C:\Users\Hexma\Documents\Arduino\hardware\SMART-Response-XE-Low_level-master\avr\libraries\SmartResponseXE\SmartResponseXE.cpp ****   // SPCR = 01010000
 377:C:\Users\Hexma\Documents\Arduino\hardware\SMART-Response-XE-Low_level-master\avr\libraries\SmartResponseXE\SmartResponseXE.cpp ****   //interrupt disabled,spi enabled,msb 1st,master,clk low when idle,
 378:C:\Users\Hexma\Documents\Arduino\hardware\SMART-Response-XE-Low_level-master\avr\libraries\SmartResponseXE\SmartResponseXE.cpp ****   //*fdufnews 11/2019 ****************  modification to speed SPI transfert  *********************
 379:C:\Users\Hexma\Documents\Arduino\hardware\SMART-Response-XE-Low_level-master\avr\libraries\SmartResponseXE\SmartResponseXE.cpp ****   //sample on leading edge of clk,system clock/2 rate
 380:C:\Users\Hexma\Documents\Arduino\hardware\SMART-Response-XE-Low_level-master\avr\libraries\SmartResponseXE\SmartResponseXE.cpp ****   SPCR = (1 << SPE) | (1 << MSTR);
 544               		.loc 1 380 0
 545 0010 80E5      		ldi r24,lo8(80)
 546 0012 8CBD      		out 0x2c,r24
 381:C:\Users\Hexma\Documents\Arduino\hardware\SMART-Response-XE-Low_level-master\avr\libraries\SmartResponseXE\SmartResponseXE.cpp ****   SPSR = (1 << SPI2X);
 547               		.loc 1 381 0
 548 0014 81E0      		ldi r24,lo8(1)
 549 0016 8DBD      		out 0x2d,r24
 382:C:\Users\Hexma\Documents\Arduino\hardware\SMART-Response-XE-Low_level-master\avr\libraries\SmartResponseXE\SmartResponseXE.cpp ****   temp = SPSR; // clear old data
 550               		.loc 1 382 0
 551 0018 8DB5      		in r24,0x2d
 383:C:\Users\Hexma\Documents\Arduino\hardware\SMART-Response-XE-Low_level-master\avr\libraries\SmartResponseXE\SmartResponseXE.cpp ****   temp = SPDR;
 552               		.loc 1 383 0
 553 001a 8EB5      		in r24,0x2e
 384:C:\Users\Hexma\Documents\Arduino\hardware\SMART-Response-XE-Low_level-master\avr\libraries\SmartResponseXE\SmartResponseXE.cpp ****   if (temp != 0) {}; // suppress compiler warning
 385:C:\Users\Hexma\Documents\Arduino\hardware\SMART-Response-XE-Low_level-master\avr\libraries\SmartResponseXE\SmartResponseXE.cpp ****   // Set SCK as output
 386:C:\Users\Hexma\Documents\Arduino\hardware\SMART-Response-XE-Low_level-master\avr\libraries\SmartResponseXE\SmartResponseXE.cpp ****   //pinMode(13, OUTPUT);
 387:C:\Users\Hexma\Documents\Arduino\hardware\SMART-Response-XE-Low_level-master\avr\libraries\SmartResponseXE\SmartResponseXE.cpp ****   mypinMode(0xb1, OUTPUT);
 554               		.loc 1 387 0
 555 001c 61E0      		ldi r22,lo8(1)
 556 001e 81EB      		ldi r24,lo8(-79)
 557 0020 0E94 0000 		call _Z9mypinModehh
 558               	.LVL46:
 388:C:\Users\Hexma\Documents\Arduino\hardware\SMART-Response-XE-Low_level-master\avr\libraries\SmartResponseXE\SmartResponseXE.cpp ****   // set MOSI as output
 389:C:\Users\Hexma\Documents\Arduino\hardware\SMART-Response-XE-Low_level-master\avr\libraries\SmartResponseXE\SmartResponseXE.cpp ****   //pinMode(11, OUTPUT);
 390:C:\Users\Hexma\Documents\Arduino\hardware\SMART-Response-XE-Low_level-master\avr\libraries\SmartResponseXE\SmartResponseXE.cpp ****   mypinMode(0xb2, OUTPUT);
 559               		.loc 1 390 0
 560 0024 61E0      		ldi r22,lo8(1)
 561 0026 82EB      		ldi r24,lo8(-78)
 562 0028 0C94 0000 		jmp _Z9mypinModehh
 563               	.LVL47:
 564               		.cfi_endproc
 565               	.LFE118:
GAS LISTING C:\Users\Hexma\AppData\Local\Temp\cc7G6F1c.s 			page 18


 567               		.section	.text._Z12SPI_transferc,"ax",@progbits
 568               	.global	_Z12SPI_transferc
 570               	_Z12SPI_transferc:
 571               	.LFB119:
 391:C:\Users\Hexma\Documents\Arduino\hardware\SMART-Response-XE-Low_level-master\avr\libraries\SmartResponseXE\SmartResponseXE.cpp **** 
 392:C:\Users\Hexma\Documents\Arduino\hardware\SMART-Response-XE-Low_level-master\avr\libraries\SmartResponseXE\SmartResponseXE.cpp **** } /* SPI_Init() */
 393:C:\Users\Hexma\Documents\Arduino\hardware\SMART-Response-XE-Low_level-master\avr\libraries\SmartResponseXE\SmartResponseXE.cpp **** 
 394:C:\Users\Hexma\Documents\Arduino\hardware\SMART-Response-XE-Low_level-master\avr\libraries\SmartResponseXE\SmartResponseXE.cpp **** 
 395:C:\Users\Hexma\Documents\Arduino\hardware\SMART-Response-XE-Low_level-master\avr\libraries\SmartResponseXE\SmartResponseXE.cpp **** uint8_t SPI_transfer(volatile char data)
 396:C:\Users\Hexma\Documents\Arduino\hardware\SMART-Response-XE-Low_level-master\avr\libraries\SmartResponseXE\SmartResponseXE.cpp **** {
 572               		.loc 1 396 0
 573               		.cfi_startproc
 574               	.LVL48:
 575 0000 CF93      		push r28
 576               	.LCFI17:
 577               		.cfi_def_cfa_offset 3
 578               		.cfi_offset 28, -2
 579 0002 DF93      		push r29
 580               	.LCFI18:
 581               		.cfi_def_cfa_offset 4
 582               		.cfi_offset 29, -3
 583 0004 1F92      		push __zero_reg__
 584               	.LCFI19:
 585               		.cfi_def_cfa_offset 5
 586 0006 CDB7      		in r28,__SP_L__
 587 0008 DEB7      		in r29,__SP_H__
 588               	.LCFI20:
 589               		.cfi_def_cfa_register 28
 590               	/* prologue: function */
 591               	/* frame size = 1 */
 592               	/* stack size = 3 */
 593               	.L__stack_usage = 3
 594 000a 8983      		std Y+1,r24
 397:C:\Users\Hexma\Documents\Arduino\hardware\SMART-Response-XE-Low_level-master\avr\libraries\SmartResponseXE\SmartResponseXE.cpp ****   SPDR = data;                    // Start the transmission
 595               		.loc 1 397 0
 596 000c 8981      		ldd r24,Y+1
 597               	.LVL49:
 598 000e 8EBD      		out 0x2e,r24
 599               	.LVL50:
 398:C:\Users\Hexma\Documents\Arduino\hardware\SMART-Response-XE-Low_level-master\avr\libraries\SmartResponseXE\SmartResponseXE.cpp ****   /* trick from arduboy code
 399:C:\Users\Hexma\Documents\Arduino\hardware\SMART-Response-XE-Low_level-master\avr\libraries\SmartResponseXE\SmartResponseXE.cpp ****     The following NOP introduces a small delay that can prevent the wait
 400:C:\Users\Hexma\Documents\Arduino\hardware\SMART-Response-XE-Low_level-master\avr\libraries\SmartResponseXE\SmartResponseXE.cpp ****     loop from iterating when running at the maximum speed. This gives
 401:C:\Users\Hexma\Documents\Arduino\hardware\SMART-Response-XE-Low_level-master\avr\libraries\SmartResponseXE\SmartResponseXE.cpp ****     about 10% more speed, even if it seems counter-intuitive. At lower
 402:C:\Users\Hexma\Documents\Arduino\hardware\SMART-Response-XE-Low_level-master\avr\libraries\SmartResponseXE\SmartResponseXE.cpp ****     speeds it is unnoticed.
 403:C:\Users\Hexma\Documents\Arduino\hardware\SMART-Response-XE-Low_level-master\avr\libraries\SmartResponseXE\SmartResponseXE.cpp ****   */
 404:C:\Users\Hexma\Documents\Arduino\hardware\SMART-Response-XE-Low_level-master\avr\libraries\SmartResponseXE\SmartResponseXE.cpp ****   asm volatile("nop");
 600               		.loc 1 404 0
 601               	/* #APP */
 602               	 ;  404 "C:\Users\Hexma\Documents\Arduino\hardware\SMART-Response-XE-Low_level-master\avr\libraries
 603 0010 0000      		nop
 604               	 ;  0 "" 2
 605               	/* #NOAPP */
 606               	.L34:
 405:C:\Users\Hexma\Documents\Arduino\hardware\SMART-Response-XE-Low_level-master\avr\libraries\SmartResponseXE\SmartResponseXE.cpp ****   while (!(SPSR & (1 << SPIF)))   // Wait for the end of the transmission
 607               		.loc 1 405 0
 608 0012 0DB4      		in __tmp_reg__,0x2d
 609 0014 07FE      		sbrs __tmp_reg__,7
GAS LISTING C:\Users\Hexma\AppData\Local\Temp\cc7G6F1c.s 			page 19


 610 0016 00C0      		rjmp .L34
 406:C:\Users\Hexma\Documents\Arduino\hardware\SMART-Response-XE-Low_level-master\avr\libraries\SmartResponseXE\SmartResponseXE.cpp ****   {
 407:C:\Users\Hexma\Documents\Arduino\hardware\SMART-Response-XE-Low_level-master\avr\libraries\SmartResponseXE\SmartResponseXE.cpp ****   };
 408:C:\Users\Hexma\Documents\Arduino\hardware\SMART-Response-XE-Low_level-master\avr\libraries\SmartResponseXE\SmartResponseXE.cpp ****   return SPDR;                    // return the received byte
 611               		.loc 1 408 0
 612 0018 8EB5      		in r24,0x2e
 613               	/* epilogue start */
 409:C:\Users\Hexma\Documents\Arduino\hardware\SMART-Response-XE-Low_level-master\avr\libraries\SmartResponseXE\SmartResponseXE.cpp **** } /* SPI_transfer() */
 614               		.loc 1 409 0
 615 001a 0F90      		pop __tmp_reg__
 616 001c DF91      		pop r29
 617 001e CF91      		pop r28
 618 0020 0895      		ret
 619               		.cfi_endproc
 620               	.LFE119:
 622               		.section	.text._ZL16SRXEWriteCommandh,"ax",@progbits
 624               	_ZL16SRXEWriteCommandh:
 625               	.LFB125:
 410:C:\Users\Hexma\Documents\Arduino\hardware\SMART-Response-XE-Low_level-master\avr\libraries\SmartResponseXE\SmartResponseXE.cpp **** 
 411:C:\Users\Hexma\Documents\Arduino\hardware\SMART-Response-XE-Low_level-master\avr\libraries\SmartResponseXE\SmartResponseXE.cpp **** 
 412:C:\Users\Hexma\Documents\Arduino\hardware\SMART-Response-XE-Low_level-master\avr\libraries\SmartResponseXE\SmartResponseXE.cpp **** // Sets the D/C pin to data or command mode
 413:C:\Users\Hexma\Documents\Arduino\hardware\SMART-Response-XE-Low_level-master\avr\libraries\SmartResponseXE\SmartResponseXE.cpp **** static void SRXESetMode(int iMode)
 414:C:\Users\Hexma\Documents\Arduino\hardware\SMART-Response-XE-Low_level-master\avr\libraries\SmartResponseXE\SmartResponseXE.cpp **** {
 415:C:\Users\Hexma\Documents\Arduino\hardware\SMART-Response-XE-Low_level-master\avr\libraries\SmartResponseXE\SmartResponseXE.cpp ****   mydigitalWrite(iDCPin, (iMode == MODE_DATA));
 416:C:\Users\Hexma\Documents\Arduino\hardware\SMART-Response-XE-Low_level-master\avr\libraries\SmartResponseXE\SmartResponseXE.cpp **** } /* SRXESetMode() */
 417:C:\Users\Hexma\Documents\Arduino\hardware\SMART-Response-XE-Low_level-master\avr\libraries\SmartResponseXE\SmartResponseXE.cpp **** 
 418:C:\Users\Hexma\Documents\Arduino\hardware\SMART-Response-XE-Low_level-master\avr\libraries\SmartResponseXE\SmartResponseXE.cpp **** 
 419:C:\Users\Hexma\Documents\Arduino\hardware\SMART-Response-XE-Low_level-master\avr\libraries\SmartResponseXE\SmartResponseXE.cpp **** // Write a block of pixel data to the LCD
 420:C:\Users\Hexma\Documents\Arduino\hardware\SMART-Response-XE-Low_level-master\avr\libraries\SmartResponseXE\SmartResponseXE.cpp **** // Length can be anything from 1 to 17404 (whole display)
 421:C:\Users\Hexma\Documents\Arduino\hardware\SMART-Response-XE-Low_level-master\avr\libraries\SmartResponseXE\SmartResponseXE.cpp **** void SRXEWriteDataBlock(unsigned char *ucBuf, int iLen)
 422:C:\Users\Hexma\Documents\Arduino\hardware\SMART-Response-XE-Low_level-master\avr\libraries\SmartResponseXE\SmartResponseXE.cpp **** {
 423:C:\Users\Hexma\Documents\Arduino\hardware\SMART-Response-XE-Low_level-master\avr\libraries\SmartResponseXE\SmartResponseXE.cpp ****   int i;
 424:C:\Users\Hexma\Documents\Arduino\hardware\SMART-Response-XE-Low_level-master\avr\libraries\SmartResponseXE\SmartResponseXE.cpp **** 
 425:C:\Users\Hexma\Documents\Arduino\hardware\SMART-Response-XE-Low_level-master\avr\libraries\SmartResponseXE\SmartResponseXE.cpp ****   mydigitalWrite(iCSPin, LOW);
 426:C:\Users\Hexma\Documents\Arduino\hardware\SMART-Response-XE-Low_level-master\avr\libraries\SmartResponseXE\SmartResponseXE.cpp ****   for (i = 0; i < iLen; i++)
 427:C:\Users\Hexma\Documents\Arduino\hardware\SMART-Response-XE-Low_level-master\avr\libraries\SmartResponseXE\SmartResponseXE.cpp ****     SPI_transfer(ucBuf[i]);
 428:C:\Users\Hexma\Documents\Arduino\hardware\SMART-Response-XE-Low_level-master\avr\libraries\SmartResponseXE\SmartResponseXE.cpp ****   mydigitalWrite(iCSPin, HIGH);
 429:C:\Users\Hexma\Documents\Arduino\hardware\SMART-Response-XE-Low_level-master\avr\libraries\SmartResponseXE\SmartResponseXE.cpp **** }
 430:C:\Users\Hexma\Documents\Arduino\hardware\SMART-Response-XE-Low_level-master\avr\libraries\SmartResponseXE\SmartResponseXE.cpp **** 
 431:C:\Users\Hexma\Documents\Arduino\hardware\SMART-Response-XE-Low_level-master\avr\libraries\SmartResponseXE\SmartResponseXE.cpp **** 
 432:C:\Users\Hexma\Documents\Arduino\hardware\SMART-Response-XE-Low_level-master\avr\libraries\SmartResponseXE\SmartResponseXE.cpp **** //
 433:C:\Users\Hexma\Documents\Arduino\hardware\SMART-Response-XE-Low_level-master\avr\libraries\SmartResponseXE\SmartResponseXE.cpp **** // Command sequence to power up the LCD controller
 434:C:\Users\Hexma\Documents\Arduino\hardware\SMART-Response-XE-Low_level-master\avr\libraries\SmartResponseXE\SmartResponseXE.cpp **** //
 435:C:\Users\Hexma\Documents\Arduino\hardware\SMART-Response-XE-Low_level-master\avr\libraries\SmartResponseXE\SmartResponseXE.cpp **** void SRXEPowerUp(void)
 436:C:\Users\Hexma\Documents\Arduino\hardware\SMART-Response-XE-Low_level-master\avr\libraries\SmartResponseXE\SmartResponseXE.cpp **** {
 437:C:\Users\Hexma\Documents\Arduino\hardware\SMART-Response-XE-Low_level-master\avr\libraries\SmartResponseXE\SmartResponseXE.cpp ****   uint8_t ucTemp[4];
 438:C:\Users\Hexma\Documents\Arduino\hardware\SMART-Response-XE-Low_level-master\avr\libraries\SmartResponseXE\SmartResponseXE.cpp ****   const char *pList = powerup;
 439:C:\Users\Hexma\Documents\Arduino\hardware\SMART-Response-XE-Low_level-master\avr\libraries\SmartResponseXE\SmartResponseXE.cpp ****   uint8_t val, count, len = 1;
 440:C:\Users\Hexma\Documents\Arduino\hardware\SMART-Response-XE-Low_level-master\avr\libraries\SmartResponseXE\SmartResponseXE.cpp **** 
 441:C:\Users\Hexma\Documents\Arduino\hardware\SMART-Response-XE-Low_level-master\avr\libraries\SmartResponseXE\SmartResponseXE.cpp ****   while (len != 0)
 442:C:\Users\Hexma\Documents\Arduino\hardware\SMART-Response-XE-Low_level-master\avr\libraries\SmartResponseXE\SmartResponseXE.cpp ****   {
 443:C:\Users\Hexma\Documents\Arduino\hardware\SMART-Response-XE-Low_level-master\avr\libraries\SmartResponseXE\SmartResponseXE.cpp ****     len = pgm_read_byte(pList++);
 444:C:\Users\Hexma\Documents\Arduino\hardware\SMART-Response-XE-Low_level-master\avr\libraries\SmartResponseXE\SmartResponseXE.cpp ****     if (len == 99) // delay
 445:C:\Users\Hexma\Documents\Arduino\hardware\SMART-Response-XE-Low_level-master\avr\libraries\SmartResponseXE\SmartResponseXE.cpp ****     {
 446:C:\Users\Hexma\Documents\Arduino\hardware\SMART-Response-XE-Low_level-master\avr\libraries\SmartResponseXE\SmartResponseXE.cpp ****       val = pgm_read_byte(pList++);
 447:C:\Users\Hexma\Documents\Arduino\hardware\SMART-Response-XE-Low_level-master\avr\libraries\SmartResponseXE\SmartResponseXE.cpp ****       delay(val);
 448:C:\Users\Hexma\Documents\Arduino\hardware\SMART-Response-XE-Low_level-master\avr\libraries\SmartResponseXE\SmartResponseXE.cpp ****     }
GAS LISTING C:\Users\Hexma\AppData\Local\Temp\cc7G6F1c.s 			page 20


 449:C:\Users\Hexma\Documents\Arduino\hardware\SMART-Response-XE-Low_level-master\avr\libraries\SmartResponseXE\SmartResponseXE.cpp ****     else if (len != 0) // send command with optional data
 450:C:\Users\Hexma\Documents\Arduino\hardware\SMART-Response-XE-Low_level-master\avr\libraries\SmartResponseXE\SmartResponseXE.cpp ****     {
 451:C:\Users\Hexma\Documents\Arduino\hardware\SMART-Response-XE-Low_level-master\avr\libraries\SmartResponseXE\SmartResponseXE.cpp ****       val = pgm_read_byte(pList++); // command
 452:C:\Users\Hexma\Documents\Arduino\hardware\SMART-Response-XE-Low_level-master\avr\libraries\SmartResponseXE\SmartResponseXE.cpp ****       SRXEWriteCommand(val);
 453:C:\Users\Hexma\Documents\Arduino\hardware\SMART-Response-XE-Low_level-master\avr\libraries\SmartResponseXE\SmartResponseXE.cpp ****       count = len - 1;
 454:C:\Users\Hexma\Documents\Arduino\hardware\SMART-Response-XE-Low_level-master\avr\libraries\SmartResponseXE\SmartResponseXE.cpp ****       if (count != 0)
 455:C:\Users\Hexma\Documents\Arduino\hardware\SMART-Response-XE-Low_level-master\avr\libraries\SmartResponseXE\SmartResponseXE.cpp ****       {
 456:C:\Users\Hexma\Documents\Arduino\hardware\SMART-Response-XE-Low_level-master\avr\libraries\SmartResponseXE\SmartResponseXE.cpp ****         memcpy_P(ucTemp, pList, count);
 457:C:\Users\Hexma\Documents\Arduino\hardware\SMART-Response-XE-Low_level-master\avr\libraries\SmartResponseXE\SmartResponseXE.cpp ****         pList += count;
 458:C:\Users\Hexma\Documents\Arduino\hardware\SMART-Response-XE-Low_level-master\avr\libraries\SmartResponseXE\SmartResponseXE.cpp ****         SRXEWriteDataBlock(ucTemp, count);
 459:C:\Users\Hexma\Documents\Arduino\hardware\SMART-Response-XE-Low_level-master\avr\libraries\SmartResponseXE\SmartResponseXE.cpp ****       }
 460:C:\Users\Hexma\Documents\Arduino\hardware\SMART-Response-XE-Low_level-master\avr\libraries\SmartResponseXE\SmartResponseXE.cpp ****     }
 461:C:\Users\Hexma\Documents\Arduino\hardware\SMART-Response-XE-Low_level-master\avr\libraries\SmartResponseXE\SmartResponseXE.cpp ****   }
 462:C:\Users\Hexma\Documents\Arduino\hardware\SMART-Response-XE-Low_level-master\avr\libraries\SmartResponseXE\SmartResponseXE.cpp **** } /* SRXEPowerUp() */
 463:C:\Users\Hexma\Documents\Arduino\hardware\SMART-Response-XE-Low_level-master\avr\libraries\SmartResponseXE\SmartResponseXE.cpp **** 
 464:C:\Users\Hexma\Documents\Arduino\hardware\SMART-Response-XE-Low_level-master\avr\libraries\SmartResponseXE\SmartResponseXE.cpp **** 
 465:C:\Users\Hexma\Documents\Arduino\hardware\SMART-Response-XE-Low_level-master\avr\libraries\SmartResponseXE\SmartResponseXE.cpp **** //
 466:C:\Users\Hexma\Documents\Arduino\hardware\SMART-Response-XE-Low_level-master\avr\libraries\SmartResponseXE\SmartResponseXE.cpp **** // Initializes the LCD controller
 467:C:\Users\Hexma\Documents\Arduino\hardware\SMART-Response-XE-Low_level-master\avr\libraries\SmartResponseXE\SmartResponseXE.cpp **** // Parameters: GPIO pin numbers used for the CS/DC/RST control lines
 468:C:\Users\Hexma\Documents\Arduino\hardware\SMART-Response-XE-Low_level-master\avr\libraries\SmartResponseXE\SmartResponseXE.cpp **** //
 469:C:\Users\Hexma\Documents\Arduino\hardware\SMART-Response-XE-Low_level-master\avr\libraries\SmartResponseXE\SmartResponseXE.cpp **** int SRXEInit(int iCS, int iDC, int iReset)
 470:C:\Users\Hexma\Documents\Arduino\hardware\SMART-Response-XE-Low_level-master\avr\libraries\SmartResponseXE\SmartResponseXE.cpp **** {
 471:C:\Users\Hexma\Documents\Arduino\hardware\SMART-Response-XE-Low_level-master\avr\libraries\SmartResponseXE\SmartResponseXE.cpp ****   byte uc, ucTemp[8];
 472:C:\Users\Hexma\Documents\Arduino\hardware\SMART-Response-XE-Low_level-master\avr\libraries\SmartResponseXE\SmartResponseXE.cpp **** 
 473:C:\Users\Hexma\Documents\Arduino\hardware\SMART-Response-XE-Low_level-master\avr\libraries\SmartResponseXE\SmartResponseXE.cpp ****   iCSPin = iCS;
 474:C:\Users\Hexma\Documents\Arduino\hardware\SMART-Response-XE-Low_level-master\avr\libraries\SmartResponseXE\SmartResponseXE.cpp ****   iDCPin = iDC;
 475:C:\Users\Hexma\Documents\Arduino\hardware\SMART-Response-XE-Low_level-master\avr\libraries\SmartResponseXE\SmartResponseXE.cpp ****   iResetPin = iReset;
 476:C:\Users\Hexma\Documents\Arduino\hardware\SMART-Response-XE-Low_level-master\avr\libraries\SmartResponseXE\SmartResponseXE.cpp **** 
 477:C:\Users\Hexma\Documents\Arduino\hardware\SMART-Response-XE-Low_level-master\avr\libraries\SmartResponseXE\SmartResponseXE.cpp ****   SPI_Init();
 478:C:\Users\Hexma\Documents\Arduino\hardware\SMART-Response-XE-Low_level-master\avr\libraries\SmartResponseXE\SmartResponseXE.cpp ****   mypinMode(iCSPin, OUTPUT);
 479:C:\Users\Hexma\Documents\Arduino\hardware\SMART-Response-XE-Low_level-master\avr\libraries\SmartResponseXE\SmartResponseXE.cpp ****   mypinMode(CS_FLASH, OUTPUT); // in case we want to use the SPI flash
 480:C:\Users\Hexma\Documents\Arduino\hardware\SMART-Response-XE-Low_level-master\avr\libraries\SmartResponseXE\SmartResponseXE.cpp ****   mydigitalWrite(iCSPin, HIGH);
 481:C:\Users\Hexma\Documents\Arduino\hardware\SMART-Response-XE-Low_level-master\avr\libraries\SmartResponseXE\SmartResponseXE.cpp **** 
 482:C:\Users\Hexma\Documents\Arduino\hardware\SMART-Response-XE-Low_level-master\avr\libraries\SmartResponseXE\SmartResponseXE.cpp ****   mypinMode(iDCPin, OUTPUT);
 483:C:\Users\Hexma\Documents\Arduino\hardware\SMART-Response-XE-Low_level-master\avr\libraries\SmartResponseXE\SmartResponseXE.cpp ****   mypinMode(iResetPin, OUTPUT);
 484:C:\Users\Hexma\Documents\Arduino\hardware\SMART-Response-XE-Low_level-master\avr\libraries\SmartResponseXE\SmartResponseXE.cpp **** 
 485:C:\Users\Hexma\Documents\Arduino\hardware\SMART-Response-XE-Low_level-master\avr\libraries\SmartResponseXE\SmartResponseXE.cpp ****   // Start by reseting the LCD controller
 486:C:\Users\Hexma\Documents\Arduino\hardware\SMART-Response-XE-Low_level-master\avr\libraries\SmartResponseXE\SmartResponseXE.cpp ****   mydigitalWrite(iResetPin, HIGH);
 487:C:\Users\Hexma\Documents\Arduino\hardware\SMART-Response-XE-Low_level-master\avr\libraries\SmartResponseXE\SmartResponseXE.cpp ****   delay(50);
 488:C:\Users\Hexma\Documents\Arduino\hardware\SMART-Response-XE-Low_level-master\avr\libraries\SmartResponseXE\SmartResponseXE.cpp ****   mydigitalWrite(iResetPin, LOW);
 489:C:\Users\Hexma\Documents\Arduino\hardware\SMART-Response-XE-Low_level-master\avr\libraries\SmartResponseXE\SmartResponseXE.cpp ****   delay(5);
 490:C:\Users\Hexma\Documents\Arduino\hardware\SMART-Response-XE-Low_level-master\avr\libraries\SmartResponseXE\SmartResponseXE.cpp ****   mydigitalWrite(iResetPin, HIGH); // take it out of reset
 491:C:\Users\Hexma\Documents\Arduino\hardware\SMART-Response-XE-Low_level-master\avr\libraries\SmartResponseXE\SmartResponseXE.cpp ****   delay(150); // datasheet says it must be at least 120ms
 492:C:\Users\Hexma\Documents\Arduino\hardware\SMART-Response-XE-Low_level-master\avr\libraries\SmartResponseXE\SmartResponseXE.cpp **** 
 493:C:\Users\Hexma\Documents\Arduino\hardware\SMART-Response-XE-Low_level-master\avr\libraries\SmartResponseXE\SmartResponseXE.cpp ****   //  mydigitalWrite(iCSPin, LOW); // leave CS low forever
 494:C:\Users\Hexma\Documents\Arduino\hardware\SMART-Response-XE-Low_level-master\avr\libraries\SmartResponseXE\SmartResponseXE.cpp **** 
 495:C:\Users\Hexma\Documents\Arduino\hardware\SMART-Response-XE-Low_level-master\avr\libraries\SmartResponseXE\SmartResponseXE.cpp ****   SRXEPowerUp(); // turn on and initialize the display
 496:C:\Users\Hexma\Documents\Arduino\hardware\SMART-Response-XE-Low_level-master\avr\libraries\SmartResponseXE\SmartResponseXE.cpp **** 
 497:C:\Users\Hexma\Documents\Arduino\hardware\SMART-Response-XE-Low_level-master\avr\libraries\SmartResponseXE\SmartResponseXE.cpp ****   SRXEFill(0); // erase memory (it's already cleared by resetting it)
 498:C:\Users\Hexma\Documents\Arduino\hardware\SMART-Response-XE-Low_level-master\avr\libraries\SmartResponseXE\SmartResponseXE.cpp ****   return 0;
 499:C:\Users\Hexma\Documents\Arduino\hardware\SMART-Response-XE-Low_level-master\avr\libraries\SmartResponseXE\SmartResponseXE.cpp **** 
 500:C:\Users\Hexma\Documents\Arduino\hardware\SMART-Response-XE-Low_level-master\avr\libraries\SmartResponseXE\SmartResponseXE.cpp **** } /* SRXEInit() */
 501:C:\Users\Hexma\Documents\Arduino\hardware\SMART-Response-XE-Low_level-master\avr\libraries\SmartResponseXE\SmartResponseXE.cpp **** 
 502:C:\Users\Hexma\Documents\Arduino\hardware\SMART-Response-XE-Low_level-master\avr\libraries\SmartResponseXE\SmartResponseXE.cpp **** 
 503:C:\Users\Hexma\Documents\Arduino\hardware\SMART-Response-XE-Low_level-master\avr\libraries\SmartResponseXE\SmartResponseXE.cpp **** //
 504:C:\Users\Hexma\Documents\Arduino\hardware\SMART-Response-XE-Low_level-master\avr\libraries\SmartResponseXE\SmartResponseXE.cpp **** // Turn off the LCD display (lowest power mode)
 505:C:\Users\Hexma\Documents\Arduino\hardware\SMART-Response-XE-Low_level-master\avr\libraries\SmartResponseXE\SmartResponseXE.cpp **** //
GAS LISTING C:\Users\Hexma\AppData\Local\Temp\cc7G6F1c.s 			page 21


 506:C:\Users\Hexma\Documents\Arduino\hardware\SMART-Response-XE-Low_level-master\avr\libraries\SmartResponseXE\SmartResponseXE.cpp **** void SRXEPowerDown()
 507:C:\Users\Hexma\Documents\Arduino\hardware\SMART-Response-XE-Low_level-master\avr\libraries\SmartResponseXE\SmartResponseXE.cpp **** {
 508:C:\Users\Hexma\Documents\Arduino\hardware\SMART-Response-XE-Low_level-master\avr\libraries\SmartResponseXE\SmartResponseXE.cpp ****   SRXEFill(0); // fill memory with zeros to go to lowest power mode
 509:C:\Users\Hexma\Documents\Arduino\hardware\SMART-Response-XE-Low_level-master\avr\libraries\SmartResponseXE\SmartResponseXE.cpp ****   SRXEWriteCommand(0x28); // Display OFF
 510:C:\Users\Hexma\Documents\Arduino\hardware\SMART-Response-XE-Low_level-master\avr\libraries\SmartResponseXE\SmartResponseXE.cpp ****   SRXEWriteCommand(0x10); // Sleep in
 511:C:\Users\Hexma\Documents\Arduino\hardware\SMART-Response-XE-Low_level-master\avr\libraries\SmartResponseXE\SmartResponseXE.cpp **** } /* SRXEPowerDown() */
 512:C:\Users\Hexma\Documents\Arduino\hardware\SMART-Response-XE-Low_level-master\avr\libraries\SmartResponseXE\SmartResponseXE.cpp **** 
 513:C:\Users\Hexma\Documents\Arduino\hardware\SMART-Response-XE-Low_level-master\avr\libraries\SmartResponseXE\SmartResponseXE.cpp **** 
 514:C:\Users\Hexma\Documents\Arduino\hardware\SMART-Response-XE-Low_level-master\avr\libraries\SmartResponseXE\SmartResponseXE.cpp **** //
 515:C:\Users\Hexma\Documents\Arduino\hardware\SMART-Response-XE-Low_level-master\avr\libraries\SmartResponseXE\SmartResponseXE.cpp **** // Write a 1 byte command to the LCD controller
 516:C:\Users\Hexma\Documents\Arduino\hardware\SMART-Response-XE-Low_level-master\avr\libraries\SmartResponseXE\SmartResponseXE.cpp **** //
 517:C:\Users\Hexma\Documents\Arduino\hardware\SMART-Response-XE-Low_level-master\avr\libraries\SmartResponseXE\SmartResponseXE.cpp **** static void SRXEWriteCommand(unsigned char c)
 518:C:\Users\Hexma\Documents\Arduino\hardware\SMART-Response-XE-Low_level-master\avr\libraries\SmartResponseXE\SmartResponseXE.cpp **** {
 626               		.loc 1 518 0
 627               		.cfi_startproc
 628               	.LVL51:
 629 0000 1F93      		push r17
 630               	.LCFI21:
 631               		.cfi_def_cfa_offset 3
 632               		.cfi_offset 17, -2
 633 0002 CF93      		push r28
 634               	.LCFI22:
 635               		.cfi_def_cfa_offset 4
 636               		.cfi_offset 28, -3
 637 0004 DF93      		push r29
 638               	.LCFI23:
 639               		.cfi_def_cfa_offset 5
 640               		.cfi_offset 29, -4
 641               	/* prologue: function */
 642               	/* frame size = 0 */
 643               	/* stack size = 3 */
 644               	.L__stack_usage = 3
 645 0006 182F      		mov r17,r24
 519:C:\Users\Hexma\Documents\Arduino\hardware\SMART-Response-XE-Low_level-master\avr\libraries\SmartResponseXE\SmartResponseXE.cpp ****   mydigitalWrite(iCSPin, LOW);
 646               		.loc 1 519 0
 647 0008 C091 0000 		lds r28,_ZL6iCSPin
 648 000c 60E0      		ldi r22,0
 649 000e 8C2F      		mov r24,r28
 650               	.LVL52:
 651 0010 0E94 0000 		call _Z14mydigitalWritehh
 652               	.LVL53:
 653               	.LBB8:
 654               	.LBB9:
 415:C:\Users\Hexma\Documents\Arduino\hardware\SMART-Response-XE-Low_level-master\avr\libraries\SmartResponseXE\SmartResponseXE.cpp **** } /* SRXESetMode() */
 655               		.loc 1 415 0
 656 0014 D091 0000 		lds r29,_ZL6iDCPin
 657 0018 60E0      		ldi r22,0
 658 001a 8D2F      		mov r24,r29
 659 001c 0E94 0000 		call _Z14mydigitalWritehh
 660               	.LVL54:
 661               	.LBE9:
 662               	.LBE8:
 520:C:\Users\Hexma\Documents\Arduino\hardware\SMART-Response-XE-Low_level-master\avr\libraries\SmartResponseXE\SmartResponseXE.cpp ****   SRXESetMode(MODE_COMMAND);
 521:C:\Users\Hexma\Documents\Arduino\hardware\SMART-Response-XE-Low_level-master\avr\libraries\SmartResponseXE\SmartResponseXE.cpp ****   SPI_transfer(c);
 663               		.loc 1 521 0
 664 0020 812F      		mov r24,r17
 665 0022 0E94 0000 		call _Z12SPI_transferc
GAS LISTING C:\Users\Hexma\AppData\Local\Temp\cc7G6F1c.s 			page 22


 666               	.LVL55:
 667               	.LBB10:
 668               	.LBB11:
 415:C:\Users\Hexma\Documents\Arduino\hardware\SMART-Response-XE-Low_level-master\avr\libraries\SmartResponseXE\SmartResponseXE.cpp **** } /* SRXESetMode() */
 669               		.loc 1 415 0
 670 0026 61E0      		ldi r22,lo8(1)
 671 0028 8D2F      		mov r24,r29
 672 002a 0E94 0000 		call _Z14mydigitalWritehh
 673               	.LVL56:
 674               	.LBE11:
 675               	.LBE10:
 522:C:\Users\Hexma\Documents\Arduino\hardware\SMART-Response-XE-Low_level-master\avr\libraries\SmartResponseXE\SmartResponseXE.cpp ****   SRXESetMode(MODE_DATA);
 523:C:\Users\Hexma\Documents\Arduino\hardware\SMART-Response-XE-Low_level-master\avr\libraries\SmartResponseXE\SmartResponseXE.cpp ****   mydigitalWrite(iCSPin, HIGH);
 676               		.loc 1 523 0
 677 002e 61E0      		ldi r22,lo8(1)
 678 0030 8C2F      		mov r24,r28
 679               	/* epilogue start */
 524:C:\Users\Hexma\Documents\Arduino\hardware\SMART-Response-XE-Low_level-master\avr\libraries\SmartResponseXE\SmartResponseXE.cpp **** } /* SRXEWriteCommand() */
 680               		.loc 1 524 0
 681 0032 DF91      		pop r29
 682 0034 CF91      		pop r28
 683 0036 1F91      		pop r17
 684               	.LVL57:
 523:C:\Users\Hexma\Documents\Arduino\hardware\SMART-Response-XE-Low_level-master\avr\libraries\SmartResponseXE\SmartResponseXE.cpp **** } /* SRXEWriteCommand() */
 685               		.loc 1 523 0
 686 0038 0C94 0000 		jmp _Z14mydigitalWritehh
 687               	.LVL58:
 688               		.cfi_endproc
 689               	.LFE125:
 691               		.section	.text._Z18SRXEWriteDataBlockPhi,"ax",@progbits
 692               	.global	_Z18SRXEWriteDataBlockPhi
 694               	_Z18SRXEWriteDataBlockPhi:
 695               	.LFB121:
 422:C:\Users\Hexma\Documents\Arduino\hardware\SMART-Response-XE-Low_level-master\avr\libraries\SmartResponseXE\SmartResponseXE.cpp ****   int i;
 696               		.loc 1 422 0
 697               		.cfi_startproc
 698               	.LVL59:
 699 0000 CF92      		push r12
 700               	.LCFI24:
 701               		.cfi_def_cfa_offset 3
 702               		.cfi_offset 12, -2
 703 0002 DF92      		push r13
 704               	.LCFI25:
 705               		.cfi_def_cfa_offset 4
 706               		.cfi_offset 13, -3
 707 0004 EF92      		push r14
 708               	.LCFI26:
 709               		.cfi_def_cfa_offset 5
 710               		.cfi_offset 14, -4
 711 0006 FF92      		push r15
 712               	.LCFI27:
 713               		.cfi_def_cfa_offset 6
 714               		.cfi_offset 15, -5
 715 0008 1F93      		push r17
 716               	.LCFI28:
 717               		.cfi_def_cfa_offset 7
 718               		.cfi_offset 17, -6
GAS LISTING C:\Users\Hexma\AppData\Local\Temp\cc7G6F1c.s 			page 23


 719 000a CF93      		push r28
 720               	.LCFI29:
 721               		.cfi_def_cfa_offset 8
 722               		.cfi_offset 28, -7
 723 000c DF93      		push r29
 724               	.LCFI30:
 725               		.cfi_def_cfa_offset 9
 726               		.cfi_offset 29, -8
 727               	/* prologue: function */
 728               	/* frame size = 0 */
 729               	/* stack size = 7 */
 730               	.L__stack_usage = 7
 731 000e 7C01      		movw r14,r24
 732 0010 6B01      		movw r12,r22
 425:C:\Users\Hexma\Documents\Arduino\hardware\SMART-Response-XE-Low_level-master\avr\libraries\SmartResponseXE\SmartResponseXE.cpp ****   for (i = 0; i < iLen; i++)
 733               		.loc 1 425 0
 734 0012 1091 0000 		lds r17,_ZL6iCSPin
 735 0016 60E0      		ldi r22,0
 736               	.LVL60:
 737 0018 812F      		mov r24,r17
 738               	.LVL61:
 739 001a 0E94 0000 		call _Z14mydigitalWritehh
 740               	.LVL62:
 741 001e E701      		movw r28,r14
 742               	.LVL63:
 743               	.L39:
 426:C:\Users\Hexma\Documents\Arduino\hardware\SMART-Response-XE-Low_level-master\avr\libraries\SmartResponseXE\SmartResponseXE.cpp ****     SPI_transfer(ucBuf[i]);
 744               		.loc 1 426 0 discriminator 3
 745 0020 CE01      		movw r24,r28
 746 0022 8E19      		sub r24,r14
 747 0024 9F09      		sbc r25,r15
 748 0026 8C15      		cp r24,r12
 749 0028 9D05      		cpc r25,r13
 750 002a 04F4      		brge .L38
 427:C:\Users\Hexma\Documents\Arduino\hardware\SMART-Response-XE-Low_level-master\avr\libraries\SmartResponseXE\SmartResponseXE.cpp ****   mydigitalWrite(iCSPin, HIGH);
 751               		.loc 1 427 0 discriminator 2
 752 002c 8991      		ld r24,Y+
 753               	.LVL64:
 754 002e 0E94 0000 		call _Z12SPI_transferc
 755               	.LVL65:
 426:C:\Users\Hexma\Documents\Arduino\hardware\SMART-Response-XE-Low_level-master\avr\libraries\SmartResponseXE\SmartResponseXE.cpp ****     SPI_transfer(ucBuf[i]);
 756               		.loc 1 426 0 discriminator 2
 757 0032 00C0      		rjmp .L39
 758               	.L38:
 428:C:\Users\Hexma\Documents\Arduino\hardware\SMART-Response-XE-Low_level-master\avr\libraries\SmartResponseXE\SmartResponseXE.cpp **** }
 759               		.loc 1 428 0
 760 0034 61E0      		ldi r22,lo8(1)
 761 0036 812F      		mov r24,r17
 762               	/* epilogue start */
 429:C:\Users\Hexma\Documents\Arduino\hardware\SMART-Response-XE-Low_level-master\avr\libraries\SmartResponseXE\SmartResponseXE.cpp **** 
 763               		.loc 1 429 0
 764 0038 DF91      		pop r29
 765 003a CF91      		pop r28
 766               	.LVL66:
 767 003c 1F91      		pop r17
 768 003e FF90      		pop r15
 769 0040 EF90      		pop r14
GAS LISTING C:\Users\Hexma\AppData\Local\Temp\cc7G6F1c.s 			page 24


 770               	.LVL67:
 771 0042 DF90      		pop r13
 772 0044 CF90      		pop r12
 773               	.LVL68:
 428:C:\Users\Hexma\Documents\Arduino\hardware\SMART-Response-XE-Low_level-master\avr\libraries\SmartResponseXE\SmartResponseXE.cpp **** }
 774               		.loc 1 428 0
 775 0046 0C94 0000 		jmp _Z14mydigitalWritehh
 776               	.LVL69:
 777               		.cfi_endproc
 778               	.LFE121:
 780               		.section	.text._Z15SRXESetPositioniiii.part.0,"ax",@progbits
 782               	_Z15SRXESetPositioniiii.part.0:
 783               	.LFB144:
 525:C:\Users\Hexma\Documents\Arduino\hardware\SMART-Response-XE-Low_level-master\avr\libraries\SmartResponseXE\SmartResponseXE.cpp **** 
 526:C:\Users\Hexma\Documents\Arduino\hardware\SMART-Response-XE-Low_level-master\avr\libraries\SmartResponseXE\SmartResponseXE.cpp **** 
 527:C:\Users\Hexma\Documents\Arduino\hardware\SMART-Response-XE-Low_level-master\avr\libraries\SmartResponseXE\SmartResponseXE.cpp **** //
 528:C:\Users\Hexma\Documents\Arduino\hardware\SMART-Response-XE-Low_level-master\avr\libraries\SmartResponseXE\SmartResponseXE.cpp **** // Send commands to position the "cursor" to the given
 529:C:\Users\Hexma\Documents\Arduino\hardware\SMART-Response-XE-Low_level-master\avr\libraries\SmartResponseXE\SmartResponseXE.cpp **** // row and column
 530:C:\Users\Hexma\Documents\Arduino\hardware\SMART-Response-XE-Low_level-master\avr\libraries\SmartResponseXE\SmartResponseXE.cpp **** // Opens a window in the display RAM
 531:C:\Users\Hexma\Documents\Arduino\hardware\SMART-Response-XE-Low_level-master\avr\libraries\SmartResponseXE\SmartResponseXE.cpp **** // the windows starts @ x, y and it is cx wide and cy tall
 532:C:\Users\Hexma\Documents\Arduino\hardware\SMART-Response-XE-Low_level-master\avr\libraries\SmartResponseXE\SmartResponseXE.cpp **** // all the subsequent write cycles will be done in that window
 533:C:\Users\Hexma\Documents\Arduino\hardware\SMART-Response-XE-Low_level-master\avr\libraries\SmartResponseXE\SmartResponseXE.cpp **** //
 534:C:\Users\Hexma\Documents\Arduino\hardware\SMART-Response-XE-Low_level-master\avr\libraries\SmartResponseXE\SmartResponseXE.cpp **** void SRXESetPosition(int x, int y, int cx, int cy)
 784               		.loc 1 534 0
 785               		.cfi_startproc
 786               	.LVL70:
 787 0000 CF92      		push r12
 788               	.LCFI31:
 789               		.cfi_def_cfa_offset 3
 790               		.cfi_offset 12, -2
 791 0002 DF92      		push r13
 792               	.LCFI32:
 793               		.cfi_def_cfa_offset 4
 794               		.cfi_offset 13, -3
 795 0004 EF92      		push r14
 796               	.LCFI33:
 797               		.cfi_def_cfa_offset 5
 798               		.cfi_offset 14, -4
 799 0006 FF92      		push r15
 800               	.LCFI34:
 801               		.cfi_def_cfa_offset 6
 802               		.cfi_offset 15, -5
 803 0008 0F93      		push r16
 804               	.LCFI35:
 805               		.cfi_def_cfa_offset 7
 806               		.cfi_offset 16, -6
 807 000a 1F93      		push r17
 808               	.LCFI36:
 809               		.cfi_def_cfa_offset 8
 810               		.cfi_offset 17, -7
 811 000c CF93      		push r28
 812               	.LCFI37:
 813               		.cfi_def_cfa_offset 9
 814               		.cfi_offset 28, -8
 815 000e DF93      		push r29
 816               	.LCFI38:
 817               		.cfi_def_cfa_offset 10
GAS LISTING C:\Users\Hexma\AppData\Local\Temp\cc7G6F1c.s 			page 25


 818               		.cfi_offset 29, -9
 819 0010 00D0      		rcall .
 820 0012 00D0      		rcall .
 821               	.LCFI39:
 822               		.cfi_def_cfa_offset 14
 823 0014 CDB7      		in r28,__SP_L__
 824 0016 DEB7      		in r29,__SP_H__
 825               	.LCFI40:
 826               		.cfi_def_cfa_register 28
 827               	/* prologue: function */
 828               	/* frame size = 4 */
 829               	/* stack size = 12 */
 830               	.L__stack_usage = 12
 831 0018 8C01      		movw r16,r24
 832 001a E62E      		mov r14,r22
 833 001c 6A01      		movw r12,r20
 834 001e F22E      		mov r15,r18
 535:C:\Users\Hexma\Documents\Arduino\hardware\SMART-Response-XE-Low_level-master\avr\libraries\SmartResponseXE\SmartResponseXE.cpp **** {
 536:C:\Users\Hexma\Documents\Arduino\hardware\SMART-Response-XE-Low_level-master\avr\libraries\SmartResponseXE\SmartResponseXE.cpp ****   byte ucTemp[4];
 537:C:\Users\Hexma\Documents\Arduino\hardware\SMART-Response-XE-Low_level-master\avr\libraries\SmartResponseXE\SmartResponseXE.cpp **** 
 538:C:\Users\Hexma\Documents\Arduino\hardware\SMART-Response-XE-Low_level-master\avr\libraries\SmartResponseXE\SmartResponseXE.cpp ****   if (x > 383 || y > 159 || cx > 384 || cy > 160)
 539:C:\Users\Hexma\Documents\Arduino\hardware\SMART-Response-XE-Low_level-master\avr\libraries\SmartResponseXE\SmartResponseXE.cpp ****     return; // invalid
 540:C:\Users\Hexma\Documents\Arduino\hardware\SMART-Response-XE-Low_level-master\avr\libraries\SmartResponseXE\SmartResponseXE.cpp ****   SRXEWriteCommand(0x2a); // set column address
 835               		.loc 1 540 0
 836 0020 8AE2      		ldi r24,lo8(42)
 837               	.LVL71:
 838 0022 0E94 0000 		call _ZL16SRXEWriteCommandh
 839               	.LVL72:
 541:C:\Users\Hexma\Documents\Arduino\hardware\SMART-Response-XE-Low_level-master\avr\libraries\SmartResponseXE\SmartResponseXE.cpp ****   ucTemp[0] = 0; // start column high byte
 840               		.loc 1 541 0
 841 0026 1982      		std Y+1,__zero_reg__
 542:C:\Users\Hexma\Documents\Arduino\hardware\SMART-Response-XE-Low_level-master\avr\libraries\SmartResponseXE\SmartResponseXE.cpp ****   ucTemp[1] = x / 3; // start column low byte
 842               		.loc 1 542 0
 843 0028 23E0      		ldi r18,lo8(3)
 844 002a 30E0      		ldi r19,0
 845 002c C801      		movw r24,r16
 846 002e B901      		movw r22,r18
 847 0030 0E94 0000 		call __divmodhi4
 848 0034 6A83      		std Y+2,r22
 543:C:\Users\Hexma\Documents\Arduino\hardware\SMART-Response-XE-Low_level-master\avr\libraries\SmartResponseXE\SmartResponseXE.cpp ****   ucTemp[2] = 0; // end col high byte
 849               		.loc 1 543 0
 850 0036 1B82      		std Y+3,__zero_reg__
 544:C:\Users\Hexma\Documents\Arduino\hardware\SMART-Response-XE-Low_level-master\avr\libraries\SmartResponseXE\SmartResponseXE.cpp ****   ucTemp[3] = (x + cx - 1) / 3; // end col low byte
 851               		.loc 1 544 0
 852 0038 C801      		movw r24,r16
 853 003a 8C0D      		add r24,r12
 854 003c 9D1D      		adc r25,r13
 855 003e 0197      		sbiw r24,1
 856 0040 B901      		movw r22,r18
 857 0042 0E94 0000 		call __divmodhi4
 858 0046 6C83      		std Y+4,r22
 545:C:\Users\Hexma\Documents\Arduino\hardware\SMART-Response-XE-Low_level-master\avr\libraries\SmartResponseXE\SmartResponseXE.cpp ****   SRXEWriteDataBlock(ucTemp, 4);
 859               		.loc 1 545 0
 860 0048 64E0      		ldi r22,lo8(4)
 861 004a 70E0      		ldi r23,0
 862 004c CE01      		movw r24,r28
 863 004e 0196      		adiw r24,1
GAS LISTING C:\Users\Hexma\AppData\Local\Temp\cc7G6F1c.s 			page 26


 864 0050 0E94 0000 		call _Z18SRXEWriteDataBlockPhi
 865               	.LVL73:
 546:C:\Users\Hexma\Documents\Arduino\hardware\SMART-Response-XE-Low_level-master\avr\libraries\SmartResponseXE\SmartResponseXE.cpp ****   SRXEWriteCommand(0x2b); // set row address
 866               		.loc 1 546 0
 867 0054 8BE2      		ldi r24,lo8(43)
 868 0056 0E94 0000 		call _ZL16SRXEWriteCommandh
 869               	.LVL74:
 547:C:\Users\Hexma\Documents\Arduino\hardware\SMART-Response-XE-Low_level-master\avr\libraries\SmartResponseXE\SmartResponseXE.cpp ****   ucTemp[0] = 0; // start row high byte
 870               		.loc 1 547 0
 871 005a 1982      		std Y+1,__zero_reg__
 548:C:\Users\Hexma\Documents\Arduino\hardware\SMART-Response-XE-Low_level-master\avr\libraries\SmartResponseXE\SmartResponseXE.cpp ****   ucTemp[1] = y; // start row low byte
 872               		.loc 1 548 0
 873 005c EA82      		std Y+2,r14
 549:C:\Users\Hexma\Documents\Arduino\hardware\SMART-Response-XE-Low_level-master\avr\libraries\SmartResponseXE\SmartResponseXE.cpp ****   ucTemp[2] = 0; // end row high byte
 874               		.loc 1 549 0
 875 005e 1B82      		std Y+3,__zero_reg__
 550:C:\Users\Hexma\Documents\Arduino\hardware\SMART-Response-XE-Low_level-master\avr\libraries\SmartResponseXE\SmartResponseXE.cpp ****   ucTemp[3] = y + cy - 1; // end row low byte
 876               		.loc 1 550 0
 877 0060 FA94      		dec r15
 878 0062 FE0C      		add r15,r14
 879 0064 FC82      		std Y+4,r15
 551:C:\Users\Hexma\Documents\Arduino\hardware\SMART-Response-XE-Low_level-master\avr\libraries\SmartResponseXE\SmartResponseXE.cpp ****   SRXEWriteDataBlock(ucTemp, 4);
 880               		.loc 1 551 0
 881 0066 64E0      		ldi r22,lo8(4)
 882 0068 70E0      		ldi r23,0
 883 006a CE01      		movw r24,r28
 884 006c 0196      		adiw r24,1
 885 006e 0E94 0000 		call _Z18SRXEWriteDataBlockPhi
 886               	.LVL75:
 552:C:\Users\Hexma\Documents\Arduino\hardware\SMART-Response-XE-Low_level-master\avr\libraries\SmartResponseXE\SmartResponseXE.cpp ****   SRXEWriteCommand(0x2c); // write RAM
 887               		.loc 1 552 0
 888 0072 8CE2      		ldi r24,lo8(44)
 889 0074 0E94 0000 		call _ZL16SRXEWriteCommandh
 890               	.LVL76:
 891               	/* epilogue start */
 553:C:\Users\Hexma\Documents\Arduino\hardware\SMART-Response-XE-Low_level-master\avr\libraries\SmartResponseXE\SmartResponseXE.cpp **** } /* SRXESetPosition() */
 892               		.loc 1 553 0
 893 0078 0F90      		pop __tmp_reg__
 894 007a 0F90      		pop __tmp_reg__
 895 007c 0F90      		pop __tmp_reg__
 896 007e 0F90      		pop __tmp_reg__
 897 0080 DF91      		pop r29
 898 0082 CF91      		pop r28
 899 0084 1F91      		pop r17
 900 0086 0F91      		pop r16
 901               	.LVL77:
 902 0088 FF90      		pop r15
 903 008a EF90      		pop r14
 904 008c DF90      		pop r13
 905 008e CF90      		pop r12
 906               	.LVL78:
 907 0090 0895      		ret
 908               		.cfi_endproc
 909               	.LFE144:
 911               		.section	.text._Z11SRXEPowerUpv,"ax",@progbits
 912               	.global	_Z11SRXEPowerUpv
 914               	_Z11SRXEPowerUpv:
GAS LISTING C:\Users\Hexma\AppData\Local\Temp\cc7G6F1c.s 			page 27


 915               	.LFB122:
 436:C:\Users\Hexma\Documents\Arduino\hardware\SMART-Response-XE-Low_level-master\avr\libraries\SmartResponseXE\SmartResponseXE.cpp ****   uint8_t ucTemp[4];
 916               		.loc 1 436 0
 917               		.cfi_startproc
 918 0000 EF92      		push r14
 919               	.LCFI41:
 920               		.cfi_def_cfa_offset 3
 921               		.cfi_offset 14, -2
 922 0002 FF92      		push r15
 923               	.LCFI42:
 924               		.cfi_def_cfa_offset 4
 925               		.cfi_offset 15, -3
 926 0004 0F93      		push r16
 927               	.LCFI43:
 928               		.cfi_def_cfa_offset 5
 929               		.cfi_offset 16, -4
 930 0006 1F93      		push r17
 931               	.LCFI44:
 932               		.cfi_def_cfa_offset 6
 933               		.cfi_offset 17, -5
 934 0008 CF93      		push r28
 935               	.LCFI45:
 936               		.cfi_def_cfa_offset 7
 937               		.cfi_offset 28, -6
 938 000a DF93      		push r29
 939               	.LCFI46:
 940               		.cfi_def_cfa_offset 8
 941               		.cfi_offset 29, -7
 942 000c 00D0      		rcall .
 943 000e 00D0      		rcall .
 944               	.LCFI47:
 945               		.cfi_def_cfa_offset 12
 946 0010 CDB7      		in r28,__SP_L__
 947 0012 DEB7      		in r29,__SP_H__
 948               	.LCFI48:
 949               		.cfi_def_cfa_register 28
 950               	/* prologue: function */
 951               	/* frame size = 4 */
 952               	/* stack size = 10 */
 953               	.L__stack_usage = 10
 954               	.LVL79:
 438:C:\Users\Hexma\Documents\Arduino\hardware\SMART-Response-XE-Low_level-master\avr\libraries\SmartResponseXE\SmartResponseXE.cpp ****   uint8_t val, count, len = 1;
 955               		.loc 1 438 0
 956 0014 80E0      		ldi r24,lo8(_ZL7powerup)
 957 0016 E82E      		mov r14,r24
 958 0018 80E0      		ldi r24,hi8(_ZL7powerup)
 959 001a F82E      		mov r15,r24
 960               	.LVL80:
 961               	.L42:
 962               	.LBB12:
 443:C:\Users\Hexma\Documents\Arduino\hardware\SMART-Response-XE-Low_level-master\avr\libraries\SmartResponseXE\SmartResponseXE.cpp ****     if (len == 99) // delay
 963               		.loc 1 443 0
 964 001c C701      		movw r24,r14
 965 001e 0196      		adiw r24,1
 966               	.LVL81:
 967 0020 F701      		movw r30,r14
 968               	/* #APP */
GAS LISTING C:\Users\Hexma\AppData\Local\Temp\cc7G6F1c.s 			page 28


 969               	 ;  443 "C:\Users\Hexma\Documents\Arduino\hardware\SMART-Response-XE-Low_level-master\avr\libraries
 970 0022 0491      		lpm r16, Z
 971               		
 972               	 ;  0 "" 2
 973               	.LVL82:
 974               	/* #NOAPP */
 975               	.LBE12:
 976               	.LBB13:
 444:C:\Users\Hexma\Documents\Arduino\hardware\SMART-Response-XE-Low_level-master\avr\libraries\SmartResponseXE\SmartResponseXE.cpp ****     {
 977               		.loc 1 444 0
 978 0024 0336      		cpi r16,lo8(99)
 979 0026 01F4      		brne .L43
 980               	.LBB14:
 981               	.LBB15:
 446:C:\Users\Hexma\Documents\Arduino\hardware\SMART-Response-XE-Low_level-master\avr\libraries\SmartResponseXE\SmartResponseXE.cpp ****       delay(val);
 982               		.loc 1 446 0
 983 0028 F2E0      		ldi r31,2
 984 002a EF0E      		add r14,r31
 985 002c F11C      		adc r15,__zero_reg__
 986               	.LVL83:
 987 002e FC01      		movw r30,r24
 988               	.LVL84:
 989               	/* #APP */
 990               	 ;  446 "C:\Users\Hexma\Documents\Arduino\hardware\SMART-Response-XE-Low_level-master\avr\libraries
 991 0030 6491      		lpm r22, Z
 992               		
 993               	 ;  0 "" 2
 994               	.LVL85:
 995               	/* #NOAPP */
 996               	.LBE15:
 447:C:\Users\Hexma\Documents\Arduino\hardware\SMART-Response-XE-Low_level-master\avr\libraries\SmartResponseXE\SmartResponseXE.cpp ****     }
 997               		.loc 1 447 0
 998 0032 70E0      		ldi r23,0
 999 0034 90E0      		ldi r25,0
 1000 0036 80E0      		ldi r24,0
 1001               	.LVL86:
 1002 0038 0E94 0000 		call delay
 1003               	.LVL87:
 1004 003c 00C0      		rjmp .L42
 1005               	.LVL88:
 1006               	.L43:
 1007               	.LBE14:
 1008               	.LBB16:
 449:C:\Users\Hexma\Documents\Arduino\hardware\SMART-Response-XE-Low_level-master\avr\libraries\SmartResponseXE\SmartResponseXE.cpp ****     {
 1009               		.loc 1 449 0
 1010 003e 0023      		tst r16
 1011 0040 01F0      		breq .L41
 1012               	.LBB17:
 1013               	.LBB18:
 451:C:\Users\Hexma\Documents\Arduino\hardware\SMART-Response-XE-Low_level-master\avr\libraries\SmartResponseXE\SmartResponseXE.cpp ****       SRXEWriteCommand(val);
 1014               		.loc 1 451 0
 1015 0042 F2E0      		ldi r31,2
 1016 0044 EF0E      		add r14,r31
 1017 0046 F11C      		adc r15,__zero_reg__
 1018               	.LVL89:
 1019 0048 FC01      		movw r30,r24
 1020               	.LVL90:
GAS LISTING C:\Users\Hexma\AppData\Local\Temp\cc7G6F1c.s 			page 29


 1021               	/* #APP */
 1022               	 ;  451 "C:\Users\Hexma\Documents\Arduino\hardware\SMART-Response-XE-Low_level-master\avr\libraries
 1023 004a 8491      		lpm r24, Z
 1024               		
 1025               	 ;  0 "" 2
 1026               	.LVL91:
 1027               	/* #NOAPP */
 1028               	.LBE18:
 452:C:\Users\Hexma\Documents\Arduino\hardware\SMART-Response-XE-Low_level-master\avr\libraries\SmartResponseXE\SmartResponseXE.cpp ****       count = len - 1;
 1029               		.loc 1 452 0
 1030 004c 0E94 0000 		call _ZL16SRXEWriteCommandh
 1031               	.LVL92:
 453:C:\Users\Hexma\Documents\Arduino\hardware\SMART-Response-XE-Low_level-master\avr\libraries\SmartResponseXE\SmartResponseXE.cpp ****       if (count != 0)
 1032               		.loc 1 453 0
 1033 0050 0150      		subi r16,lo8(-(-1))
 1034               	.LVL93:
 454:C:\Users\Hexma\Documents\Arduino\hardware\SMART-Response-XE-Low_level-master\avr\libraries\SmartResponseXE\SmartResponseXE.cpp ****       {
 1035               		.loc 1 454 0
 1036 0052 01F0      		breq .L42
 456:C:\Users\Hexma\Documents\Arduino\hardware\SMART-Response-XE-Low_level-master\avr\libraries\SmartResponseXE\SmartResponseXE.cpp ****         pList += count;
 1037               		.loc 1 456 0
 1038 0054 10E0      		ldi r17,0
 1039 0056 A801      		movw r20,r16
 1040 0058 B701      		movw r22,r14
 1041 005a CE01      		movw r24,r28
 1042 005c 0196      		adiw r24,1
 1043 005e 0E94 0000 		call memcpy_P
 1044               	.LVL94:
 457:C:\Users\Hexma\Documents\Arduino\hardware\SMART-Response-XE-Low_level-master\avr\libraries\SmartResponseXE\SmartResponseXE.cpp ****         SRXEWriteDataBlock(ucTemp, count);
 1045               		.loc 1 457 0
 1046 0062 E00E      		add r14,r16
 1047 0064 F11E      		adc r15,r17
 1048               	.LVL95:
 458:C:\Users\Hexma\Documents\Arduino\hardware\SMART-Response-XE-Low_level-master\avr\libraries\SmartResponseXE\SmartResponseXE.cpp ****       }
 1049               		.loc 1 458 0
 1050 0066 B801      		movw r22,r16
 1051 0068 CE01      		movw r24,r28
 1052 006a 0196      		adiw r24,1
 1053 006c 0E94 0000 		call _Z18SRXEWriteDataBlockPhi
 1054               	.LVL96:
 1055               	.LBE17:
 1056               	.LBE16:
 1057               	.LBE13:
 1058 0070 00C0      		rjmp .L42
 1059               	.LVL97:
 1060               	.L41:
 1061               	/* epilogue start */
 462:C:\Users\Hexma\Documents\Arduino\hardware\SMART-Response-XE-Low_level-master\avr\libraries\SmartResponseXE\SmartResponseXE.cpp **** 
 1062               		.loc 1 462 0
 1063 0072 0F90      		pop __tmp_reg__
 1064 0074 0F90      		pop __tmp_reg__
 1065 0076 0F90      		pop __tmp_reg__
 1066 0078 0F90      		pop __tmp_reg__
 1067 007a DF91      		pop r29
 1068 007c CF91      		pop r28
 1069 007e 1F91      		pop r17
 1070 0080 0F91      		pop r16
GAS LISTING C:\Users\Hexma\AppData\Local\Temp\cc7G6F1c.s 			page 30


 1071               	.LVL98:
 1072 0082 FF90      		pop r15
 1073 0084 EF90      		pop r14
 1074               	.LVL99:
 1075 0086 0895      		ret
 1076               		.cfi_endproc
 1077               	.LFE122:
 1079               		.section	.text._Z15SRXESetPositioniiii,"ax",@progbits
 1080               	.global	_Z15SRXESetPositioniiii
 1082               	_Z15SRXESetPositioniiii:
 1083               	.LFB126:
 535:C:\Users\Hexma\Documents\Arduino\hardware\SMART-Response-XE-Low_level-master\avr\libraries\SmartResponseXE\SmartResponseXE.cpp ****   byte ucTemp[4];
 1084               		.loc 1 535 0
 1085               		.cfi_startproc
 1086               	.LVL100:
 1087               	/* prologue: function */
 1088               	/* frame size = 0 */
 1089               	/* stack size = 0 */
 1090               	.L__stack_usage = 0
 538:C:\Users\Hexma\Documents\Arduino\hardware\SMART-Response-XE-Low_level-master\avr\libraries\SmartResponseXE\SmartResponseXE.cpp ****     return; // invalid
 1091               		.loc 1 538 0
 1092 0000 8038      		cpi r24,-128
 1093 0002 E1E0      		ldi r30,1
 1094 0004 9E07      		cpc r25,r30
 1095 0006 04F4      		brge .L49
 538:C:\Users\Hexma\Documents\Arduino\hardware\SMART-Response-XE-Low_level-master\avr\libraries\SmartResponseXE\SmartResponseXE.cpp ****     return; // invalid
 1096               		.loc 1 538 0 is_stmt 0 discriminator 1
 1097 0008 603A      		cpi r22,-96
 1098 000a 7105      		cpc r23,__zero_reg__
 1099 000c 04F4      		brge .L49
 538:C:\Users\Hexma\Documents\Arduino\hardware\SMART-Response-XE-Low_level-master\avr\libraries\SmartResponseXE\SmartResponseXE.cpp ****     return; // invalid
 1100               		.loc 1 538 0 discriminator 2
 1101 000e 4138      		cpi r20,-127
 1102 0010 E1E0      		ldi r30,1
 1103 0012 5E07      		cpc r21,r30
 1104 0014 04F4      		brge .L49
 538:C:\Users\Hexma\Documents\Arduino\hardware\SMART-Response-XE-Low_level-master\avr\libraries\SmartResponseXE\SmartResponseXE.cpp ****     return; // invalid
 1105               		.loc 1 538 0 discriminator 3
 1106 0016 213A      		cpi r18,-95
 1107 0018 3105      		cpc r19,__zero_reg__
 1108 001a 04F4      		brge .L49
 1109 001c 0C94 0000 		jmp _Z15SRXESetPositioniiii.part.0
 1110               	.LVL101:
 1111               	.L49:
 1112               	/* epilogue start */
 1113               		.loc 1 553 0 is_stmt 1
 1114 0020 0895      		ret
 1115               		.cfi_endproc
 1116               	.LFE126:
 1118               		.section	.text._Z17SRXELoadBitmapRLEiiPKh,"ax",@progbits
 1119               	.global	_Z17SRXELoadBitmapRLEiiPKh
 1121               	_Z17SRXELoadBitmapRLEiiPKh:
 1122               	.LFB127:
 554:C:\Users\Hexma\Documents\Arduino\hardware\SMART-Response-XE-Low_level-master\avr\libraries\SmartResponseXE\SmartResponseXE.cpp **** 
 555:C:\Users\Hexma\Documents\Arduino\hardware\SMART-Response-XE-Low_level-master\avr\libraries\SmartResponseXE\SmartResponseXE.cpp **** 
 556:C:\Users\Hexma\Documents\Arduino\hardware\SMART-Response-XE-Low_level-master\avr\libraries\SmartResponseXE\SmartResponseXE.cpp **** //    SRXELoadBitmapRLE
 557:C:\Users\Hexma\Documents\Arduino\hardware\SMART-Response-XE-Low_level-master\avr\libraries\SmartResponseXE\SmartResponseXE.cpp **** //  load a bitmap in the display RAM
GAS LISTING C:\Users\Hexma\AppData\Local\Temp\cc7G6F1c.s 			page 31


 558:C:\Users\Hexma\Documents\Arduino\hardware\SMART-Response-XE-Low_level-master\avr\libraries\SmartResponseXE\SmartResponseXE.cpp **** //  input
 559:C:\Users\Hexma\Documents\Arduino\hardware\SMART-Response-XE-Low_level-master\avr\libraries\SmartResponseXE\SmartResponseXE.cpp **** //    x, y coordinate of top left in the display
 560:C:\Users\Hexma\Documents\Arduino\hardware\SMART-Response-XE-Low_level-master\avr\libraries\SmartResponseXE\SmartResponseXE.cpp **** //    btmp array containing the bitmap compressed with RLE
 561:C:\Users\Hexma\Documents\Arduino\hardware\SMART-Response-XE-Low_level-master\avr\libraries\SmartResponseXE\SmartResponseXE.cpp **** //
 562:C:\Users\Hexma\Documents\Arduino\hardware\SMART-Response-XE-Low_level-master\avr\libraries\SmartResponseXE\SmartResponseXE.cpp **** void SRXELoadBitmapRLE(int x, int y, const uint8_t *btmp){
 1123               		.loc 1 562 0
 1124               		.cfi_startproc
 1125               	.LVL102:
 1126 0000 EF92      		push r14
 1127               	.LCFI49:
 1128               		.cfi_def_cfa_offset 3
 1129               		.cfi_offset 14, -2
 1130 0002 FF92      		push r15
 1131               	.LCFI50:
 1132               		.cfi_def_cfa_offset 4
 1133               		.cfi_offset 15, -3
 1134 0004 0F93      		push r16
 1135               	.LCFI51:
 1136               		.cfi_def_cfa_offset 5
 1137               		.cfi_offset 16, -4
 1138 0006 1F93      		push r17
 1139               	.LCFI52:
 1140               		.cfi_def_cfa_offset 6
 1141               		.cfi_offset 17, -5
 1142 0008 CF93      		push r28
 1143               	.LCFI53:
 1144               		.cfi_def_cfa_offset 7
 1145               		.cfi_offset 28, -6
 1146 000a DF93      		push r29
 1147               	.LCFI54:
 1148               		.cfi_def_cfa_offset 8
 1149               		.cfi_offset 29, -7
 1150               	/* prologue: function */
 1151               	/* frame size = 0 */
 1152               	/* stack size = 6 */
 1153               	.L__stack_usage = 6
 1154 000c DC01      		movw r26,r24
 1155 000e EA01      		movw r28,r20
 1156               	.LVL103:
 1157               	.LBB19:
 563:C:\Users\Hexma\Documents\Arduino\hardware\SMART-Response-XE-Low_level-master\avr\libraries\SmartResponseXE\SmartResponseXE.cpp ****   int width, height, index=0;
 564:C:\Users\Hexma\Documents\Arduino\hardware\SMART-Response-XE-Low_level-master\avr\libraries\SmartResponseXE\SmartResponseXE.cpp ****   unsigned char length, value;
 565:C:\Users\Hexma\Documents\Arduino\hardware\SMART-Response-XE-Low_level-master\avr\libraries\SmartResponseXE\SmartResponseXE.cpp **** 
 566:C:\Users\Hexma\Documents\Arduino\hardware\SMART-Response-XE-Low_level-master\avr\libraries\SmartResponseXE\SmartResponseXE.cpp ****   width = pgm_read_byte_near(btmp+index++) + (pgm_read_byte_near(btmp+index++) <<8);
 1158               		.loc 1 566 0
 1159 0010 FA01      		movw r30,r20
 1160               	/* #APP */
 1161               	 ;  566 "C:\Users\Hexma\Documents\Arduino\hardware\SMART-Response-XE-Low_level-master\avr\libraries
 1162 0012 1491      		lpm r17, Z
 1163               		
 1164               	 ;  0 "" 2
 1165               	.LVL104:
 1166               	/* #NOAPP */
 1167               	.LBE19:
 1168               	.LBB20:
 1169 0014 3196      		adiw r30,1
 1170               	/* #APP */
GAS LISTING C:\Users\Hexma\AppData\Local\Temp\cc7G6F1c.s 			page 32


 1171               	 ;  566 "C:\Users\Hexma\Documents\Arduino\hardware\SMART-Response-XE-Low_level-master\avr\libraries
 1172 0016 9491      		lpm r25, Z
 1173               		
 1174               	 ;  0 "" 2
 1175               	.LVL105:
 1176               	/* #NOAPP */
 1177               	.LBE20:
 1178               	.LBB21:
 567:C:\Users\Hexma\Documents\Arduino\hardware\SMART-Response-XE-Low_level-master\avr\libraries\SmartResponseXE\SmartResponseXE.cpp ****   height = pgm_read_byte_near(btmp+index++)  + (pgm_read_byte_near(btmp+index++) <<8);
 1179               		.loc 1 567 0
 1180 0018 3196      		adiw r30,1
 1181               	/* #APP */
 1182               	 ;  567 "C:\Users\Hexma\Documents\Arduino\hardware\SMART-Response-XE-Low_level-master\avr\libraries
 1183 001a 8491      		lpm r24, Z
 1184               		
 1185               	 ;  0 "" 2
 1186               	.LVL106:
 1187               	/* #NOAPP */
 1188               	.LBE21:
 1189               	.LBB22:
 1190 001c 3196      		adiw r30,1
 1191               	/* #APP */
 1192               	 ;  567 "C:\Users\Hexma\Documents\Arduino\hardware\SMART-Response-XE-Low_level-master\avr\libraries
 1193 001e E491      		lpm r30, Z
 1194               		
 1195               	 ;  0 "" 2
 1196               	.LVL107:
 1197               	/* #NOAPP */
 1198               	.LBE22:
 1199 0020 2E2F      		mov r18,r30
 1200 0022 30E0      		ldi r19,0
 1201 0024 322F      		mov r19,r18
 1202 0026 2227      		clr r18
 1203               	.LVL108:
 1204 0028 280F      		add r18,r24
 1205 002a 311D      		adc r19,__zero_reg__
 566:C:\Users\Hexma\Documents\Arduino\hardware\SMART-Response-XE-Low_level-master\avr\libraries\SmartResponseXE\SmartResponseXE.cpp ****   height = pgm_read_byte_near(btmp+index++)  + (pgm_read_byte_near(btmp+index++) <<8);
 1206               		.loc 1 566 0
 1207 002c 492F      		mov r20,r25
 1208 002e 50E0      		ldi r21,0
 1209 0030 542F      		mov r21,r20
 1210 0032 4427      		clr r20
 1211               	.LVL109:
 1212 0034 410F      		add r20,r17
 1213 0036 511D      		adc r21,__zero_reg__
 568:C:\Users\Hexma\Documents\Arduino\hardware\SMART-Response-XE-Low_level-master\avr\libraries\SmartResponseXE\SmartResponseXE.cpp ****   SRXESetPosition(x, y, width, height);
 1214               		.loc 1 568 0
 1215 0038 CD01      		movw r24,r26
 1216               	.LVL110:
 1217 003a 0E94 0000 		call _Z15SRXESetPositioniiii
 1218               	.LVL111:
 569:C:\Users\Hexma\Documents\Arduino\hardware\SMART-Response-XE-Low_level-master\avr\libraries\SmartResponseXE\SmartResponseXE.cpp ****   mydigitalWrite(iCSPin, LOW);
 1219               		.loc 1 569 0
 1220 003e F090 0000 		lds r15,_ZL6iCSPin
 1221 0042 60E0      		ldi r22,0
 1222 0044 8F2D      		mov r24,r15
 1223 0046 0E94 0000 		call _Z14mydigitalWritehh
GAS LISTING C:\Users\Hexma\AppData\Local\Temp\cc7G6F1c.s 			page 33


 1224               	.LVL112:
 1225 004a 2496      		adiw r28,4
 1226               	.LVL113:
 1227               	.L54:
 1228               	.LBB23:
 570:C:\Users\Hexma\Documents\Arduino\hardware\SMART-Response-XE-Low_level-master\avr\libraries\SmartResponseXE\SmartResponseXE.cpp ****   while(length = pgm_read_byte_near(btmp+index++) ){
 1229               		.loc 1 570 0
 1230 004c FE01      		movw r30,r28
 1231               	/* #APP */
 1232               	 ;  570 "C:\Users\Hexma\Documents\Arduino\hardware\SMART-Response-XE-Low_level-master\avr\libraries
 1233 004e E490      		lpm r14, Z
 1234               		
 1235               	 ;  0 "" 2
 1236               	.LVL114:
 1237               	/* #NOAPP */
 1238               	.LBE23:
 1239 0050 EE20      		tst r14
 1240 0052 01F0      		breq .L52
 1241               	.LVL115:
 1242               	.LBB24:
 571:C:\Users\Hexma\Documents\Arduino\hardware\SMART-Response-XE-Low_level-master\avr\libraries\SmartResponseXE\SmartResponseXE.cpp ****     value = pgm_read_byte_near(btmp+index++) ;
 1243               		.loc 1 571 0
 1244 0054 3196      		adiw r30,1
 1245               	.LVL116:
 1246               	/* #APP */
 1247               	 ;  571 "C:\Users\Hexma\Documents\Arduino\hardware\SMART-Response-XE-Low_level-master\avr\libraries
 1248 0056 0491      		lpm r16, Z
 1249               		
 1250               	 ;  0 "" 2
 1251               	.LVL117:
 1252               	/* #NOAPP */
 1253               	.LBE24:
 1254               	.LBB25:
 572:C:\Users\Hexma\Documents\Arduino\hardware\SMART-Response-XE-Low_level-master\avr\libraries\SmartResponseXE\SmartResponseXE.cpp ****     for(unsigned char count=0; count<length; count++){
 1255               		.loc 1 572 0
 1256 0058 10E0      		ldi r17,0
 1257               	.LVL118:
 1258               	.L53:
 573:C:\Users\Hexma\Documents\Arduino\hardware\SMART-Response-XE-Low_level-master\avr\libraries\SmartResponseXE\SmartResponseXE.cpp ****       SPI_transfer(value);
 1259               		.loc 1 573 0 discriminator 2
 1260 005a 802F      		mov r24,r16
 1261 005c 0E94 0000 		call _Z12SPI_transferc
 1262               	.LVL119:
 572:C:\Users\Hexma\Documents\Arduino\hardware\SMART-Response-XE-Low_level-master\avr\libraries\SmartResponseXE\SmartResponseXE.cpp ****     for(unsigned char count=0; count<length; count++){
 1263               		.loc 1 572 0 discriminator 2
 1264 0060 1F5F      		subi r17,lo8(-(1))
 1265               	.LVL120:
 1266 0062 E112      		cpse r14,r17
 1267 0064 00C0      		rjmp .L53
 1268 0066 2296      		adiw r28,2
 1269               	.LVL121:
 1270 0068 00C0      		rjmp .L54
 1271               	.LVL122:
 1272               	.L52:
 1273               	.LBE25:
 574:C:\Users\Hexma\Documents\Arduino\hardware\SMART-Response-XE-Low_level-master\avr\libraries\SmartResponseXE\SmartResponseXE.cpp ****     }
 575:C:\Users\Hexma\Documents\Arduino\hardware\SMART-Response-XE-Low_level-master\avr\libraries\SmartResponseXE\SmartResponseXE.cpp ****   }
GAS LISTING C:\Users\Hexma\AppData\Local\Temp\cc7G6F1c.s 			page 34


 576:C:\Users\Hexma\Documents\Arduino\hardware\SMART-Response-XE-Low_level-master\avr\libraries\SmartResponseXE\SmartResponseXE.cpp ****   mydigitalWrite(iCSPin, HIGH);
 1274               		.loc 1 576 0
 1275 006a 61E0      		ldi r22,lo8(1)
 1276 006c 8F2D      		mov r24,r15
 1277               	/* epilogue start */
 577:C:\Users\Hexma\Documents\Arduino\hardware\SMART-Response-XE-Low_level-master\avr\libraries\SmartResponseXE\SmartResponseXE.cpp **** }
 1278               		.loc 1 577 0
 1279 006e DF91      		pop r29
 1280 0070 CF91      		pop r28
 1281               	.LVL123:
 1282 0072 1F91      		pop r17
 1283 0074 0F91      		pop r16
 1284 0076 FF90      		pop r15
 1285 0078 EF90      		pop r14
 1286               	.LVL124:
 576:C:\Users\Hexma\Documents\Arduino\hardware\SMART-Response-XE-Low_level-master\avr\libraries\SmartResponseXE\SmartResponseXE.cpp **** }
 1287               		.loc 1 576 0
 1288 007a 0C94 0000 		jmp _Z14mydigitalWritehh
 1289               	.LVL125:
 1290               		.cfi_endproc
 1291               	.LFE127:
 1293               		.section	.text._Z15SRXEIncreaseVopv,"ax",@progbits
 1294               	.global	_Z15SRXEIncreaseVopv
 1296               	_Z15SRXEIncreaseVopv:
 1297               	.LFB128:
 578:C:\Users\Hexma\Documents\Arduino\hardware\SMART-Response-XE-Low_level-master\avr\libraries\SmartResponseXE\SmartResponseXE.cpp **** 
 579:C:\Users\Hexma\Documents\Arduino\hardware\SMART-Response-XE-Low_level-master\avr\libraries\SmartResponseXE\SmartResponseXE.cpp **** // SRXEIncreaseVop
 580:C:\Users\Hexma\Documents\Arduino\hardware\SMART-Response-XE-Low_level-master\avr\libraries\SmartResponseXE\SmartResponseXE.cpp **** //
 581:C:\Users\Hexma\Documents\Arduino\hardware\SMART-Response-XE-Low_level-master\avr\libraries\SmartResponseXE\SmartResponseXE.cpp **** void SRXEIncreaseVop(void){
 1298               		.loc 1 581 0
 1299               		.cfi_startproc
 1300               	/* prologue: function */
 1301               	/* frame size = 0 */
 1302               	/* stack size = 0 */
 1303               	.L__stack_usage = 0
 582:C:\Users\Hexma\Documents\Arduino\hardware\SMART-Response-XE-Low_level-master\avr\libraries\SmartResponseXE\SmartResponseXE.cpp ****   SRXEWriteCommand(0xc1);
 1304               		.loc 1 582 0
 1305 0000 81EC      		ldi r24,lo8(-63)
 1306 0002 0C94 0000 		jmp _ZL16SRXEWriteCommandh
 1307               	.LVL126:
 1308               		.cfi_endproc
 1309               	.LFE128:
 1311               		.section	.text._Z15SRXEDecreaseVopv,"ax",@progbits
 1312               	.global	_Z15SRXEDecreaseVopv
 1314               	_Z15SRXEDecreaseVopv:
 1315               	.LFB129:
 583:C:\Users\Hexma\Documents\Arduino\hardware\SMART-Response-XE-Low_level-master\avr\libraries\SmartResponseXE\SmartResponseXE.cpp **** }
 584:C:\Users\Hexma\Documents\Arduino\hardware\SMART-Response-XE-Low_level-master\avr\libraries\SmartResponseXE\SmartResponseXE.cpp **** 
 585:C:\Users\Hexma\Documents\Arduino\hardware\SMART-Response-XE-Low_level-master\avr\libraries\SmartResponseXE\SmartResponseXE.cpp **** // SRXEDecreaseVop
 586:C:\Users\Hexma\Documents\Arduino\hardware\SMART-Response-XE-Low_level-master\avr\libraries\SmartResponseXE\SmartResponseXE.cpp **** //
 587:C:\Users\Hexma\Documents\Arduino\hardware\SMART-Response-XE-Low_level-master\avr\libraries\SmartResponseXE\SmartResponseXE.cpp **** void SRXEDecreaseVop(void){
 1316               		.loc 1 587 0
 1317               		.cfi_startproc
 1318               	/* prologue: function */
 1319               	/* frame size = 0 */
 1320               	/* stack size = 0 */
 1321               	.L__stack_usage = 0
GAS LISTING C:\Users\Hexma\AppData\Local\Temp\cc7G6F1c.s 			page 35


 588:C:\Users\Hexma\Documents\Arduino\hardware\SMART-Response-XE-Low_level-master\avr\libraries\SmartResponseXE\SmartResponseXE.cpp ****   SRXEWriteCommand(0xc2);
 1322               		.loc 1 588 0
 1323 0000 82EC      		ldi r24,lo8(-62)
 1324 0002 0C94 0000 		jmp _ZL16SRXEWriteCommandh
 1325               	.LVL127:
 1326               		.cfi_endproc
 1327               	.LFE129:
 1329               		.section	.text._Z14SRXEScrollAreaiii,"ax",@progbits
 1330               	.global	_Z14SRXEScrollAreaiii
 1332               	_Z14SRXEScrollAreaiii:
 1333               	.LFB130:
 589:C:\Users\Hexma\Documents\Arduino\hardware\SMART-Response-XE-Low_level-master\avr\libraries\SmartResponseXE\SmartResponseXE.cpp **** }
 590:C:\Users\Hexma\Documents\Arduino\hardware\SMART-Response-XE-Low_level-master\avr\libraries\SmartResponseXE\SmartResponseXE.cpp **** 
 591:C:\Users\Hexma\Documents\Arduino\hardware\SMART-Response-XE-Low_level-master\avr\libraries\SmartResponseXE\SmartResponseXE.cpp **** //
 592:C:\Users\Hexma\Documents\Arduino\hardware\SMART-Response-XE-Low_level-master\avr\libraries\SmartResponseXE\SmartResponseXE.cpp **** //  Set Scroll Area
 593:C:\Users\Hexma\Documents\Arduino\hardware\SMART-Response-XE-Low_level-master\avr\libraries\SmartResponseXE\SmartResponseXE.cpp **** // inputs:
 594:C:\Users\Hexma\Documents\Arduino\hardware\SMART-Response-XE-Low_level-master\avr\libraries\SmartResponseXE\SmartResponseXE.cpp **** // TA: top fixed area
 595:C:\Users\Hexma\Documents\Arduino\hardware\SMART-Response-XE-Low_level-master\avr\libraries\SmartResponseXE\SmartResponseXE.cpp **** // SA: scroll area
 596:C:\Users\Hexma\Documents\Arduino\hardware\SMART-Response-XE-Low_level-master\avr\libraries\SmartResponseXE\SmartResponseXE.cpp **** // BA: bottom fixed area
 597:C:\Users\Hexma\Documents\Arduino\hardware\SMART-Response-XE-Low_level-master\avr\libraries\SmartResponseXE\SmartResponseXE.cpp **** // TA + SA + BA = 160
 598:C:\Users\Hexma\Documents\Arduino\hardware\SMART-Response-XE-Low_level-master\avr\libraries\SmartResponseXE\SmartResponseXE.cpp **** //
 599:C:\Users\Hexma\Documents\Arduino\hardware\SMART-Response-XE-Low_level-master\avr\libraries\SmartResponseXE\SmartResponseXE.cpp **** //  fdufnews 12/2019
 600:C:\Users\Hexma\Documents\Arduino\hardware\SMART-Response-XE-Low_level-master\avr\libraries\SmartResponseXE\SmartResponseXE.cpp **** //
 601:C:\Users\Hexma\Documents\Arduino\hardware\SMART-Response-XE-Low_level-master\avr\libraries\SmartResponseXE\SmartResponseXE.cpp **** void SRXEScrollArea(int TA, int SA, int BA)
 602:C:\Users\Hexma\Documents\Arduino\hardware\SMART-Response-XE-Low_level-master\avr\libraries\SmartResponseXE\SmartResponseXE.cpp **** {
 1334               		.loc 1 602 0
 1335               		.cfi_startproc
 1336               	.LVL128:
 1337 0000 CF92      		push r12
 1338               	.LCFI55:
 1339               		.cfi_def_cfa_offset 3
 1340               		.cfi_offset 12, -2
 1341 0002 DF92      		push r13
 1342               	.LCFI56:
 1343               		.cfi_def_cfa_offset 4
 1344               		.cfi_offset 13, -3
 1345 0004 EF92      		push r14
 1346               	.LCFI57:
 1347               		.cfi_def_cfa_offset 5
 1348               		.cfi_offset 14, -4
 1349 0006 FF92      		push r15
 1350               	.LCFI58:
 1351               		.cfi_def_cfa_offset 6
 1352               		.cfi_offset 15, -5
 1353 0008 0F93      		push r16
 1354               	.LCFI59:
 1355               		.cfi_def_cfa_offset 7
 1356               		.cfi_offset 16, -6
 1357 000a 1F93      		push r17
 1358               	.LCFI60:
 1359               		.cfi_def_cfa_offset 8
 1360               		.cfi_offset 17, -7
 1361 000c CF93      		push r28
 1362               	.LCFI61:
 1363               		.cfi_def_cfa_offset 9
 1364               		.cfi_offset 28, -8
 1365 000e DF93      		push r29
GAS LISTING C:\Users\Hexma\AppData\Local\Temp\cc7G6F1c.s 			page 36


 1366               	.LCFI62:
 1367               		.cfi_def_cfa_offset 10
 1368               		.cfi_offset 29, -9
 1369 0010 00D0      		rcall .
 1370 0012 1F92      		push __zero_reg__
 1371               	.LCFI63:
 1372               		.cfi_def_cfa_offset 13
 1373 0014 CDB7      		in r28,__SP_L__
 1374 0016 DEB7      		in r29,__SP_H__
 1375               	.LCFI64:
 1376               		.cfi_def_cfa_register 28
 1377               	/* prologue: function */
 1378               	/* frame size = 3 */
 1379               	/* stack size = 11 */
 1380               	.L__stack_usage = 11
 603:C:\Users\Hexma\Documents\Arduino\hardware\SMART-Response-XE-Low_level-master\avr\libraries\SmartResponseXE\SmartResponseXE.cpp ****   byte ucTemp[3];
 604:C:\Users\Hexma\Documents\Arduino\hardware\SMART-Response-XE-Low_level-master\avr\libraries\SmartResponseXE\SmartResponseXE.cpp **** 
 605:C:\Users\Hexma\Documents\Arduino\hardware\SMART-Response-XE-Low_level-master\avr\libraries\SmartResponseXE\SmartResponseXE.cpp ****   if ((TA+SA+BA)!=160) return;
 1381               		.loc 1 605 0
 1382 0018 9C01      		movw r18,r24
 1383 001a 260F      		add r18,r22
 1384 001c 371F      		adc r19,r23
 1385 001e 240F      		add r18,r20
 1386 0020 351F      		adc r19,r21
 1387 0022 203A      		cpi r18,-96
 1388 0024 3105      		cpc r19,__zero_reg__
 1389 0026 01F4      		brne .L58
 1390 0028 7A01      		movw r14,r20
 1391 002a 8B01      		movw r16,r22
 1392 002c 6C01      		movw r12,r24
 606:C:\Users\Hexma\Documents\Arduino\hardware\SMART-Response-XE-Low_level-master\avr\libraries\SmartResponseXE\SmartResponseXE.cpp ****   SRXEWriteCommand(0x33); // set scroll area
 1393               		.loc 1 606 0
 1394 002e 83E3      		ldi r24,lo8(51)
 1395               	.LVL129:
 1396 0030 0E94 0000 		call _ZL16SRXEWriteCommandh
 1397               	.LVL130:
 607:C:\Users\Hexma\Documents\Arduino\hardware\SMART-Response-XE-Low_level-master\avr\libraries\SmartResponseXE\SmartResponseXE.cpp **** 
 608:C:\Users\Hexma\Documents\Arduino\hardware\SMART-Response-XE-Low_level-master\avr\libraries\SmartResponseXE\SmartResponseXE.cpp ****   ucTemp[0] = (byte)TA;
 1398               		.loc 1 608 0
 1399 0034 C982      		std Y+1,r12
 609:C:\Users\Hexma\Documents\Arduino\hardware\SMART-Response-XE-Low_level-master\avr\libraries\SmartResponseXE\SmartResponseXE.cpp ****   ucTemp[1] = (byte)SA;
 1400               		.loc 1 609 0
 1401 0036 0A83      		std Y+2,r16
 610:C:\Users\Hexma\Documents\Arduino\hardware\SMART-Response-XE-Low_level-master\avr\libraries\SmartResponseXE\SmartResponseXE.cpp ****   ucTemp[2] = (byte)BA;
 1402               		.loc 1 610 0
 1403 0038 EB82      		std Y+3,r14
 611:C:\Users\Hexma\Documents\Arduino\hardware\SMART-Response-XE-Low_level-master\avr\libraries\SmartResponseXE\SmartResponseXE.cpp ****   SRXEWriteDataBlock(ucTemp, 3);
 1404               		.loc 1 611 0
 1405 003a 63E0      		ldi r22,lo8(3)
 1406 003c 70E0      		ldi r23,0
 1407 003e CE01      		movw r24,r28
 1408 0040 0196      		adiw r24,1
 1409 0042 0E94 0000 		call _Z18SRXEWriteDataBlockPhi
 1410               	.LVL131:
 612:C:\Users\Hexma\Documents\Arduino\hardware\SMART-Response-XE-Low_level-master\avr\libraries\SmartResponseXE\SmartResponseXE.cpp ****   scrollArea = (byte)SA;
 1411               		.loc 1 612 0
 1412 0046 1127      		clr r17
GAS LISTING C:\Users\Hexma\AppData\Local\Temp\cc7G6F1c.s 			page 37


 1413               	.LVL132:
 1414 0048 1093 0000 		sts _ZL10scrollArea+1,r17
 1415 004c 0093 0000 		sts _ZL10scrollArea,r16
 1416               	.LVL133:
 1417               	.L58:
 1418               	/* epilogue start */
 613:C:\Users\Hexma\Documents\Arduino\hardware\SMART-Response-XE-Low_level-master\avr\libraries\SmartResponseXE\SmartResponseXE.cpp **** }
 1419               		.loc 1 613 0
 1420 0050 0F90      		pop __tmp_reg__
 1421 0052 0F90      		pop __tmp_reg__
 1422 0054 0F90      		pop __tmp_reg__
 1423 0056 DF91      		pop r29
 1424 0058 CF91      		pop r28
 1425 005a 1F91      		pop r17
 1426 005c 0F91      		pop r16
 1427 005e FF90      		pop r15
 1428 0060 EF90      		pop r14
 1429 0062 DF90      		pop r13
 1430 0064 CF90      		pop r12
 1431 0066 0895      		ret
 1432               		.cfi_endproc
 1433               	.LFE130:
 1435               		.section	.text._Z10SRXEScrolli,"ax",@progbits
 1436               	.global	_Z10SRXEScrolli
 1438               	_Z10SRXEScrolli:
 1439               	.LFB131:
 614:C:\Users\Hexma\Documents\Arduino\hardware\SMART-Response-XE-Low_level-master\avr\libraries\SmartResponseXE\SmartResponseXE.cpp **** //
 615:C:\Users\Hexma\Documents\Arduino\hardware\SMART-Response-XE-Low_level-master\avr\libraries\SmartResponseXE\SmartResponseXE.cpp **** // Scroll the screen N lines vertically (positive or negative)
 616:C:\Users\Hexma\Documents\Arduino\hardware\SMART-Response-XE-Low_level-master\avr\libraries\SmartResponseXE\SmartResponseXE.cpp **** // The value given represents a delta which affects the current scroll offset
 617:C:\Users\Hexma\Documents\Arduino\hardware\SMART-Response-XE-Low_level-master\avr\libraries\SmartResponseXE\SmartResponseXE.cpp **** //
 618:C:\Users\Hexma\Documents\Arduino\hardware\SMART-Response-XE-Low_level-master\avr\libraries\SmartResponseXE\SmartResponseXE.cpp **** //  fdufnews 12/2019
 619:C:\Users\Hexma\Documents\Arduino\hardware\SMART-Response-XE-Low_level-master\avr\libraries\SmartResponseXE\SmartResponseXE.cpp **** // scroll offset is modulo scrollArea and not LCD_HEIGHT
 620:C:\Users\Hexma\Documents\Arduino\hardware\SMART-Response-XE-Low_level-master\avr\libraries\SmartResponseXE\SmartResponseXE.cpp **** //
 621:C:\Users\Hexma\Documents\Arduino\hardware\SMART-Response-XE-Low_level-master\avr\libraries\SmartResponseXE\SmartResponseXE.cpp **** void SRXEScroll(int iLines)
 622:C:\Users\Hexma\Documents\Arduino\hardware\SMART-Response-XE-Low_level-master\avr\libraries\SmartResponseXE\SmartResponseXE.cpp **** {
 1440               		.loc 1 622 0
 1441               		.cfi_startproc
 1442               	.LVL134:
 1443 0000 1F93      		push r17
 1444               	.LCFI65:
 1445               		.cfi_def_cfa_offset 3
 1446               		.cfi_offset 17, -2
 1447 0002 CF93      		push r28
 1448               	.LCFI66:
 1449               		.cfi_def_cfa_offset 4
 1450               		.cfi_offset 28, -3
 1451 0004 DF93      		push r29
 1452               	.LCFI67:
 1453               		.cfi_def_cfa_offset 5
 1454               		.cfi_offset 29, -4
 1455 0006 1F92      		push __zero_reg__
 1456               	.LCFI68:
 1457               		.cfi_def_cfa_offset 6
 1458 0008 CDB7      		in r28,__SP_L__
 1459 000a DEB7      		in r29,__SP_H__
 1460               	.LCFI69:
 1461               		.cfi_def_cfa_register 28
GAS LISTING C:\Users\Hexma\AppData\Local\Temp\cc7G6F1c.s 			page 38


 1462               	/* prologue: function */
 1463               	/* frame size = 1 */
 1464               	/* stack size = 4 */
 1465               	.L__stack_usage = 4
 623:C:\Users\Hexma\Documents\Arduino\hardware\SMART-Response-XE-Low_level-master\avr\libraries\SmartResponseXE\SmartResponseXE.cpp ****   byte b;
 624:C:\Users\Hexma\Documents\Arduino\hardware\SMART-Response-XE-Low_level-master\avr\libraries\SmartResponseXE\SmartResponseXE.cpp **** 
 625:C:\Users\Hexma\Documents\Arduino\hardware\SMART-Response-XE-Low_level-master\avr\libraries\SmartResponseXE\SmartResponseXE.cpp **** //  iScrollOffset = (iScrollOffset + iLines) % LCD_HEIGHT;
 626:C:\Users\Hexma\Documents\Arduino\hardware\SMART-Response-XE-Low_level-master\avr\libraries\SmartResponseXE\SmartResponseXE.cpp ****   iScrollOffset = (iScrollOffset + iLines) % scrollArea;
 1466               		.loc 1 626 0
 1467 000c 2091 0000 		lds r18,_ZL13iScrollOffset
 1468 0010 3091 0000 		lds r19,_ZL13iScrollOffset+1
 1469 0014 820F      		add r24,r18
 1470 0016 931F      		adc r25,r19
 1471               	.LVL135:
 1472 0018 6091 0000 		lds r22,_ZL10scrollArea
 1473 001c 7091 0000 		lds r23,_ZL10scrollArea+1
 1474 0020 0E94 0000 		call __divmodhi4
 1475 0024 182F      		mov r17,r24
 1476 0026 8093 0000 		sts _ZL13iScrollOffset,r24
 1477 002a 9093 0000 		sts _ZL13iScrollOffset+1,r25
 627:C:\Users\Hexma\Documents\Arduino\hardware\SMART-Response-XE-Low_level-master\avr\libraries\SmartResponseXE\SmartResponseXE.cpp ****   SRXEWriteCommand(0x37); // set scroll start line
 1478               		.loc 1 627 0
 1479 002e 87E3      		ldi r24,lo8(55)
 1480 0030 0E94 0000 		call _ZL16SRXEWriteCommandh
 1481               	.LVL136:
 628:C:\Users\Hexma\Documents\Arduino\hardware\SMART-Response-XE-Low_level-master\avr\libraries\SmartResponseXE\SmartResponseXE.cpp ****   b = (byte)iScrollOffset;
 1482               		.loc 1 628 0
 1483 0034 1983      		std Y+1,r17
 629:C:\Users\Hexma\Documents\Arduino\hardware\SMART-Response-XE-Low_level-master\avr\libraries\SmartResponseXE\SmartResponseXE.cpp ****   SRXEWriteDataBlock(&b, 1);
 1484               		.loc 1 629 0
 1485 0036 61E0      		ldi r22,lo8(1)
 1486 0038 70E0      		ldi r23,0
 1487 003a CE01      		movw r24,r28
 1488 003c 0196      		adiw r24,1
 1489 003e 0E94 0000 		call _Z18SRXEWriteDataBlockPhi
 1490               	.LVL137:
 1491               	/* epilogue start */
 630:C:\Users\Hexma\Documents\Arduino\hardware\SMART-Response-XE-Low_level-master\avr\libraries\SmartResponseXE\SmartResponseXE.cpp **** } /* SRXEScroll() */
 1492               		.loc 1 630 0
 1493 0042 0F90      		pop __tmp_reg__
 1494 0044 DF91      		pop r29
 1495 0046 CF91      		pop r28
 1496 0048 1F91      		pop r17
 1497 004a 0895      		ret
 1498               		.cfi_endproc
 1499               	.LFE131:
 1501               		.section	.text._Z15SRXEScrollResetv,"ax",@progbits
 1502               	.global	_Z15SRXEScrollResetv
 1504               	_Z15SRXEScrollResetv:
 1505               	.LFB132:
 631:C:\Users\Hexma\Documents\Arduino\hardware\SMART-Response-XE-Low_level-master\avr\libraries\SmartResponseXE\SmartResponseXE.cpp **** 
 632:C:\Users\Hexma\Documents\Arduino\hardware\SMART-Response-XE-Low_level-master\avr\libraries\SmartResponseXE\SmartResponseXE.cpp **** 
 633:C:\Users\Hexma\Documents\Arduino\hardware\SMART-Response-XE-Low_level-master\avr\libraries\SmartResponseXE\SmartResponseXE.cpp **** //
 634:C:\Users\Hexma\Documents\Arduino\hardware\SMART-Response-XE-Low_level-master\avr\libraries\SmartResponseXE\SmartResponseXE.cpp **** // Reset the scroll position to 0
 635:C:\Users\Hexma\Documents\Arduino\hardware\SMART-Response-XE-Low_level-master\avr\libraries\SmartResponseXE\SmartResponseXE.cpp **** //
 636:C:\Users\Hexma\Documents\Arduino\hardware\SMART-Response-XE-Low_level-master\avr\libraries\SmartResponseXE\SmartResponseXE.cpp **** void SRXEScrollReset(void)
 637:C:\Users\Hexma\Documents\Arduino\hardware\SMART-Response-XE-Low_level-master\avr\libraries\SmartResponseXE\SmartResponseXE.cpp **** {
GAS LISTING C:\Users\Hexma\AppData\Local\Temp\cc7G6F1c.s 			page 39


 1506               		.loc 1 637 0
 1507               		.cfi_startproc
 1508 0000 CF93      		push r28
 1509               	.LCFI70:
 1510               		.cfi_def_cfa_offset 3
 1511               		.cfi_offset 28, -2
 1512 0002 DF93      		push r29
 1513               	.LCFI71:
 1514               		.cfi_def_cfa_offset 4
 1515               		.cfi_offset 29, -3
 1516 0004 1F92      		push __zero_reg__
 1517               	.LCFI72:
 1518               		.cfi_def_cfa_offset 5
 1519 0006 CDB7      		in r28,__SP_L__
 1520 0008 DEB7      		in r29,__SP_H__
 1521               	.LCFI73:
 1522               		.cfi_def_cfa_register 28
 1523               	/* prologue: function */
 1524               	/* frame size = 1 */
 1525               	/* stack size = 3 */
 1526               	.L__stack_usage = 3
 638:C:\Users\Hexma\Documents\Arduino\hardware\SMART-Response-XE-Low_level-master\avr\libraries\SmartResponseXE\SmartResponseXE.cpp ****   byte b;
 639:C:\Users\Hexma\Documents\Arduino\hardware\SMART-Response-XE-Low_level-master\avr\libraries\SmartResponseXE\SmartResponseXE.cpp ****   iScrollOffset = 0;
 1527               		.loc 1 639 0
 1528 000a 1092 0000 		sts _ZL13iScrollOffset+1,__zero_reg__
 1529 000e 1092 0000 		sts _ZL13iScrollOffset,__zero_reg__
 640:C:\Users\Hexma\Documents\Arduino\hardware\SMART-Response-XE-Low_level-master\avr\libraries\SmartResponseXE\SmartResponseXE.cpp ****   SRXEWriteCommand(0x37); // scroll start address
 1530               		.loc 1 640 0
 1531 0012 87E3      		ldi r24,lo8(55)
 1532 0014 0E94 0000 		call _ZL16SRXEWriteCommandh
 1533               	.LVL138:
 641:C:\Users\Hexma\Documents\Arduino\hardware\SMART-Response-XE-Low_level-master\avr\libraries\SmartResponseXE\SmartResponseXE.cpp ****   b = 0;
 1534               		.loc 1 641 0
 1535 0018 1982      		std Y+1,__zero_reg__
 642:C:\Users\Hexma\Documents\Arduino\hardware\SMART-Response-XE-Low_level-master\avr\libraries\SmartResponseXE\SmartResponseXE.cpp ****   SRXEWriteDataBlock(&b, 1);
 1536               		.loc 1 642 0
 1537 001a 61E0      		ldi r22,lo8(1)
 1538 001c 70E0      		ldi r23,0
 1539 001e CE01      		movw r24,r28
 1540 0020 0196      		adiw r24,1
 1541 0022 0E94 0000 		call _Z18SRXEWriteDataBlockPhi
 1542               	.LVL139:
 1543               	/* epilogue start */
 643:C:\Users\Hexma\Documents\Arduino\hardware\SMART-Response-XE-Low_level-master\avr\libraries\SmartResponseXE\SmartResponseXE.cpp **** } /* SRXEcdScrollReset() */
 1544               		.loc 1 643 0
 1545 0026 0F90      		pop __tmp_reg__
 1546 0028 DF91      		pop r29
 1547 002a CF91      		pop r28
 1548 002c 0895      		ret
 1549               		.cfi_endproc
 1550               	.LFE132:
 1552               		.section	.text._Z18SRXEHorizontalLineiiihi,"ax",@progbits
 1553               	.global	_Z18SRXEHorizontalLineiiihi
 1555               	_Z18SRXEHorizontalLineiiihi:
 1556               	.LFB133:
 644:C:\Users\Hexma\Documents\Arduino\hardware\SMART-Response-XE-Low_level-master\avr\libraries\SmartResponseXE\SmartResponseXE.cpp **** 
 645:C:\Users\Hexma\Documents\Arduino\hardware\SMART-Response-XE-Low_level-master\avr\libraries\SmartResponseXE\SmartResponseXE.cpp **** 
GAS LISTING C:\Users\Hexma\AppData\Local\Temp\cc7G6F1c.s 			page 40


 646:C:\Users\Hexma\Documents\Arduino\hardware\SMART-Response-XE-Low_level-master\avr\libraries\SmartResponseXE\SmartResponseXE.cpp **** void SRXEHorizontalLine(int x, int y, int length, byte color, int thickness) {
 1557               		.loc 1 646 0
 1558               		.cfi_startproc
 1559               	.LVL140:
 1560 0000 CF92      		push r12
 1561               	.LCFI74:
 1562               		.cfi_def_cfa_offset 3
 1563               		.cfi_offset 12, -2
 1564 0002 DF92      		push r13
 1565               	.LCFI75:
 1566               		.cfi_def_cfa_offset 4
 1567               		.cfi_offset 13, -3
 1568 0004 EF92      		push r14
 1569               	.LCFI76:
 1570               		.cfi_def_cfa_offset 5
 1571               		.cfi_offset 14, -4
 1572 0006 FF92      		push r15
 1573               	.LCFI77:
 1574               		.cfi_def_cfa_offset 6
 1575               		.cfi_offset 15, -5
 1576 0008 0F93      		push r16
 1577               	.LCFI78:
 1578               		.cfi_def_cfa_offset 7
 1579               		.cfi_offset 16, -6
 1580 000a 1F93      		push r17
 1581               	.LCFI79:
 1582               		.cfi_def_cfa_offset 8
 1583               		.cfi_offset 17, -7
 1584 000c CF93      		push r28
 1585               	.LCFI80:
 1586               		.cfi_def_cfa_offset 9
 1587               		.cfi_offset 28, -8
 1588 000e DF93      		push r29
 1589               	.LCFI81:
 1590               		.cfi_def_cfa_offset 10
 1591               		.cfi_offset 29, -9
 1592 0010 CDB7      		in r28,__SP_L__
 1593 0012 DEB7      		in r29,__SP_H__
 1594               	.LCFI82:
 1595               		.cfi_def_cfa_register 28
 1596 0014 C058      		subi r28,-128
 1597 0016 D109      		sbc r29,__zero_reg__
 1598               	.LCFI83:
 1599               		.cfi_def_cfa_offset 138
 1600 0018 0FB6      		in __tmp_reg__,__SREG__
 1601 001a F894      		cli
 1602 001c DEBF      		out __SP_H__,r29
 1603 001e 0FBE      		out __SREG__,__tmp_reg__
 1604 0020 CDBF      		out __SP_L__,r28
 1605               	/* prologue: function */
 1606               	/* frame size = 128 */
 1607               	/* stack size = 136 */
 1608               	.L__stack_usage = 136
 1609 0022 6A01      		movw r12,r20
 1610 0024 F22E      		mov r15,r18
 647:C:\Users\Hexma\Documents\Arduino\hardware\SMART-Response-XE-Low_level-master\avr\libraries\SmartResponseXE\SmartResponseXE.cpp ****   byte bTemp[128];
 648:C:\Users\Hexma\Documents\Arduino\hardware\SMART-Response-XE-Low_level-master\avr\libraries\SmartResponseXE\SmartResponseXE.cpp **** 
GAS LISTING C:\Users\Hexma\AppData\Local\Temp\cc7G6F1c.s 			page 41


 649:C:\Users\Hexma\Documents\Arduino\hardware\SMART-Response-XE-Low_level-master\avr\libraries\SmartResponseXE\SmartResponseXE.cpp ****   SRXESetPosition(x * 3, y, length * 3, thickness);
 1611               		.loc 1 649 0
 1612 0026 440F      		lsl r20
 1613 0028 551F      		rol r21
 1614               	.LVL141:
 1615 002a 4C0D      		add r20,r12
 1616 002c 5D1D      		adc r21,r13
 1617 002e FC01      		movw r30,r24
 1618 0030 EE0F      		lsl r30
 1619 0032 FF1F      		rol r31
 1620 0034 9801      		movw r18,r16
 1621 0036 8E0F      		add r24,r30
 1622 0038 9F1F      		adc r25,r31
 1623               	.LVL142:
 1624 003a 0E94 0000 		call _Z15SRXESetPositioniiii
 1625               	.LVL143:
 650:C:\Users\Hexma\Documents\Arduino\hardware\SMART-Response-XE-Low_level-master\avr\libraries\SmartResponseXE\SmartResponseXE.cpp ****   memset(bTemp, bColorToByte[color], length);
 1626               		.loc 1 650 0
 1627 003e EF2D      		mov r30,r15
 1628 0040 F0E0      		ldi r31,0
 1629 0042 E050      		subi r30,lo8(-(_ZL12bColorToByte))
 1630 0044 F040      		sbci r31,hi8(-(_ZL12bColorToByte))
 1631 0046 6081      		ld r22,Z
 1632 0048 70E0      		ldi r23,0
 1633 004a A601      		movw r20,r12
 1634 004c CE01      		movw r24,r28
 1635 004e 0196      		adiw r24,1
 1636 0050 0E94 0000 		call memset
 1637               	.LVL144:
 1638               	.LBB26:
 651:C:\Users\Hexma\Documents\Arduino\hardware\SMART-Response-XE-Low_level-master\avr\libraries\SmartResponseXE\SmartResponseXE.cpp ****   for (int i = 0; i < thickness ; i++) {
 1639               		.loc 1 651 0
 1640 0054 F12C      		mov r15,__zero_reg__
 1641               	.LVL145:
 1642 0056 E12C      		mov r14,__zero_reg__
 1643               	.LVL146:
 1644               	.L65:
 1645               		.loc 1 651 0 is_stmt 0 discriminator 3
 1646 0058 E016      		cp r14,r16
 1647 005a F106      		cpc r15,r17
 1648 005c 04F4      		brge .L63
 652:C:\Users\Hexma\Documents\Arduino\hardware\SMART-Response-XE-Low_level-master\avr\libraries\SmartResponseXE\SmartResponseXE.cpp ****     SRXEWriteDataBlock(bTemp, length);
 1649               		.loc 1 652 0 is_stmt 1 discriminator 2
 1650 005e B601      		movw r22,r12
 1651 0060 CE01      		movw r24,r28
 1652 0062 0196      		adiw r24,1
 1653 0064 0E94 0000 		call _Z18SRXEWriteDataBlockPhi
 1654               	.LVL147:
 651:C:\Users\Hexma\Documents\Arduino\hardware\SMART-Response-XE-Low_level-master\avr\libraries\SmartResponseXE\SmartResponseXE.cpp ****   for (int i = 0; i < thickness ; i++) {
 1655               		.loc 1 651 0 discriminator 2
 1656 0068 8FEF      		ldi r24,-1
 1657 006a E81A      		sub r14,r24
 1658 006c F80A      		sbc r15,r24
 1659               	.LVL148:
 1660 006e 00C0      		rjmp .L65
 1661               	.L63:
 1662               	/* epilogue start */
GAS LISTING C:\Users\Hexma\AppData\Local\Temp\cc7G6F1c.s 			page 42


 1663               	.LBE26:
 653:C:\Users\Hexma\Documents\Arduino\hardware\SMART-Response-XE-Low_level-master\avr\libraries\SmartResponseXE\SmartResponseXE.cpp ****   }
 654:C:\Users\Hexma\Documents\Arduino\hardware\SMART-Response-XE-Low_level-master\avr\libraries\SmartResponseXE\SmartResponseXE.cpp **** 
 655:C:\Users\Hexma\Documents\Arduino\hardware\SMART-Response-XE-Low_level-master\avr\libraries\SmartResponseXE\SmartResponseXE.cpp **** 
 656:C:\Users\Hexma\Documents\Arduino\hardware\SMART-Response-XE-Low_level-master\avr\libraries\SmartResponseXE\SmartResponseXE.cpp **** }
 1664               		.loc 1 656 0
 1665 0070 C058      		subi r28,-128
 1666 0072 DF4F      		sbci r29,-1
 1667 0074 0FB6      		in __tmp_reg__,__SREG__
 1668 0076 F894      		cli
 1669 0078 DEBF      		out __SP_H__,r29
 1670 007a 0FBE      		out __SREG__,__tmp_reg__
 1671 007c CDBF      		out __SP_L__,r28
 1672 007e DF91      		pop r29
 1673 0080 CF91      		pop r28
 1674 0082 1F91      		pop r17
 1675 0084 0F91      		pop r16
 1676               	.LVL149:
 1677 0086 FF90      		pop r15
 1678 0088 EF90      		pop r14
 1679               	.LVL150:
 1680 008a DF90      		pop r13
 1681 008c CF90      		pop r12
 1682               	.LVL151:
 1683 008e 0895      		ret
 1684               		.cfi_endproc
 1685               	.LFE133:
 1687               		.section	.text._Z16SRXEVerticalLineiiih,"ax",@progbits
 1688               	.global	_Z16SRXEVerticalLineiiih
 1690               	_Z16SRXEVerticalLineiiih:
 1691               	.LFB134:
 657:C:\Users\Hexma\Documents\Arduino\hardware\SMART-Response-XE-Low_level-master\avr\libraries\SmartResponseXE\SmartResponseXE.cpp **** 
 658:C:\Users\Hexma\Documents\Arduino\hardware\SMART-Response-XE-Low_level-master\avr\libraries\SmartResponseXE\SmartResponseXE.cpp **** 
 659:C:\Users\Hexma\Documents\Arduino\hardware\SMART-Response-XE-Low_level-master\avr\libraries\SmartResponseXE\SmartResponseXE.cpp **** void SRXEVerticalLine(int x, int y, int height, byte color) {
 1692               		.loc 1 659 0
 1693               		.cfi_startproc
 1694               	.LVL152:
 1695 0000 EF92      		push r14
 1696               	.LCFI84:
 1697               		.cfi_def_cfa_offset 3
 1698               		.cfi_offset 14, -2
 1699 0002 FF92      		push r15
 1700               	.LCFI85:
 1701               		.cfi_def_cfa_offset 4
 1702               		.cfi_offset 15, -3
 1703 0004 1F93      		push r17
 1704               	.LCFI86:
 1705               		.cfi_def_cfa_offset 5
 1706               		.cfi_offset 17, -4
 1707 0006 CF93      		push r28
 1708               	.LCFI87:
 1709               		.cfi_def_cfa_offset 6
 1710               		.cfi_offset 28, -5
 1711 0008 DF93      		push r29
 1712               	.LCFI88:
 1713               		.cfi_def_cfa_offset 7
 1714               		.cfi_offset 29, -6
GAS LISTING C:\Users\Hexma\AppData\Local\Temp\cc7G6F1c.s 			page 43


 1715 000a CDB7      		in r28,__SP_L__
 1716 000c DEB7      		in r29,__SP_H__
 1717               	.LCFI89:
 1718               		.cfi_def_cfa_register 28
 1719 000e C858      		subi r28,-120
 1720 0010 D109      		sbc r29,__zero_reg__
 1721               	.LCFI90:
 1722               		.cfi_def_cfa_offset 143
 1723 0012 0FB6      		in __tmp_reg__,__SREG__
 1724 0014 F894      		cli
 1725 0016 DEBF      		out __SP_H__,r29
 1726 0018 0FBE      		out __SREG__,__tmp_reg__
 1727 001a CDBF      		out __SP_L__,r28
 1728               	/* prologue: function */
 1729               	/* frame size = 136 */
 1730               	/* stack size = 141 */
 1731               	.L__stack_usage = 141
 1732 001c 7A01      		movw r14,r20
 1733 001e 122F      		mov r17,r18
 660:C:\Users\Hexma\Documents\Arduino\hardware\SMART-Response-XE-Low_level-master\avr\libraries\SmartResponseXE\SmartResponseXE.cpp ****   byte bTemp[136];
 661:C:\Users\Hexma\Documents\Arduino\hardware\SMART-Response-XE-Low_level-master\avr\libraries\SmartResponseXE\SmartResponseXE.cpp **** 
 662:C:\Users\Hexma\Documents\Arduino\hardware\SMART-Response-XE-Low_level-master\avr\libraries\SmartResponseXE\SmartResponseXE.cpp ****   SRXESetPosition(x * 3, y, 1, height );
 1734               		.loc 1 662 0
 1735 0020 FC01      		movw r30,r24
 1736 0022 EE0F      		lsl r30
 1737 0024 FF1F      		rol r31
 1738               	.LVL153:
 1739 0026 9A01      		movw r18,r20
 1740 0028 41E0      		ldi r20,lo8(1)
 1741 002a 50E0      		ldi r21,0
 1742               	.LVL154:
 1743 002c 8E0F      		add r24,r30
 1744 002e 9F1F      		adc r25,r31
 1745               	.LVL155:
 1746 0030 0E94 0000 		call _Z15SRXESetPositioniiii
 1747               	.LVL156:
 663:C:\Users\Hexma\Documents\Arduino\hardware\SMART-Response-XE-Low_level-master\avr\libraries\SmartResponseXE\SmartResponseXE.cpp ****   memset(bTemp, bColorToByte[color], height);
 1748               		.loc 1 663 0
 1749 0034 E12F      		mov r30,r17
 1750 0036 F0E0      		ldi r31,0
 1751 0038 E050      		subi r30,lo8(-(_ZL12bColorToByte))
 1752 003a F040      		sbci r31,hi8(-(_ZL12bColorToByte))
 1753 003c 6081      		ld r22,Z
 1754 003e 70E0      		ldi r23,0
 1755 0040 A701      		movw r20,r14
 1756 0042 CE01      		movw r24,r28
 1757 0044 0196      		adiw r24,1
 1758 0046 0E94 0000 		call memset
 1759               	.LVL157:
 664:C:\Users\Hexma\Documents\Arduino\hardware\SMART-Response-XE-Low_level-master\avr\libraries\SmartResponseXE\SmartResponseXE.cpp ****   SRXEWriteDataBlock(bTemp, height);
 1760               		.loc 1 664 0
 1761 004a B701      		movw r22,r14
 1762 004c CE01      		movw r24,r28
 1763 004e 0196      		adiw r24,1
 1764 0050 0E94 0000 		call _Z18SRXEWriteDataBlockPhi
 1765               	.LVL158:
 1766               	/* epilogue start */
GAS LISTING C:\Users\Hexma\AppData\Local\Temp\cc7G6F1c.s 			page 44


 665:C:\Users\Hexma\Documents\Arduino\hardware\SMART-Response-XE-Low_level-master\avr\libraries\SmartResponseXE\SmartResponseXE.cpp **** }
 1767               		.loc 1 665 0
 1768 0054 C857      		subi r28,120
 1769 0056 DF4F      		sbci r29,-1
 1770 0058 0FB6      		in __tmp_reg__,__SREG__
 1771 005a F894      		cli
 1772 005c DEBF      		out __SP_H__,r29
 1773 005e 0FBE      		out __SREG__,__tmp_reg__
 1774 0060 CDBF      		out __SP_L__,r28
 1775 0062 DF91      		pop r29
 1776 0064 CF91      		pop r28
 1777 0066 1F91      		pop r17
 1778               	.LVL159:
 1779 0068 FF90      		pop r15
 1780 006a EF90      		pop r14
 1781               	.LVL160:
 1782 006c 0895      		ret
 1783               		.cfi_endproc
 1784               	.LFE134:
 1786               		.section	.text._Z13SRXERectangleiiiihh,"ax",@progbits
 1787               	.global	_Z13SRXERectangleiiiihh
 1789               	_Z13SRXERectangleiiiihh:
 1790               	.LFB135:
 666:C:\Users\Hexma\Documents\Arduino\hardware\SMART-Response-XE-Low_level-master\avr\libraries\SmartResponseXE\SmartResponseXE.cpp **** 
 667:C:\Users\Hexma\Documents\Arduino\hardware\SMART-Response-XE-Low_level-master\avr\libraries\SmartResponseXE\SmartResponseXE.cpp **** 
 668:C:\Users\Hexma\Documents\Arduino\hardware\SMART-Response-XE-Low_level-master\avr\libraries\SmartResponseXE\SmartResponseXE.cpp **** //
 669:C:\Users\Hexma\Documents\Arduino\hardware\SMART-Response-XE-Low_level-master\avr\libraries\SmartResponseXE\SmartResponseXE.cpp **** // Draw an outline or filled rectangle
 670:C:\Users\Hexma\Documents\Arduino\hardware\SMART-Response-XE-Low_level-master\avr\libraries\SmartResponseXE\SmartResponseXE.cpp **** // Only draws on byte boundaries (3 pixels wide)
 671:C:\Users\Hexma\Documents\Arduino\hardware\SMART-Response-XE-Low_level-master\avr\libraries\SmartResponseXE\SmartResponseXE.cpp **** // (display is treated as 128x136)
 672:C:\Users\Hexma\Documents\Arduino\hardware\SMART-Response-XE-Low_level-master\avr\libraries\SmartResponseXE\SmartResponseXE.cpp **** //
 673:C:\Users\Hexma\Documents\Arduino\hardware\SMART-Response-XE-Low_level-master\avr\libraries\SmartResponseXE\SmartResponseXE.cpp **** void SRXERectangle(int x, int y, int cx, int cy, byte color, byte bFilled)
 674:C:\Users\Hexma\Documents\Arduino\hardware\SMART-Response-XE-Low_level-master\avr\libraries\SmartResponseXE\SmartResponseXE.cpp **** {
 1791               		.loc 1 674 0
 1792               		.cfi_startproc
 1793               	.LVL161:
 1794 0000 2F92      		push r2
 1795               	.LCFI91:
 1796               		.cfi_def_cfa_offset 3
 1797               		.cfi_offset 2, -2
 1798 0002 3F92      		push r3
 1799               	.LCFI92:
 1800               		.cfi_def_cfa_offset 4
 1801               		.cfi_offset 3, -3
 1802 0004 4F92      		push r4
 1803               	.LCFI93:
 1804               		.cfi_def_cfa_offset 5
 1805               		.cfi_offset 4, -4
 1806 0006 5F92      		push r5
 1807               	.LCFI94:
 1808               		.cfi_def_cfa_offset 6
 1809               		.cfi_offset 5, -5
 1810 0008 6F92      		push r6
 1811               	.LCFI95:
 1812               		.cfi_def_cfa_offset 7
 1813               		.cfi_offset 6, -6
 1814 000a 7F92      		push r7
 1815               	.LCFI96:
GAS LISTING C:\Users\Hexma\AppData\Local\Temp\cc7G6F1c.s 			page 45


 1816               		.cfi_def_cfa_offset 8
 1817               		.cfi_offset 7, -7
 1818 000c 8F92      		push r8
 1819               	.LCFI97:
 1820               		.cfi_def_cfa_offset 9
 1821               		.cfi_offset 8, -8
 1822 000e 9F92      		push r9
 1823               	.LCFI98:
 1824               		.cfi_def_cfa_offset 10
 1825               		.cfi_offset 9, -9
 1826 0010 AF92      		push r10
 1827               	.LCFI99:
 1828               		.cfi_def_cfa_offset 11
 1829               		.cfi_offset 10, -10
 1830 0012 BF92      		push r11
 1831               	.LCFI100:
 1832               		.cfi_def_cfa_offset 12
 1833               		.cfi_offset 11, -11
 1834 0014 CF92      		push r12
 1835               	.LCFI101:
 1836               		.cfi_def_cfa_offset 13
 1837               		.cfi_offset 12, -12
 1838 0016 DF92      		push r13
 1839               	.LCFI102:
 1840               		.cfi_def_cfa_offset 14
 1841               		.cfi_offset 13, -13
 1842 0018 EF92      		push r14
 1843               	.LCFI103:
 1844               		.cfi_def_cfa_offset 15
 1845               		.cfi_offset 14, -14
 1846 001a FF92      		push r15
 1847               	.LCFI104:
 1848               		.cfi_def_cfa_offset 16
 1849               		.cfi_offset 15, -15
 1850 001c 0F93      		push r16
 1851               	.LCFI105:
 1852               		.cfi_def_cfa_offset 17
 1853               		.cfi_offset 16, -16
 1854 001e 1F93      		push r17
 1855               	.LCFI106:
 1856               		.cfi_def_cfa_offset 18
 1857               		.cfi_offset 17, -17
 1858 0020 CF93      		push r28
 1859               	.LCFI107:
 1860               		.cfi_def_cfa_offset 19
 1861               		.cfi_offset 28, -18
 1862 0022 DF93      		push r29
 1863               	.LCFI108:
 1864               		.cfi_def_cfa_offset 20
 1865               		.cfi_offset 29, -19
 1866 0024 CDB7      		in r28,__SP_L__
 1867 0026 DEB7      		in r29,__SP_H__
 1868               	.LCFI109:
 1869               		.cfi_def_cfa_register 28
 1870 0028 C058      		subi r28,-128
 1871 002a D109      		sbc r29,__zero_reg__
 1872               	.LCFI110:
GAS LISTING C:\Users\Hexma\AppData\Local\Temp\cc7G6F1c.s 			page 46


 1873               		.cfi_def_cfa_offset 148
 1874 002c 0FB6      		in __tmp_reg__,__SREG__
 1875 002e F894      		cli
 1876 0030 DEBF      		out __SP_H__,r29
 1877 0032 0FBE      		out __SREG__,__tmp_reg__
 1878 0034 CDBF      		out __SP_L__,r28
 1879               	/* prologue: function */
 1880               	/* frame size = 128 */
 1881               	/* stack size = 146 */
 1882               	.L__stack_usage = 146
 1883 0036 6901      		movw r12,r18
 1884 0038 3E2D      		mov r19,r14
 675:C:\Users\Hexma\Documents\Arduino\hardware\SMART-Response-XE-Low_level-master\avr\libraries\SmartResponseXE\SmartResponseXE.cpp ****   byte bTemp[128];
 676:C:\Users\Hexma\Documents\Arduino\hardware\SMART-Response-XE-Low_level-master\avr\libraries\SmartResponseXE\SmartResponseXE.cpp **** 
 677:C:\Users\Hexma\Documents\Arduino\hardware\SMART-Response-XE-Low_level-master\avr\libraries\SmartResponseXE\SmartResponseXE.cpp ****   if (x < 0 || x > 127 || y < 0 || y > 135) return;
 1885               		.loc 1 677 0
 1886 003a 8038      		cpi r24,-128
 1887 003c 9105      		cpc r25,__zero_reg__
 1888 003e 00F0      		brlo .+2
 1889 0040 00C0      		rjmp .L67
 1890               		.loc 1 677 0 is_stmt 0 discriminator 2
 1891 0042 6838      		cpi r22,-120
 1892 0044 7105      		cpc r23,__zero_reg__
 1893 0046 00F0      		brlo .+2
 1894 0048 00C0      		rjmp .L67
 678:C:\Users\Hexma\Documents\Arduino\hardware\SMART-Response-XE-Low_level-master\avr\libraries\SmartResponseXE\SmartResponseXE.cpp ****   if (x + cx > 127 || y + cy > 135) return;
 1895               		.loc 1 678 0 is_stmt 1
 1896 004a 7C01      		movw r14,r24
 1897               	.LVL162:
 1898 004c E40E      		add r14,r20
 1899 004e F51E      		adc r15,r21
 1900 0050 20E8      		ldi r18,-128
 1901 0052 E216      		cp r14,r18
 1902 0054 F104      		cpc r15,__zero_reg__
 1903               	.LVL163:
 1904 0056 04F0      		brlt .+2
 1905 0058 00C0      		rjmp .L67
 1906               		.loc 1 678 0 is_stmt 0 discriminator 1
 1907 005a 1B01      		movw r2,r22
 1908 005c 2C0C      		add r2,r12
 1909 005e 3D1C      		adc r3,r13
 1910 0060 E8E8      		ldi r30,-120
 1911 0062 2E16      		cp r2,r30
 1912 0064 3104      		cpc r3,__zero_reg__
 1913 0066 04F0      		brlt .+2
 1914 0068 00C0      		rjmp .L67
 1915 006a 5A01      		movw r10,r20
 1916 006c 4B01      		movw r8,r22
 1917 006e 2A01      		movw r4,r20
 1918 0070 440C      		lsl r4
 1919 0072 551C      		rol r5
 1920               	.LVL164:
 1921 0074 4A0C      		add r4,r10
 1922 0076 5B1C      		adc r5,r11
 1923 0078 3C01      		movw r6,r24
 1924 007a 660C      		lsl r6
 1925 007c 771C      		rol r7
GAS LISTING C:\Users\Hexma\AppData\Local\Temp\cc7G6F1c.s 			page 47


 1926 007e 680E      		add r6,r24
 1927 0080 791E      		adc r7,r25
 679:C:\Users\Hexma\Documents\Arduino\hardware\SMART-Response-XE-Low_level-master\avr\libraries\SmartResponseXE\SmartResponseXE.cpp ****   if (bFilled)
 1928               		.loc 1 679 0 is_stmt 1
 1929 0082 3323      		tst r19
 1930 0084 01F0      		breq .L69
 680:C:\Users\Hexma\Documents\Arduino\hardware\SMART-Response-XE-Low_level-master\avr\libraries\SmartResponseXE\SmartResponseXE.cpp ****   {
 681:C:\Users\Hexma\Documents\Arduino\hardware\SMART-Response-XE-Low_level-master\avr\libraries\SmartResponseXE\SmartResponseXE.cpp ****     SRXESetPosition(x * 3, y, cx * 3, cy);
 1931               		.loc 1 681 0
 1932 0086 9601      		movw r18,r12
 1933 0088 A201      		movw r20,r4
 1934 008a C301      		movw r24,r6
 1935               	.LVL165:
 1936 008c 0E94 0000 		call _Z15SRXESetPositioniiii
 1937               	.LVL166:
 682:C:\Users\Hexma\Documents\Arduino\hardware\SMART-Response-XE-Low_level-master\avr\libraries\SmartResponseXE\SmartResponseXE.cpp ****     for (y = 0; y < cy; y++)
 1938               		.loc 1 682 0
 1939 0090 F12C      		mov r15,__zero_reg__
 1940 0092 E12C      		mov r14,__zero_reg__
 683:C:\Users\Hexma\Documents\Arduino\hardware\SMART-Response-XE-Low_level-master\avr\libraries\SmartResponseXE\SmartResponseXE.cpp ****     {
 684:C:\Users\Hexma\Documents\Arduino\hardware\SMART-Response-XE-Low_level-master\avr\libraries\SmartResponseXE\SmartResponseXE.cpp ****       memset(bTemp, bColorToByte[color], cx);
 1941               		.loc 1 684 0
 1942 0094 10E0      		ldi r17,0
 1943 0096 0050      		subi r16,lo8(-(_ZL12bColorToByte))
 1944 0098 1040      		sbci r17,hi8(-(_ZL12bColorToByte))
 1945               	.LVL167:
 1946               	.L70:
 682:C:\Users\Hexma\Documents\Arduino\hardware\SMART-Response-XE-Low_level-master\avr\libraries\SmartResponseXE\SmartResponseXE.cpp ****     for (y = 0; y < cy; y++)
 1947               		.loc 1 682 0 discriminator 3
 1948 009a EC14      		cp r14,r12
 1949 009c FD04      		cpc r15,r13
 1950 009e 04F0      		brlt .+2
 1951 00a0 00C0      		rjmp .L67
 1952               		.loc 1 684 0 discriminator 2
 1953 00a2 F801      		movw r30,r16
 1954 00a4 6081      		ld r22,Z
 1955 00a6 70E0      		ldi r23,0
 1956 00a8 A501      		movw r20,r10
 1957 00aa CE01      		movw r24,r28
 1958 00ac 0196      		adiw r24,1
 1959 00ae 0E94 0000 		call memset
 1960               	.LVL168:
 685:C:\Users\Hexma\Documents\Arduino\hardware\SMART-Response-XE-Low_level-master\avr\libraries\SmartResponseXE\SmartResponseXE.cpp ****       SRXEWriteDataBlock(bTemp, cx);
 1961               		.loc 1 685 0 discriminator 2
 1962 00b2 B501      		movw r22,r10
 1963 00b4 CE01      		movw r24,r28
 1964 00b6 0196      		adiw r24,1
 1965 00b8 0E94 0000 		call _Z18SRXEWriteDataBlockPhi
 1966               	.LVL169:
 682:C:\Users\Hexma\Documents\Arduino\hardware\SMART-Response-XE-Low_level-master\avr\libraries\SmartResponseXE\SmartResponseXE.cpp ****     for (y = 0; y < cy; y++)
 1967               		.loc 1 682 0 discriminator 2
 1968 00bc FFEF      		ldi r31,-1
 1969 00be EF1A      		sub r14,r31
 1970 00c0 FF0A      		sbc r15,r31
 1971               	.LVL170:
 1972 00c2 00C0      		rjmp .L70
 1973               	.LVL171:
GAS LISTING C:\Users\Hexma\AppData\Local\Temp\cc7G6F1c.s 			page 48


 1974               	.L69:
 686:C:\Users\Hexma\Documents\Arduino\hardware\SMART-Response-XE-Low_level-master\avr\libraries\SmartResponseXE\SmartResponseXE.cpp ****     }
 687:C:\Users\Hexma\Documents\Arduino\hardware\SMART-Response-XE-Low_level-master\avr\libraries\SmartResponseXE\SmartResponseXE.cpp ****   } // filled
 688:C:\Users\Hexma\Documents\Arduino\hardware\SMART-Response-XE-Low_level-master\avr\libraries\SmartResponseXE\SmartResponseXE.cpp ****   else // outline
 689:C:\Users\Hexma\Documents\Arduino\hardware\SMART-Response-XE-Low_level-master\avr\libraries\SmartResponseXE\SmartResponseXE.cpp ****   {
 690:C:\Users\Hexma\Documents\Arduino\hardware\SMART-Response-XE-Low_level-master\avr\libraries\SmartResponseXE\SmartResponseXE.cpp ****     // Draw top part
 691:C:\Users\Hexma\Documents\Arduino\hardware\SMART-Response-XE-Low_level-master\avr\libraries\SmartResponseXE\SmartResponseXE.cpp ****     SRXESetPosition(x * 3, y, cx * 3, 1);
 1975               		.loc 1 691 0
 1976 00c4 21E0      		ldi r18,lo8(1)
 1977 00c6 30E0      		ldi r19,0
 1978 00c8 A201      		movw r20,r4
 1979 00ca C301      		movw r24,r6
 1980               	.LVL172:
 1981 00cc 0E94 0000 		call _Z15SRXESetPositioniiii
 1982               	.LVL173:
 692:C:\Users\Hexma\Documents\Arduino\hardware\SMART-Response-XE-Low_level-master\avr\libraries\SmartResponseXE\SmartResponseXE.cpp ****     memset(bTemp, bColorToByte[color], cx);
 1983               		.loc 1 692 0
 1984 00d0 E02F      		mov r30,r16
 1985 00d2 F0E0      		ldi r31,0
 1986 00d4 E050      		subi r30,lo8(-(_ZL12bColorToByte))
 1987 00d6 F040      		sbci r31,hi8(-(_ZL12bColorToByte))
 1988 00d8 0081      		ld r16,Z
 1989               	.LVL174:
 1990 00da 10E0      		ldi r17,0
 1991 00dc A501      		movw r20,r10
 1992 00de B801      		movw r22,r16
 1993 00e0 CE01      		movw r24,r28
 1994 00e2 0196      		adiw r24,1
 1995 00e4 0E94 0000 		call memset
 1996               	.LVL175:
 693:C:\Users\Hexma\Documents\Arduino\hardware\SMART-Response-XE-Low_level-master\avr\libraries\SmartResponseXE\SmartResponseXE.cpp ****     SRXEWriteDataBlock(bTemp, cx);
 1997               		.loc 1 693 0
 1998 00e8 B501      		movw r22,r10
 1999 00ea CE01      		movw r24,r28
 2000 00ec 0196      		adiw r24,1
 2001 00ee 0E94 0000 		call _Z18SRXEWriteDataBlockPhi
 2002               	.LVL176:
 694:C:\Users\Hexma\Documents\Arduino\hardware\SMART-Response-XE-Low_level-master\avr\libraries\SmartResponseXE\SmartResponseXE.cpp ****     // Bottom
 695:C:\Users\Hexma\Documents\Arduino\hardware\SMART-Response-XE-Low_level-master\avr\libraries\SmartResponseXE\SmartResponseXE.cpp ****     SRXESetPosition(x * 3, y + cy - 1, cx * 3, 1);
 2003               		.loc 1 695 0
 2004 00f2 B101      		movw r22,r2
 2005 00f4 6150      		subi r22,1
 2006 00f6 7109      		sbc r23,__zero_reg__
 2007 00f8 21E0      		ldi r18,lo8(1)
 2008 00fa 30E0      		ldi r19,0
 2009 00fc A201      		movw r20,r4
 2010 00fe C301      		movw r24,r6
 2011 0100 0E94 0000 		call _Z15SRXESetPositioniiii
 2012               	.LVL177:
 696:C:\Users\Hexma\Documents\Arduino\hardware\SMART-Response-XE-Low_level-master\avr\libraries\SmartResponseXE\SmartResponseXE.cpp ****     memset(bTemp, bColorToByte[color], cx);
 2013               		.loc 1 696 0
 2014 0104 A501      		movw r20,r10
 2015 0106 B801      		movw r22,r16
 2016 0108 CE01      		movw r24,r28
 2017 010a 0196      		adiw r24,1
 2018 010c 0E94 0000 		call memset
 2019               	.LVL178:
GAS LISTING C:\Users\Hexma\AppData\Local\Temp\cc7G6F1c.s 			page 49


 697:C:\Users\Hexma\Documents\Arduino\hardware\SMART-Response-XE-Low_level-master\avr\libraries\SmartResponseXE\SmartResponseXE.cpp ****     SRXEWriteDataBlock(bTemp, cx);
 2020               		.loc 1 697 0
 2021 0110 B501      		movw r22,r10
 2022 0112 CE01      		movw r24,r28
 2023 0114 0196      		adiw r24,1
 2024 0116 0E94 0000 		call _Z18SRXEWriteDataBlockPhi
 2025               	.LVL179:
 698:C:\Users\Hexma\Documents\Arduino\hardware\SMART-Response-XE-Low_level-master\avr\libraries\SmartResponseXE\SmartResponseXE.cpp ****     // Left
 699:C:\Users\Hexma\Documents\Arduino\hardware\SMART-Response-XE-Low_level-master\avr\libraries\SmartResponseXE\SmartResponseXE.cpp ****     SRXESetPosition(x * 3, y, 3, cy);
 2026               		.loc 1 699 0
 2027 011a 9601      		movw r18,r12
 2028 011c 43E0      		ldi r20,lo8(3)
 2029 011e 50E0      		ldi r21,0
 2030 0120 B401      		movw r22,r8
 2031 0122 C301      		movw r24,r6
 2032 0124 0E94 0000 		call _Z15SRXESetPositioniiii
 2033               	.LVL180:
 700:C:\Users\Hexma\Documents\Arduino\hardware\SMART-Response-XE-Low_level-master\avr\libraries\SmartResponseXE\SmartResponseXE.cpp ****     memset(bTemp, bColorToByte[color], cy);
 2034               		.loc 1 700 0
 2035 0128 A601      		movw r20,r12
 2036 012a B801      		movw r22,r16
 2037 012c CE01      		movw r24,r28
 2038 012e 0196      		adiw r24,1
 2039 0130 0E94 0000 		call memset
 2040               	.LVL181:
 701:C:\Users\Hexma\Documents\Arduino\hardware\SMART-Response-XE-Low_level-master\avr\libraries\SmartResponseXE\SmartResponseXE.cpp ****     SRXEWriteDataBlock(bTemp, cy);
 2041               		.loc 1 701 0
 2042 0134 B601      		movw r22,r12
 2043 0136 CE01      		movw r24,r28
 2044 0138 0196      		adiw r24,1
 2045 013a 0E94 0000 		call _Z18SRXEWriteDataBlockPhi
 2046               	.LVL182:
 702:C:\Users\Hexma\Documents\Arduino\hardware\SMART-Response-XE-Low_level-master\avr\libraries\SmartResponseXE\SmartResponseXE.cpp ****     // Right
 703:C:\Users\Hexma\Documents\Arduino\hardware\SMART-Response-XE-Low_level-master\avr\libraries\SmartResponseXE\SmartResponseXE.cpp ****     SRXESetPosition((x + cx - 1) * 3, y, 3, cy);
 2047               		.loc 1 703 0
 2048 013e 21E0      		ldi r18,1
 2049 0140 E21A      		sub r14,r18
 2050 0142 F108      		sbc r15,__zero_reg__
 2051 0144 C701      		movw r24,r14
 2052 0146 880F      		lsl r24
 2053 0148 991F      		rol r25
 2054 014a 9601      		movw r18,r12
 2055 014c 43E0      		ldi r20,lo8(3)
 2056 014e 50E0      		ldi r21,0
 2057 0150 B401      		movw r22,r8
 2058 0152 8E0D      		add r24,r14
 2059 0154 9F1D      		adc r25,r15
 2060 0156 0E94 0000 		call _Z15SRXESetPositioniiii
 2061               	.LVL183:
 704:C:\Users\Hexma\Documents\Arduino\hardware\SMART-Response-XE-Low_level-master\avr\libraries\SmartResponseXE\SmartResponseXE.cpp ****     memset(bTemp, bColorToByte[color], cy);
 2062               		.loc 1 704 0
 2063 015a A601      		movw r20,r12
 2064 015c B801      		movw r22,r16
 2065 015e CE01      		movw r24,r28
 2066 0160 0196      		adiw r24,1
 2067 0162 0E94 0000 		call memset
 2068               	.LVL184:
GAS LISTING C:\Users\Hexma\AppData\Local\Temp\cc7G6F1c.s 			page 50


 705:C:\Users\Hexma\Documents\Arduino\hardware\SMART-Response-XE-Low_level-master\avr\libraries\SmartResponseXE\SmartResponseXE.cpp ****     SRXEWriteDataBlock(bTemp, cy);
 2069               		.loc 1 705 0
 2070 0166 B601      		movw r22,r12
 2071 0168 CE01      		movw r24,r28
 2072 016a 0196      		adiw r24,1
 2073 016c 0E94 0000 		call _Z18SRXEWriteDataBlockPhi
 2074               	.LVL185:
 2075               	.L67:
 2076               	/* epilogue start */
 706:C:\Users\Hexma\Documents\Arduino\hardware\SMART-Response-XE-Low_level-master\avr\libraries\SmartResponseXE\SmartResponseXE.cpp ****   }
 707:C:\Users\Hexma\Documents\Arduino\hardware\SMART-Response-XE-Low_level-master\avr\libraries\SmartResponseXE\SmartResponseXE.cpp **** } /* SRXERectangle() */
 2077               		.loc 1 707 0
 2078 0170 C058      		subi r28,-128
 2079 0172 DF4F      		sbci r29,-1
 2080 0174 0FB6      		in __tmp_reg__,__SREG__
 2081 0176 F894      		cli
 2082 0178 DEBF      		out __SP_H__,r29
 2083 017a 0FBE      		out __SREG__,__tmp_reg__
 2084 017c CDBF      		out __SP_L__,r28
 2085 017e DF91      		pop r29
 2086 0180 CF91      		pop r28
 2087 0182 1F91      		pop r17
 2088 0184 0F91      		pop r16
 2089 0186 FF90      		pop r15
 2090 0188 EF90      		pop r14
 2091 018a DF90      		pop r13
 2092 018c CF90      		pop r12
 2093               	.LVL186:
 2094 018e BF90      		pop r11
 2095 0190 AF90      		pop r10
 2096 0192 9F90      		pop r9
 2097 0194 8F90      		pop r8
 2098 0196 7F90      		pop r7
 2099 0198 6F90      		pop r6
 2100 019a 5F90      		pop r5
 2101 019c 4F90      		pop r4
 2102 019e 3F90      		pop r3
 2103 01a0 2F90      		pop r2
 2104 01a2 0895      		ret
 2105               		.cfi_endproc
 2106               	.LFE135:
 2108               		.section	.text._Z15SRXEWriteStringiiPciii,"ax",@progbits
 2109               	.global	_Z15SRXEWriteStringiiPciii
 2111               	_Z15SRXEWriteStringiiPciii:
 2112               	.LFB136:
 708:C:\Users\Hexma\Documents\Arduino\hardware\SMART-Response-XE-Low_level-master\avr\libraries\SmartResponseXE\SmartResponseXE.cpp **** 
 709:C:\Users\Hexma\Documents\Arduino\hardware\SMART-Response-XE-Low_level-master\avr\libraries\SmartResponseXE\SmartResponseXE.cpp **** 
 710:C:\Users\Hexma\Documents\Arduino\hardware\SMART-Response-XE-Low_level-master\avr\libraries\SmartResponseXE\SmartResponseXE.cpp **** //
 711:C:\Users\Hexma\Documents\Arduino\hardware\SMART-Response-XE-Low_level-master\avr\libraries\SmartResponseXE\SmartResponseXE.cpp **** // Draw a string of normal (8x8), small (6x8) or large (16x24) characters
 712:C:\Users\Hexma\Documents\Arduino\hardware\SMART-Response-XE-Low_level-master\avr\libraries\SmartResponseXE\SmartResponseXE.cpp **** // At the given col+row
 713:C:\Users\Hexma\Documents\Arduino\hardware\SMART-Response-XE-Low_level-master\avr\libraries\SmartResponseXE\SmartResponseXE.cpp **** //
 714:C:\Users\Hexma\Documents\Arduino\hardware\SMART-Response-XE-Low_level-master\avr\libraries\SmartResponseXE\SmartResponseXE.cpp **** int SRXEWriteString(int x, int y, char *szMsg, int iSize, int iFGColor, int iBGColor)
 715:C:\Users\Hexma\Documents\Arduino\hardware\SMART-Response-XE-Low_level-master\avr\libraries\SmartResponseXE\SmartResponseXE.cpp **** {
 2113               		.loc 1 715 0
 2114               		.cfi_startproc
 2115               	.LVL187:
 2116 0000 2F92      		push r2
GAS LISTING C:\Users\Hexma\AppData\Local\Temp\cc7G6F1c.s 			page 51


 2117               	.LCFI111:
 2118               		.cfi_def_cfa_offset 3
 2119               		.cfi_offset 2, -2
 2120 0002 3F92      		push r3
 2121               	.LCFI112:
 2122               		.cfi_def_cfa_offset 4
 2123               		.cfi_offset 3, -3
 2124 0004 4F92      		push r4
 2125               	.LCFI113:
 2126               		.cfi_def_cfa_offset 5
 2127               		.cfi_offset 4, -4
 2128 0006 5F92      		push r5
 2129               	.LCFI114:
 2130               		.cfi_def_cfa_offset 6
 2131               		.cfi_offset 5, -5
 2132 0008 6F92      		push r6
 2133               	.LCFI115:
 2134               		.cfi_def_cfa_offset 7
 2135               		.cfi_offset 6, -6
 2136 000a 7F92      		push r7
 2137               	.LCFI116:
 2138               		.cfi_def_cfa_offset 8
 2139               		.cfi_offset 7, -7
 2140 000c 8F92      		push r8
 2141               	.LCFI117:
 2142               		.cfi_def_cfa_offset 9
 2143               		.cfi_offset 8, -8
 2144 000e 9F92      		push r9
 2145               	.LCFI118:
 2146               		.cfi_def_cfa_offset 10
 2147               		.cfi_offset 9, -9
 2148 0010 AF92      		push r10
 2149               	.LCFI119:
 2150               		.cfi_def_cfa_offset 11
 2151               		.cfi_offset 10, -10
 2152 0012 BF92      		push r11
 2153               	.LCFI120:
 2154               		.cfi_def_cfa_offset 12
 2155               		.cfi_offset 11, -11
 2156 0014 CF92      		push r12
 2157               	.LCFI121:
 2158               		.cfi_def_cfa_offset 13
 2159               		.cfi_offset 12, -12
 2160 0016 DF92      		push r13
 2161               	.LCFI122:
 2162               		.cfi_def_cfa_offset 14
 2163               		.cfi_offset 13, -13
 2164 0018 EF92      		push r14
 2165               	.LCFI123:
 2166               		.cfi_def_cfa_offset 15
 2167               		.cfi_offset 14, -14
 2168 001a FF92      		push r15
 2169               	.LCFI124:
 2170               		.cfi_def_cfa_offset 16
 2171               		.cfi_offset 15, -15
 2172 001c 0F93      		push r16
 2173               	.LCFI125:
GAS LISTING C:\Users\Hexma\AppData\Local\Temp\cc7G6F1c.s 			page 52


 2174               		.cfi_def_cfa_offset 17
 2175               		.cfi_offset 16, -16
 2176 001e 1F93      		push r17
 2177               	.LCFI126:
 2178               		.cfi_def_cfa_offset 18
 2179               		.cfi_offset 17, -17
 2180 0020 CF93      		push r28
 2181               	.LCFI127:
 2182               		.cfi_def_cfa_offset 19
 2183               		.cfi_offset 28, -18
 2184 0022 DF93      		push r29
 2185               	.LCFI128:
 2186               		.cfi_def_cfa_offset 20
 2187               		.cfi_offset 29, -19
 2188 0024 CDB7      		in r28,__SP_L__
 2189 0026 DEB7      		in r29,__SP_H__
 2190               	.LCFI129:
 2191               		.cfi_def_cfa_register 28
 2192 0028 CD56      		subi r28,109
 2193 002a D109      		sbc r29,__zero_reg__
 2194               	.LCFI130:
 2195               		.cfi_def_cfa_offset 129
 2196 002c 0FB6      		in __tmp_reg__,__SREG__
 2197 002e F894      		cli
 2198 0030 DEBF      		out __SP_H__,r29
 2199 0032 0FBE      		out __SREG__,__tmp_reg__
 2200 0034 CDBF      		out __SP_L__,r28
 2201               	/* prologue: function */
 2202               	/* frame size = 109 */
 2203               	/* stack size = 127 */
 2204               	.L__stack_usage = 127
 2205 0036 4C01      		movw r8,r24
 2206 0038 A396      		adiw r28,97-62
 2207 003a 7FAF      		std Y+63,r23
 2208 003c 6EAF      		std Y+62,r22
 2209 003e A397      		sbiw r28,97-62
 2210 0040 1A01      		movw r2,r20
 2211 0042 6901      		movw r12,r18
 2212 0044 F701      		movw r30,r14
 2213               	.LVL188:
 2214 0046 E430      		cpi r30,4
 2215 0048 F105      		cpc r31,__zero_reg__
 2216 004a 04F0      		brlt .L73
 2217 004c E3E0      		ldi r30,lo8(3)
 2218 004e F0E0      		ldi r31,0
 2219               	.L73:
 2220               	.LVL189:
 716:C:\Users\Hexma\Documents\Arduino\hardware\SMART-Response-XE-Low_level-master\avr\libraries\SmartResponseXE\SmartResponseXE.cpp ****   int i, j, iLen;
 717:C:\Users\Hexma\Documents\Arduino\hardware\SMART-Response-XE-Low_level-master\avr\libraries\SmartResponseXE\SmartResponseXE.cpp ****   unsigned char ucTemp[8], *s;
 718:C:\Users\Hexma\Documents\Arduino\hardware\SMART-Response-XE-Low_level-master\avr\libraries\SmartResponseXE\SmartResponseXE.cpp ****   byte fgColor0, fgColor1, fgColor2, bgColor;
 719:C:\Users\Hexma\Documents\Arduino\hardware\SMART-Response-XE-Low_level-master\avr\libraries\SmartResponseXE\SmartResponseXE.cpp **** 
 720:C:\Users\Hexma\Documents\Arduino\hardware\SMART-Response-XE-Low_level-master\avr\libraries\SmartResponseXE\SmartResponseXE.cpp ****   if (iFGColor > 3) iFGColor = 3;
 721:C:\Users\Hexma\Documents\Arduino\hardware\SMART-Response-XE-Low_level-master\avr\libraries\SmartResponseXE\SmartResponseXE.cpp ****   if (iBGColor > 3) iBGColor = 3;
 722:C:\Users\Hexma\Documents\Arduino\hardware\SMART-Response-XE-Low_level-master\avr\libraries\SmartResponseXE\SmartResponseXE.cpp ****   if (iFGColor == 3)
 2221               		.loc 1 722 0
 2222 0050 0330      		cpi r16,3
 2223 0052 1105      		cpc r17,__zero_reg__
GAS LISTING C:\Users\Hexma\AppData\Local\Temp\cc7G6F1c.s 			page 53


 2224 0054 04F0      		brlt .+2
 2225 0056 00C0      		rjmp .L108
 723:C:\Users\Hexma\Documents\Arduino\hardware\SMART-Response-XE-Low_level-master\avr\libraries\SmartResponseXE\SmartResponseXE.cpp ****   {
 724:C:\Users\Hexma\Documents\Arduino\hardware\SMART-Response-XE-Low_level-master\avr\libraries\SmartResponseXE\SmartResponseXE.cpp ****     fgColor0 = 0xe0; fgColor1 = 0x1c; fgColor2 = 0x3;
 725:C:\Users\Hexma\Documents\Arduino\hardware\SMART-Response-XE-Low_level-master\avr\libraries\SmartResponseXE\SmartResponseXE.cpp ****   }
 726:C:\Users\Hexma\Documents\Arduino\hardware\SMART-Response-XE-Low_level-master\avr\libraries\SmartResponseXE\SmartResponseXE.cpp ****   else
 727:C:\Users\Hexma\Documents\Arduino\hardware\SMART-Response-XE-Low_level-master\avr\libraries\SmartResponseXE\SmartResponseXE.cpp ****   {
 728:C:\Users\Hexma\Documents\Arduino\hardware\SMART-Response-XE-Low_level-master\avr\libraries\SmartResponseXE\SmartResponseXE.cpp ****     fgColor0 = (byte)iFGColor << 6; // first pixel 3-bit version of the color
 2226               		.loc 1 728 0
 2227 0058 702E      		mov r7,r16
 2228 005a 102F      		mov r17,r16
 2229 005c 1295      		swap r17
 2230 005e 110F      		lsl r17
 2231 0060 110F      		lsl r17
 2232 0062 107C      		andi r17,lo8(-64)
 2233               	.LVL190:
 729:C:\Users\Hexma\Documents\Arduino\hardware\SMART-Response-XE-Low_level-master\avr\libraries\SmartResponseXE\SmartResponseXE.cpp ****     fgColor1 = (byte)iFGColor << 3; // second pixel
 2234               		.loc 1 729 0
 2235 0064 000F      		lsl r16
 2236 0066 000F      		lsl r16
 2237 0068 000F      		lsl r16
 2238               	.LVL191:
 2239               	.L74:
 730:C:\Users\Hexma\Documents\Arduino\hardware\SMART-Response-XE-Low_level-master\avr\libraries\SmartResponseXE\SmartResponseXE.cpp ****     fgColor2 = (byte)iFGColor;      // 3rd pixel
 731:C:\Users\Hexma\Documents\Arduino\hardware\SMART-Response-XE-Low_level-master\avr\libraries\SmartResponseXE\SmartResponseXE.cpp ****   }
 732:C:\Users\Hexma\Documents\Arduino\hardware\SMART-Response-XE-Low_level-master\avr\libraries\SmartResponseXE\SmartResponseXE.cpp ****   bgColor = bColorToByte[iBGColor];
 2240               		.loc 1 732 0
 2241 006a E050      		subi r30,lo8(-(_ZL12bColorToByte))
 2242 006c F040      		sbci r31,hi8(-(_ZL12bColorToByte))
 2243               	.LVL192:
 2244 006e A080      		ld r10,Z
 2245               	.LVL193:
 733:C:\Users\Hexma\Documents\Arduino\hardware\SMART-Response-XE-Low_level-master\avr\libraries\SmartResponseXE\SmartResponseXE.cpp **** 
 734:C:\Users\Hexma\Documents\Arduino\hardware\SMART-Response-XE-Low_level-master\avr\libraries\SmartResponseXE\SmartResponseXE.cpp ****   iLen = strlen(szMsg);
 2246               		.loc 1 734 0
 2247 0070 D101      		movw r26,r2
 2248               		0:
 2249 0072 0D90      		ld __tmp_reg__,X+
 2250 0074 0020      		tst __tmp_reg__
 2251 0076 01F4      		brne 0b
 2252 0078 CD01      		movw r24,r26
 2253               	.LVL194:
 2254 007a 0197      		sbiw r24,1
 2255 007c 8219      		sub r24,r2
 2256 007e 9309      		sbc r25,r3
 2257 0080 2C01      		movw r4,r24
 2258               	.LVL195:
 2259               	.LBB27:
 735:C:\Users\Hexma\Documents\Arduino\hardware\SMART-Response-XE-Low_level-master\avr\libraries\SmartResponseXE\SmartResponseXE.cpp ****   if (iSize == FONT_LARGE || iSize == FONT_MEDIUM) // draw 12x16 or 15x16 font
 2260               		.loc 1 735 0
 2261 0082 9601      		movw r18,r12
 2262               	.LVL196:
 2263 0084 2250      		subi r18,2
 2264 0086 3109      		sbc r19,__zero_reg__
 2265 0088 2230      		cpi r18,2
 2266 008a 3105      		cpc r19,__zero_reg__
 2267 008c 00F0      		brlo .+2
GAS LISTING C:\Users\Hexma\AppData\Local\Temp\cc7G6F1c.s 			page 54


 2268 008e 00C0      		rjmp .L75
 2269               	.LBB28:
 736:C:\Users\Hexma\Documents\Arduino\hardware\SMART-Response-XE-Low_level-master\avr\libraries\SmartResponseXE\SmartResponseXE.cpp ****   {
 737:C:\Users\Hexma\Documents\Arduino\hardware\SMART-Response-XE-Low_level-master\avr\libraries\SmartResponseXE\SmartResponseXE.cpp ****     int iWidth, iDelta;
 738:C:\Users\Hexma\Documents\Arduino\hardware\SMART-Response-XE-Low_level-master\avr\libraries\SmartResponseXE\SmartResponseXE.cpp ****     iWidth = (iSize == FONT_LARGE) ? 15 : 12;
 2270               		.loc 1 738 0
 2271 0090 B3E0      		ldi r27,3
 2272 0092 CB16      		cp r12,r27
 2273 0094 D104      		cpc r13,__zero_reg__
 2274 0096 01F4      		brne .+2
 2275 0098 00C0      		rjmp .L109
 2276 009a 5CE0      		ldi r21,lo8(12)
 2277 009c E52E      		mov r14,r21
 2278 009e F12C      		mov r15,__zero_reg__
 739:C:\Users\Hexma\Documents\Arduino\hardware\SMART-Response-XE-Low_level-master\avr\libraries\SmartResponseXE\SmartResponseXE.cpp ****     iDelta = (iSize == FONT_LARGE) ? 5 : 4;
 2279               		.loc 1 739 0
 2280 00a0 E4E0      		ldi r30,lo8(4)
 2281 00a2 F0E0      		ldi r31,0
 2282               	.LVL197:
 2283 00a4 A196      		adiw r28,95-62
 2284 00a6 FFAF      		std Y+63,r31
 2285 00a8 EEAF      		std Y+62,r30
 2286 00aa A197      		sbiw r28,95-62
 2287               	.LVL198:
 2288               	.L76:
 740:C:\Users\Hexma\Documents\Arduino\hardware\SMART-Response-XE-Low_level-master\avr\libraries\SmartResponseXE\SmartResponseXE.cpp ****     if ((iWidth * iLen) + x > 384) iLen = (384 - x) / iWidth; // can't display it all
 2289               		.loc 1 740 0 discriminator 4
 2290 00ac 8E9D      		mul r24,r14
 2291 00ae 9001      		movw r18,r0
 2292 00b0 8F9D      		mul r24,r15
 2293 00b2 300D      		add r19,r0
 2294 00b4 9E9D      		mul r25,r14
 2295 00b6 300D      		add r19,r0
 2296 00b8 1124      		clr r1
 2297 00ba 280D      		add r18,r8
 2298 00bc 391D      		adc r19,r9
 2299 00be 2138      		cpi r18,-127
 2300 00c0 3140      		sbci r19,1
 2301 00c2 04F0      		brlt .L77
 2302               		.loc 1 740 0 is_stmt 0 discriminator 1
 2303 00c4 80E8      		ldi r24,lo8(-128)
 2304 00c6 91E0      		ldi r25,lo8(1)
 2305 00c8 8819      		sub r24,r8
 2306 00ca 9909      		sbc r25,r9
 2307 00cc B701      		movw r22,r14
 2308 00ce 0E94 0000 		call __divmodhi4
 2309 00d2 2B01      		movw r4,r22
 2310               	.LVL199:
 741:C:\Users\Hexma\Documents\Arduino\hardware\SMART-Response-XE-Low_level-master\avr\libraries\SmartResponseXE\SmartResponseXE.cpp ****     if (iLen < 0)return -1;
 2311               		.loc 1 741 0 is_stmt 1 discriminator 1
 2312 00d4 77FD      		sbrc r23,7
 2313 00d6 00C0      		rjmp .L115
 2314               	.LVL200:
 2315               	.L77:
 2316               	.LBB29:
 2317               	.LBB30:
 742:C:\Users\Hexma\Documents\Arduino\hardware\SMART-Response-XE-Low_level-master\avr\libraries\SmartResponseXE\SmartResponseXE.cpp ****     for (i = 0; i < iLen; i++)
GAS LISTING C:\Users\Hexma\AppData\Local\Temp\cc7G6F1c.s 			page 55


 743:C:\Users\Hexma\Documents\Arduino\hardware\SMART-Response-XE-Low_level-master\avr\libraries\SmartResponseXE\SmartResponseXE.cpp ****     {
 744:C:\Users\Hexma\Documents\Arduino\hardware\SMART-Response-XE-Low_level-master\avr\libraries\SmartResponseXE\SmartResponseXE.cpp ****       int tx, ty;
 745:C:\Users\Hexma\Documents\Arduino\hardware\SMART-Response-XE-Low_level-master\avr\libraries\SmartResponseXE\SmartResponseXE.cpp ****       byte bTemp[84], bMask, bOut, bOut2, *d;
 746:C:\Users\Hexma\Documents\Arduino\hardware\SMART-Response-XE-Low_level-master\avr\libraries\SmartResponseXE\SmartResponseXE.cpp ****       if (iSize == FONT_LARGE)
 747:C:\Users\Hexma\Documents\Arduino\hardware\SMART-Response-XE-Low_level-master\avr\libraries\SmartResponseXE\SmartResponseXE.cpp ****       {
 748:C:\Users\Hexma\Documents\Arduino\hardware\SMART-Response-XE-Low_level-master\avr\libraries\SmartResponseXE\SmartResponseXE.cpp ****         s = (unsigned char *)&ucFont[((unsigned char)szMsg[i] - 32) * 8];
 749:C:\Users\Hexma\Documents\Arduino\hardware\SMART-Response-XE-Low_level-master\avr\libraries\SmartResponseXE\SmartResponseXE.cpp ****         memcpy_P(ucTemp, s, 8); // copy from FLASH memory
 750:C:\Users\Hexma\Documents\Arduino\hardware\SMART-Response-XE-Low_level-master\avr\libraries\SmartResponseXE\SmartResponseXE.cpp ****       }
 751:C:\Users\Hexma\Documents\Arduino\hardware\SMART-Response-XE-Low_level-master\avr\libraries\SmartResponseXE\SmartResponseXE.cpp ****       else
 752:C:\Users\Hexma\Documents\Arduino\hardware\SMART-Response-XE-Low_level-master\avr\libraries\SmartResponseXE\SmartResponseXE.cpp ****       {
 753:C:\Users\Hexma\Documents\Arduino\hardware\SMART-Response-XE-Low_level-master\avr\libraries\SmartResponseXE\SmartResponseXE.cpp ****         s = (unsigned char *)&ucSmallFont[((unsigned char)szMsg[i] - 32) * 6];
 754:C:\Users\Hexma\Documents\Arduino\hardware\SMART-Response-XE-Low_level-master\avr\libraries\SmartResponseXE\SmartResponseXE.cpp ****         memcpy_P(ucTemp, s, 6);
 755:C:\Users\Hexma\Documents\Arduino\hardware\SMART-Response-XE-Low_level-master\avr\libraries\SmartResponseXE\SmartResponseXE.cpp ****       }
 756:C:\Users\Hexma\Documents\Arduino\hardware\SMART-Response-XE-Low_level-master\avr\libraries\SmartResponseXE\SmartResponseXE.cpp ****       // convert from 1-bpp to 2/3-bpp
 757:C:\Users\Hexma\Documents\Arduino\hardware\SMART-Response-XE-Low_level-master\avr\libraries\SmartResponseXE\SmartResponseXE.cpp ****       d = bTemp;
 758:C:\Users\Hexma\Documents\Arduino\hardware\SMART-Response-XE-Low_level-master\avr\libraries\SmartResponseXE\SmartResponseXE.cpp ****       s = ucTemp;
 759:C:\Users\Hexma\Documents\Arduino\hardware\SMART-Response-XE-Low_level-master\avr\libraries\SmartResponseXE\SmartResponseXE.cpp ****       bMask = 1;
 760:C:\Users\Hexma\Documents\Arduino\hardware\SMART-Response-XE-Low_level-master\avr\libraries\SmartResponseXE\SmartResponseXE.cpp ****       for (ty = 0; ty < 8; ty++)
 761:C:\Users\Hexma\Documents\Arduino\hardware\SMART-Response-XE-Low_level-master\avr\libraries\SmartResponseXE\SmartResponseXE.cpp ****       {
 762:C:\Users\Hexma\Documents\Arduino\hardware\SMART-Response-XE-Low_level-master\avr\libraries\SmartResponseXE\SmartResponseXE.cpp ****         for (tx = 0; tx < iWidth - 6; tx += 3) // 3 sets of 3 pixels
 763:C:\Users\Hexma\Documents\Arduino\hardware\SMART-Response-XE-Low_level-master\avr\libraries\SmartResponseXE\SmartResponseXE.cpp ****         {
 764:C:\Users\Hexma\Documents\Arduino\hardware\SMART-Response-XE-Low_level-master\avr\libraries\SmartResponseXE\SmartResponseXE.cpp ****           bOut = bOut2 = bgColor;
 765:C:\Users\Hexma\Documents\Arduino\hardware\SMART-Response-XE-Low_level-master\avr\libraries\SmartResponseXE\SmartResponseXE.cpp ****           if (s[tx] & bMask)
 766:C:\Users\Hexma\Documents\Arduino\hardware\SMART-Response-XE-Low_level-master\avr\libraries\SmartResponseXE\SmartResponseXE.cpp ****           {
 767:C:\Users\Hexma\Documents\Arduino\hardware\SMART-Response-XE-Low_level-master\avr\libraries\SmartResponseXE\SmartResponseXE.cpp ****             bOut &= 0x3; // clear top 6 bits
 768:C:\Users\Hexma\Documents\Arduino\hardware\SMART-Response-XE-Low_level-master\avr\libraries\SmartResponseXE\SmartResponseXE.cpp ****             bOut |= fgColor0 | fgColor1; // first 2 pixels (6 bits)
 769:C:\Users\Hexma\Documents\Arduino\hardware\SMART-Response-XE-Low_level-master\avr\libraries\SmartResponseXE\SmartResponseXE.cpp ****           }
 770:C:\Users\Hexma\Documents\Arduino\hardware\SMART-Response-XE-Low_level-master\avr\libraries\SmartResponseXE\SmartResponseXE.cpp ****           if (s[tx + 1] & bMask)
 771:C:\Users\Hexma\Documents\Arduino\hardware\SMART-Response-XE-Low_level-master\avr\libraries\SmartResponseXE\SmartResponseXE.cpp ****           {
 772:C:\Users\Hexma\Documents\Arduino\hardware\SMART-Response-XE-Low_level-master\avr\libraries\SmartResponseXE\SmartResponseXE.cpp ****             bOut &= 0xfc; // clear bottom 2 bits
 773:C:\Users\Hexma\Documents\Arduino\hardware\SMART-Response-XE-Low_level-master\avr\libraries\SmartResponseXE\SmartResponseXE.cpp ****             bOut2 &= 0x1f; // clear top 3 bits
 774:C:\Users\Hexma\Documents\Arduino\hardware\SMART-Response-XE-Low_level-master\avr\libraries\SmartResponseXE\SmartResponseXE.cpp ****             bOut |= fgColor2; // third pixel (2 bits)
 775:C:\Users\Hexma\Documents\Arduino\hardware\SMART-Response-XE-Low_level-master\avr\libraries\SmartResponseXE\SmartResponseXE.cpp ****             bOut2 |= fgColor0;
 776:C:\Users\Hexma\Documents\Arduino\hardware\SMART-Response-XE-Low_level-master\avr\libraries\SmartResponseXE\SmartResponseXE.cpp ****           }
 777:C:\Users\Hexma\Documents\Arduino\hardware\SMART-Response-XE-Low_level-master\avr\libraries\SmartResponseXE\SmartResponseXE.cpp ****           if (s[tx + 2] & bMask)
 778:C:\Users\Hexma\Documents\Arduino\hardware\SMART-Response-XE-Low_level-master\avr\libraries\SmartResponseXE\SmartResponseXE.cpp ****           {
 779:C:\Users\Hexma\Documents\Arduino\hardware\SMART-Response-XE-Low_level-master\avr\libraries\SmartResponseXE\SmartResponseXE.cpp ****             bOut2 &= 0xe0; // clear lower 5 bits
 780:C:\Users\Hexma\Documents\Arduino\hardware\SMART-Response-XE-Low_level-master\avr\libraries\SmartResponseXE\SmartResponseXE.cpp ****             bOut2 |= fgColor1 | fgColor2; // 2nd & 3rd pixel2 of second byte
 781:C:\Users\Hexma\Documents\Arduino\hardware\SMART-Response-XE-Low_level-master\avr\libraries\SmartResponseXE\SmartResponseXE.cpp ****           }
 782:C:\Users\Hexma\Documents\Arduino\hardware\SMART-Response-XE-Low_level-master\avr\libraries\SmartResponseXE\SmartResponseXE.cpp ****           d[0] = d[iDelta] = bOut;
 783:C:\Users\Hexma\Documents\Arduino\hardware\SMART-Response-XE-Low_level-master\avr\libraries\SmartResponseXE\SmartResponseXE.cpp ****           if (tx != 6)
 784:C:\Users\Hexma\Documents\Arduino\hardware\SMART-Response-XE-Low_level-master\avr\libraries\SmartResponseXE\SmartResponseXE.cpp ****             d[1] = d[iDelta + 1] = bOut2;
 785:C:\Users\Hexma\Documents\Arduino\hardware\SMART-Response-XE-Low_level-master\avr\libraries\SmartResponseXE\SmartResponseXE.cpp ****           d += 2;
 786:C:\Users\Hexma\Documents\Arduino\hardware\SMART-Response-XE-Low_level-master\avr\libraries\SmartResponseXE\SmartResponseXE.cpp ****         } // for tx
 787:C:\Users\Hexma\Documents\Arduino\hardware\SMART-Response-XE-Low_level-master\avr\libraries\SmartResponseXE\SmartResponseXE.cpp ****         d += 4; // skip extra line (add 4 since we incremented by 6 already)
 788:C:\Users\Hexma\Documents\Arduino\hardware\SMART-Response-XE-Low_level-master\avr\libraries\SmartResponseXE\SmartResponseXE.cpp ****         bMask <<= 1;
 789:C:\Users\Hexma\Documents\Arduino\hardware\SMART-Response-XE-Low_level-master\avr\libraries\SmartResponseXE\SmartResponseXE.cpp ****       } // for ty
 790:C:\Users\Hexma\Documents\Arduino\hardware\SMART-Response-XE-Low_level-master\avr\libraries\SmartResponseXE\SmartResponseXE.cpp ****       SRXESetPosition(x, y, iWidth, 16);
 791:C:\Users\Hexma\Documents\Arduino\hardware\SMART-Response-XE-Low_level-master\avr\libraries\SmartResponseXE\SmartResponseXE.cpp ****       SRXEWriteDataBlock(bTemp, 16 * iDelta); // write character pattern
 2318               		.loc 1 791 0 discriminator 1
 2319 00d8 A196      		adiw r28,95-62
 2320 00da AEAD      		ldd r26,Y+62
 2321 00dc BFAD      		ldd r27,Y+63
 2322 00de A197      		sbiw r28,95-62
 2323 00e0 24E0      		ldi r18,4
 2324               		1:
 2325 00e2 AA0F      		lsl r26
GAS LISTING C:\Users\Hexma\AppData\Local\Temp\cc7G6F1c.s 			page 56


 2326 00e4 BB1F      		rol r27
 2327 00e6 2A95      		dec r18
 2328 00e8 01F4      		brne 1b
 2329 00ea A796      		adiw r28,101-62
 2330 00ec BFAF      		std Y+63,r27
 2331 00ee AEAF      		std Y+62,r26
 2332 00f0 A797      		sbiw r28,101-62
 2333 00f2 C701      		movw r24,r14
 2334 00f4 0497      		sbiw r24,4
 2335 00f6 63E0      		ldi r22,lo8(3)
 2336 00f8 70E0      		ldi r23,0
 2337 00fa 0E94 0000 		call __udivmodhi4
 2338 00fe 6E5F      		subi r22,-2
 2339 0100 7F4F      		sbci r23,-1
 2340 0102 FB01      		movw r30,r22
 2341 0104 EE0F      		lsl r30
 2342 0106 FF1F      		rol r31
 2343 0108 A996      		adiw r28,103-62
 2344 010a FFAF      		std Y+63,r31
 2345 010c EEAF      		std Y+62,r30
 2346 010e A997      		sbiw r28,103-62
 2347 0110 6F96      		adiw r28,93-62
 2348 0112 3FAE      		std Y+63,r3
 2349 0114 2EAE      		std Y+62,r2
 2350 0116 6F97      		sbiw r28,93-62
 768:C:\Users\Hexma\Documents\Arduino\hardware\SMART-Response-XE-Low_level-master\avr\libraries\SmartResponseXE\SmartResponseXE.cpp ****           }
 2351               		.loc 1 768 0 discriminator 1
 2352 0118 912F      		mov r25,r17
 2353 011a 902B      		or r25,r16
 2354 011c 8A2D      		mov r24,r10
 2355 011e 8370      		andi r24,lo8(3)
 2356 0120 982B      		or r25,r24
 2357 0122 AA96      		adiw r28,105-63
 2358 0124 9FAF      		std Y+63,r25
 2359 0126 AA97      		sbiw r28,105-63
 773:C:\Users\Hexma\Documents\Arduino\hardware\SMART-Response-XE-Low_level-master\avr\libraries\SmartResponseXE\SmartResponseXE.cpp ****             bOut |= fgColor2; // third pixel (2 bits)
 2360               		.loc 1 773 0 discriminator 1
 2361 0128 8A2D      		mov r24,r10
 2362 012a 8F71      		andi r24,lo8(31)
 775:C:\Users\Hexma\Documents\Arduino\hardware\SMART-Response-XE-Low_level-master\avr\libraries\SmartResponseXE\SmartResponseXE.cpp ****           }
 2363               		.loc 1 775 0 discriminator 1
 2364 012c 182B      		or r17,r24
 2365 012e AB96      		adiw r28,106-63
 2366 0130 1FAF      		std Y+63,r17
 2367 0132 AB97      		sbiw r28,106-63
 780:C:\Users\Hexma\Documents\Arduino\hardware\SMART-Response-XE-Low_level-master\avr\libraries\SmartResponseXE\SmartResponseXE.cpp ****           }
 2368               		.loc 1 780 0 discriminator 1
 2369 0134 0729      		or r16,r7
 2370               	.LVL201:
 2371 0136 AC96      		adiw r28,107-63
 2372 0138 0FAF      		std Y+63,r16
 2373 013a AC97      		sbiw r28,107-63
 2374               	.L89:
 2375               	.LVL202:
 2376               	.LBE30:
 742:C:\Users\Hexma\Documents\Arduino\hardware\SMART-Response-XE-Low_level-master\avr\libraries\SmartResponseXE\SmartResponseXE.cpp ****     {
 2377               		.loc 1 742 0 discriminator 1
GAS LISTING C:\Users\Hexma\AppData\Local\Temp\cc7G6F1c.s 			page 57


 2378 013c 6F96      		adiw r28,93-62
 2379 013e 8EAD      		ldd r24,Y+62
 2380 0140 9FAD      		ldd r25,Y+63
 2381 0142 6F97      		sbiw r28,93-62
 2382 0144 8219      		sub r24,r2
 2383 0146 9309      		sbc r25,r3
 2384 0148 8415      		cp r24,r4
 2385 014a 9505      		cpc r25,r5
 2386 014c 04F0      		brlt .L79
 2387               	.LVL203:
 2388               	.L92:
 2389               	.LBE29:
 2390               	.LBE28:
 2391               	.LBE27:
 792:C:\Users\Hexma\Documents\Arduino\hardware\SMART-Response-XE-Low_level-master\avr\libraries\SmartResponseXE\SmartResponseXE.cpp ****       x += iWidth;
 793:C:\Users\Hexma\Documents\Arduino\hardware\SMART-Response-XE-Low_level-master\avr\libraries\SmartResponseXE\SmartResponseXE.cpp ****     } // for each character
 794:C:\Users\Hexma\Documents\Arduino\hardware\SMART-Response-XE-Low_level-master\avr\libraries\SmartResponseXE\SmartResponseXE.cpp ****   } // large+medium
 795:C:\Users\Hexma\Documents\Arduino\hardware\SMART-Response-XE-Low_level-master\avr\libraries\SmartResponseXE\SmartResponseXE.cpp ****   else if (iSize == FONT_NORMAL)// draw 8x8 font
 796:C:\Users\Hexma\Documents\Arduino\hardware\SMART-Response-XE-Low_level-master\avr\libraries\SmartResponseXE\SmartResponseXE.cpp ****   {
 797:C:\Users\Hexma\Documents\Arduino\hardware\SMART-Response-XE-Low_level-master\avr\libraries\SmartResponseXE\SmartResponseXE.cpp ****     if ((9 * iLen) + x > 384) iLen = (384 - x) / 9; // can't display it all
 798:C:\Users\Hexma\Documents\Arduino\hardware\SMART-Response-XE-Low_level-master\avr\libraries\SmartResponseXE\SmartResponseXE.cpp ****     if (iLen < 0)return -1;
 799:C:\Users\Hexma\Documents\Arduino\hardware\SMART-Response-XE-Low_level-master\avr\libraries\SmartResponseXE\SmartResponseXE.cpp **** 
 800:C:\Users\Hexma\Documents\Arduino\hardware\SMART-Response-XE-Low_level-master\avr\libraries\SmartResponseXE\SmartResponseXE.cpp ****     for (i = 0; i < iLen; i++)
 801:C:\Users\Hexma\Documents\Arduino\hardware\SMART-Response-XE-Low_level-master\avr\libraries\SmartResponseXE\SmartResponseXE.cpp ****     {
 802:C:\Users\Hexma\Documents\Arduino\hardware\SMART-Response-XE-Low_level-master\avr\libraries\SmartResponseXE\SmartResponseXE.cpp ****       int tx, ty;
 803:C:\Users\Hexma\Documents\Arduino\hardware\SMART-Response-XE-Low_level-master\avr\libraries\SmartResponseXE\SmartResponseXE.cpp ****       byte bTemp[24], bMask, bOut, *d;
 804:C:\Users\Hexma\Documents\Arduino\hardware\SMART-Response-XE-Low_level-master\avr\libraries\SmartResponseXE\SmartResponseXE.cpp ****       s = (unsigned char *)&ucFont[((unsigned char)szMsg[i] - 32) * 8];
 805:C:\Users\Hexma\Documents\Arduino\hardware\SMART-Response-XE-Low_level-master\avr\libraries\SmartResponseXE\SmartResponseXE.cpp ****       memcpy_P(ucTemp, s, 8); // copy from FLASH memory
 806:C:\Users\Hexma\Documents\Arduino\hardware\SMART-Response-XE-Low_level-master\avr\libraries\SmartResponseXE\SmartResponseXE.cpp ****       // convert from 1-bpp to 2/3-bpp
 807:C:\Users\Hexma\Documents\Arduino\hardware\SMART-Response-XE-Low_level-master\avr\libraries\SmartResponseXE\SmartResponseXE.cpp ****       d = bTemp;
 808:C:\Users\Hexma\Documents\Arduino\hardware\SMART-Response-XE-Low_level-master\avr\libraries\SmartResponseXE\SmartResponseXE.cpp ****       for (ty = 0; ty < 8; ty++)
 809:C:\Users\Hexma\Documents\Arduino\hardware\SMART-Response-XE-Low_level-master\avr\libraries\SmartResponseXE\SmartResponseXE.cpp ****       {
 810:C:\Users\Hexma\Documents\Arduino\hardware\SMART-Response-XE-Low_level-master\avr\libraries\SmartResponseXE\SmartResponseXE.cpp ****         bMask = 1 << ty;
 811:C:\Users\Hexma\Documents\Arduino\hardware\SMART-Response-XE-Low_level-master\avr\libraries\SmartResponseXE\SmartResponseXE.cpp ****         for (tx = 0; tx < 9; tx += 3) // 3 sets of 3 pixels
 812:C:\Users\Hexma\Documents\Arduino\hardware\SMART-Response-XE-Low_level-master\avr\libraries\SmartResponseXE\SmartResponseXE.cpp ****         {
 813:C:\Users\Hexma\Documents\Arduino\hardware\SMART-Response-XE-Low_level-master\avr\libraries\SmartResponseXE\SmartResponseXE.cpp ****           bOut = bgColor;
 814:C:\Users\Hexma\Documents\Arduino\hardware\SMART-Response-XE-Low_level-master\avr\libraries\SmartResponseXE\SmartResponseXE.cpp ****           if (ucTemp[tx] & bMask)
 815:C:\Users\Hexma\Documents\Arduino\hardware\SMART-Response-XE-Low_level-master\avr\libraries\SmartResponseXE\SmartResponseXE.cpp ****           {
 816:C:\Users\Hexma\Documents\Arduino\hardware\SMART-Response-XE-Low_level-master\avr\libraries\SmartResponseXE\SmartResponseXE.cpp ****             bOut &= 0x1f; // clear top 3 bits
 817:C:\Users\Hexma\Documents\Arduino\hardware\SMART-Response-XE-Low_level-master\avr\libraries\SmartResponseXE\SmartResponseXE.cpp ****             bOut |= fgColor0; // first pixel (3 bits)
 818:C:\Users\Hexma\Documents\Arduino\hardware\SMART-Response-XE-Low_level-master\avr\libraries\SmartResponseXE\SmartResponseXE.cpp ****           }
 819:C:\Users\Hexma\Documents\Arduino\hardware\SMART-Response-XE-Low_level-master\avr\libraries\SmartResponseXE\SmartResponseXE.cpp ****           if (ucTemp[tx + 1] & bMask)
 820:C:\Users\Hexma\Documents\Arduino\hardware\SMART-Response-XE-Low_level-master\avr\libraries\SmartResponseXE\SmartResponseXE.cpp ****           {
 821:C:\Users\Hexma\Documents\Arduino\hardware\SMART-Response-XE-Low_level-master\avr\libraries\SmartResponseXE\SmartResponseXE.cpp ****             bOut &= 0xe3; // clear middle 3 bits
 822:C:\Users\Hexma\Documents\Arduino\hardware\SMART-Response-XE-Low_level-master\avr\libraries\SmartResponseXE\SmartResponseXE.cpp ****             bOut |= fgColor1; // second pixel (3 bits)
 823:C:\Users\Hexma\Documents\Arduino\hardware\SMART-Response-XE-Low_level-master\avr\libraries\SmartResponseXE\SmartResponseXE.cpp ****           }
 824:C:\Users\Hexma\Documents\Arduino\hardware\SMART-Response-XE-Low_level-master\avr\libraries\SmartResponseXE\SmartResponseXE.cpp ****           if (tx != 6 &&
 825:C:\Users\Hexma\Documents\Arduino\hardware\SMART-Response-XE-Low_level-master\avr\libraries\SmartResponseXE\SmartResponseXE.cpp ****               ucTemp[tx + 2] & bMask)
 826:C:\Users\Hexma\Documents\Arduino\hardware\SMART-Response-XE-Low_level-master\avr\libraries\SmartResponseXE\SmartResponseXE.cpp ****           {
 827:C:\Users\Hexma\Documents\Arduino\hardware\SMART-Response-XE-Low_level-master\avr\libraries\SmartResponseXE\SmartResponseXE.cpp ****             bOut &= 0xfc; // clear lower 2 bits
 828:C:\Users\Hexma\Documents\Arduino\hardware\SMART-Response-XE-Low_level-master\avr\libraries\SmartResponseXE\SmartResponseXE.cpp ****             bOut |= fgColor2; // third pixel (2 bits)
 829:C:\Users\Hexma\Documents\Arduino\hardware\SMART-Response-XE-Low_level-master\avr\libraries\SmartResponseXE\SmartResponseXE.cpp ****           }
 830:C:\Users\Hexma\Documents\Arduino\hardware\SMART-Response-XE-Low_level-master\avr\libraries\SmartResponseXE\SmartResponseXE.cpp ****           *d++ = bOut;
 831:C:\Users\Hexma\Documents\Arduino\hardware\SMART-Response-XE-Low_level-master\avr\libraries\SmartResponseXE\SmartResponseXE.cpp ****         } // for tx
 832:C:\Users\Hexma\Documents\Arduino\hardware\SMART-Response-XE-Low_level-master\avr\libraries\SmartResponseXE\SmartResponseXE.cpp ****       } // for ty
 833:C:\Users\Hexma\Documents\Arduino\hardware\SMART-Response-XE-Low_level-master\avr\libraries\SmartResponseXE\SmartResponseXE.cpp ****       SRXESetPosition(x, y, 9, 8);
 834:C:\Users\Hexma\Documents\Arduino\hardware\SMART-Response-XE-Low_level-master\avr\libraries\SmartResponseXE\SmartResponseXE.cpp ****       x += 9;
GAS LISTING C:\Users\Hexma\AppData\Local\Temp\cc7G6F1c.s 			page 58


 835:C:\Users\Hexma\Documents\Arduino\hardware\SMART-Response-XE-Low_level-master\avr\libraries\SmartResponseXE\SmartResponseXE.cpp ****       SRXEWriteDataBlock(bTemp, 24); // write character pattern
 836:C:\Users\Hexma\Documents\Arduino\hardware\SMART-Response-XE-Low_level-master\avr\libraries\SmartResponseXE\SmartResponseXE.cpp ****     }
 837:C:\Users\Hexma\Documents\Arduino\hardware\SMART-Response-XE-Low_level-master\avr\libraries\SmartResponseXE\SmartResponseXE.cpp ****   } // normal
 838:C:\Users\Hexma\Documents\Arduino\hardware\SMART-Response-XE-Low_level-master\avr\libraries\SmartResponseXE\SmartResponseXE.cpp ****   else // 6x8
 839:C:\Users\Hexma\Documents\Arduino\hardware\SMART-Response-XE-Low_level-master\avr\libraries\SmartResponseXE\SmartResponseXE.cpp ****   {
 840:C:\Users\Hexma\Documents\Arduino\hardware\SMART-Response-XE-Low_level-master\avr\libraries\SmartResponseXE\SmartResponseXE.cpp ****     if ((6 * iLen) + x > 384) iLen = (384 - x) / 6; // can't display it all
 841:C:\Users\Hexma\Documents\Arduino\hardware\SMART-Response-XE-Low_level-master\avr\libraries\SmartResponseXE\SmartResponseXE.cpp ****     if (iLen < 0)return -1;
 842:C:\Users\Hexma\Documents\Arduino\hardware\SMART-Response-XE-Low_level-master\avr\libraries\SmartResponseXE\SmartResponseXE.cpp **** 
 843:C:\Users\Hexma\Documents\Arduino\hardware\SMART-Response-XE-Low_level-master\avr\libraries\SmartResponseXE\SmartResponseXE.cpp ****     for (i = 0; i < iLen; i++)
 844:C:\Users\Hexma\Documents\Arduino\hardware\SMART-Response-XE-Low_level-master\avr\libraries\SmartResponseXE\SmartResponseXE.cpp ****     {
 845:C:\Users\Hexma\Documents\Arduino\hardware\SMART-Response-XE-Low_level-master\avr\libraries\SmartResponseXE\SmartResponseXE.cpp ****       int tx, ty;
 846:C:\Users\Hexma\Documents\Arduino\hardware\SMART-Response-XE-Low_level-master\avr\libraries\SmartResponseXE\SmartResponseXE.cpp ****       byte bTemp[16], bMask, bOut, *d;
 847:C:\Users\Hexma\Documents\Arduino\hardware\SMART-Response-XE-Low_level-master\avr\libraries\SmartResponseXE\SmartResponseXE.cpp ****       s = (unsigned char *)&ucSmallFont[((unsigned char)szMsg[i] - 32) * 6];
 848:C:\Users\Hexma\Documents\Arduino\hardware\SMART-Response-XE-Low_level-master\avr\libraries\SmartResponseXE\SmartResponseXE.cpp ****       memcpy_P(ucTemp, s, 6); // copy from FLASH memory
 849:C:\Users\Hexma\Documents\Arduino\hardware\SMART-Response-XE-Low_level-master\avr\libraries\SmartResponseXE\SmartResponseXE.cpp ****       // convert from 1-bpp to 2/3-bpp
 850:C:\Users\Hexma\Documents\Arduino\hardware\SMART-Response-XE-Low_level-master\avr\libraries\SmartResponseXE\SmartResponseXE.cpp ****       d = bTemp;
 851:C:\Users\Hexma\Documents\Arduino\hardware\SMART-Response-XE-Low_level-master\avr\libraries\SmartResponseXE\SmartResponseXE.cpp ****       for (ty = 0; ty < 8; ty++)
 852:C:\Users\Hexma\Documents\Arduino\hardware\SMART-Response-XE-Low_level-master\avr\libraries\SmartResponseXE\SmartResponseXE.cpp ****       {
 853:C:\Users\Hexma\Documents\Arduino\hardware\SMART-Response-XE-Low_level-master\avr\libraries\SmartResponseXE\SmartResponseXE.cpp ****         bMask = 1 << ty;
 854:C:\Users\Hexma\Documents\Arduino\hardware\SMART-Response-XE-Low_level-master\avr\libraries\SmartResponseXE\SmartResponseXE.cpp ****         for (tx = 0; tx < 6; tx += 3) // 2 sets of 3 pixels
 855:C:\Users\Hexma\Documents\Arduino\hardware\SMART-Response-XE-Low_level-master\avr\libraries\SmartResponseXE\SmartResponseXE.cpp ****         {
 856:C:\Users\Hexma\Documents\Arduino\hardware\SMART-Response-XE-Low_level-master\avr\libraries\SmartResponseXE\SmartResponseXE.cpp ****           bOut = bgColor;
 857:C:\Users\Hexma\Documents\Arduino\hardware\SMART-Response-XE-Low_level-master\avr\libraries\SmartResponseXE\SmartResponseXE.cpp ****           if (ucTemp[tx] & bMask)
 858:C:\Users\Hexma\Documents\Arduino\hardware\SMART-Response-XE-Low_level-master\avr\libraries\SmartResponseXE\SmartResponseXE.cpp ****           {
 859:C:\Users\Hexma\Documents\Arduino\hardware\SMART-Response-XE-Low_level-master\avr\libraries\SmartResponseXE\SmartResponseXE.cpp ****             bOut &= 0x1f; // clear top 3 bits
 860:C:\Users\Hexma\Documents\Arduino\hardware\SMART-Response-XE-Low_level-master\avr\libraries\SmartResponseXE\SmartResponseXE.cpp ****             bOut |= fgColor0; // first pixel (3 bits)
 861:C:\Users\Hexma\Documents\Arduino\hardware\SMART-Response-XE-Low_level-master\avr\libraries\SmartResponseXE\SmartResponseXE.cpp ****           }
 862:C:\Users\Hexma\Documents\Arduino\hardware\SMART-Response-XE-Low_level-master\avr\libraries\SmartResponseXE\SmartResponseXE.cpp ****           if (ucTemp[tx + 1] & bMask)
 863:C:\Users\Hexma\Documents\Arduino\hardware\SMART-Response-XE-Low_level-master\avr\libraries\SmartResponseXE\SmartResponseXE.cpp ****           {
 864:C:\Users\Hexma\Documents\Arduino\hardware\SMART-Response-XE-Low_level-master\avr\libraries\SmartResponseXE\SmartResponseXE.cpp ****             bOut &= 0xe3; // clear middle 3 bits
 865:C:\Users\Hexma\Documents\Arduino\hardware\SMART-Response-XE-Low_level-master\avr\libraries\SmartResponseXE\SmartResponseXE.cpp ****             bOut |= fgColor1; // second pixel (3 bits)
 866:C:\Users\Hexma\Documents\Arduino\hardware\SMART-Response-XE-Low_level-master\avr\libraries\SmartResponseXE\SmartResponseXE.cpp ****           }
 867:C:\Users\Hexma\Documents\Arduino\hardware\SMART-Response-XE-Low_level-master\avr\libraries\SmartResponseXE\SmartResponseXE.cpp ****           if (ucTemp[tx + 2] & bMask)
 868:C:\Users\Hexma\Documents\Arduino\hardware\SMART-Response-XE-Low_level-master\avr\libraries\SmartResponseXE\SmartResponseXE.cpp ****           {
 869:C:\Users\Hexma\Documents\Arduino\hardware\SMART-Response-XE-Low_level-master\avr\libraries\SmartResponseXE\SmartResponseXE.cpp ****             bOut &= 0xfc; // clear lower 2 bits
 870:C:\Users\Hexma\Documents\Arduino\hardware\SMART-Response-XE-Low_level-master\avr\libraries\SmartResponseXE\SmartResponseXE.cpp ****             bOut |= fgColor2; // third pixel (2 bits)
 871:C:\Users\Hexma\Documents\Arduino\hardware\SMART-Response-XE-Low_level-master\avr\libraries\SmartResponseXE\SmartResponseXE.cpp ****           }
 872:C:\Users\Hexma\Documents\Arduino\hardware\SMART-Response-XE-Low_level-master\avr\libraries\SmartResponseXE\SmartResponseXE.cpp ****           *d++ = bOut;
 873:C:\Users\Hexma\Documents\Arduino\hardware\SMART-Response-XE-Low_level-master\avr\libraries\SmartResponseXE\SmartResponseXE.cpp ****         } // for tx
